
../testcode/compression.elf:     file format elf32-littleriscv


Disassembly of section .text.swinit1:

60000000 <_start>:
60000000:	00001317          	auipc	x6,0x1
60000004:	acc30313          	addi	x6,x6,-1332 # 60000acc <_bss_vma_end>
60000008:	00001397          	auipc	x7,0x1
6000000c:	ac438393          	addi	x7,x7,-1340 # 60000acc <_bss_vma_end>
60000010:	00730863          	beq	x6,x7,60000020 <_setup>

60000014 <_initbss_loop>:
60000014:	00032023          	sw	x0,0(x6)
60000018:	00430313          	addi	x6,x6,4
6000001c:	fe736ce3          	bltu	x6,x7,60000014 <_initbss_loop>

60000020 <_setup>:
60000020:	20000117          	auipc	x2,0x20000
60000024:	fe010113          	addi	x2,x2,-32 # 80000000 <_stack_top>
60000028:	00010433          	add	x8,x2,x0
6000002c:	00000097          	auipc	x1,0x0
60000030:	2b8080e7          	jalr	696(x1) # 600002e4 <main>
60000034:	f0002013          	slti	x0,x0,-256
60000038:	00000097          	auipc	x1,0x0
6000003c:	350080e7          	jalr	848(x1) # 60000388 <_fini>

Disassembly of section .text:

60000040 <memset>:
60000040:	00f00313          	li	x6,15
60000044:	00050713          	mv	x14,x10
60000048:	02c37e63          	bgeu	x6,x12,60000084 <memset+0x44>
6000004c:	00f77793          	andi	x15,x14,15
60000050:	0a079063          	bnez	x15,600000f0 <memset+0xb0>
60000054:	08059263          	bnez	x11,600000d8 <memset+0x98>
60000058:	ff067693          	andi	x13,x12,-16
6000005c:	00f67613          	andi	x12,x12,15
60000060:	00e686b3          	add	x13,x13,x14
60000064:	00b72023          	sw	x11,0(x14)
60000068:	00b72223          	sw	x11,4(x14)
6000006c:	00b72423          	sw	x11,8(x14)
60000070:	00b72623          	sw	x11,12(x14)
60000074:	01070713          	addi	x14,x14,16
60000078:	fed766e3          	bltu	x14,x13,60000064 <memset+0x24>
6000007c:	00061463          	bnez	x12,60000084 <memset+0x44>
60000080:	00008067          	ret
60000084:	40c306b3          	sub	x13,x6,x12
60000088:	00269693          	slli	x13,x13,0x2
6000008c:	00000297          	auipc	x5,0x0
60000090:	005686b3          	add	x13,x13,x5
60000094:	00c68067          	jr	12(x13)
60000098:	00b70723          	sb	x11,14(x14)
6000009c:	00b706a3          	sb	x11,13(x14)
600000a0:	00b70623          	sb	x11,12(x14)
600000a4:	00b705a3          	sb	x11,11(x14)
600000a8:	00b70523          	sb	x11,10(x14)
600000ac:	00b704a3          	sb	x11,9(x14)
600000b0:	00b70423          	sb	x11,8(x14)
600000b4:	00b703a3          	sb	x11,7(x14)
600000b8:	00b70323          	sb	x11,6(x14)
600000bc:	00b702a3          	sb	x11,5(x14)
600000c0:	00b70223          	sb	x11,4(x14)
600000c4:	00b701a3          	sb	x11,3(x14)
600000c8:	00b70123          	sb	x11,2(x14)
600000cc:	00b700a3          	sb	x11,1(x14)
600000d0:	00b70023          	sb	x11,0(x14)
600000d4:	00008067          	ret
600000d8:	0ff5f593          	zext.b	x11,x11
600000dc:	00859693          	slli	x13,x11,0x8
600000e0:	00d5e5b3          	or	x11,x11,x13
600000e4:	01059693          	slli	x13,x11,0x10
600000e8:	00d5e5b3          	or	x11,x11,x13
600000ec:	f6dff06f          	j	60000058 <memset+0x18>
600000f0:	00279693          	slli	x13,x15,0x2
600000f4:	00000297          	auipc	x5,0x0
600000f8:	005686b3          	add	x13,x13,x5
600000fc:	00008293          	mv	x5,x1
60000100:	fa0680e7          	jalr	-96(x13)
60000104:	00028093          	mv	x1,x5
60000108:	ff078793          	addi	x15,x15,-16
6000010c:	40f70733          	sub	x14,x14,x15
60000110:	00f60633          	add	x12,x12,x15
60000114:	f6c378e3          	bgeu	x6,x12,60000084 <memset+0x44>
60000118:	f3dff06f          	j	60000054 <memset+0x14>

6000011c <compress_code>:
6000011c:	fd010113          	addi	x2,x2,-48
60000120:	02812623          	sw	x8,44(x2)
60000124:	03010413          	addi	x8,x2,48
60000128:	fca42e23          	sw	x10,-36(x8)
6000012c:	fcb42c23          	sw	x11,-40(x8)
60000130:	fcc42a23          	sw	x12,-44(x8)
60000134:	fdc42783          	lw	x15,-36(x8)
60000138:	00078a63          	beqz	x15,6000014c <compress_code+0x30>
6000013c:	fd842783          	lw	x15,-40(x8)
60000140:	00078663          	beqz	x15,6000014c <compress_code+0x30>
60000144:	fd442783          	lw	x15,-44(x8)
60000148:	00079663          	bnez	x15,60000154 <compress_code+0x38>
6000014c:	00000793          	li	x15,0
60000150:	1840006f          	j	600002d4 <compress_code+0x1b8>
60000154:	fd842783          	lw	x15,-40(x8)
60000158:	fef42023          	sw	x15,-32(x8)
6000015c:	fe042623          	sw	x0,-20(x8)
60000160:	fe042423          	sw	x0,-24(x8)
60000164:	1100006f          	j	60000274 <compress_code+0x158>
60000168:	fe842783          	lw	x15,-24(x8)
6000016c:	00078e63          	beqz	x15,60000188 <compress_code+0x6c>
60000170:	fe842783          	lw	x15,-24(x8)
60000174:	0077f793          	andi	x15,x15,7
60000178:	00079863          	bnez	x15,60000188 <compress_code+0x6c>
6000017c:	fec42783          	lw	x15,-20(x8)
60000180:	00178793          	addi	x15,x15,1
60000184:	fef42623          	sw	x15,-20(x8)
60000188:	fe042223          	sw	x0,-28(x8)
6000018c:	0d00006f          	j	6000025c <compress_code+0x140>
60000190:	fec42783          	lw	x15,-20(x8)
60000194:	00379713          	slli	x14,x15,0x3
60000198:	fe442783          	lw	x15,-28(x8)
6000019c:	00f707b3          	add	x15,x14,x15
600001a0:	fd442703          	lw	x14,-44(x8)
600001a4:	00f707b3          	add	x15,x14,x15
600001a8:	0007c703          	lbu	x14,0(x15)
600001ac:	fec42783          	lw	x15,-20(x8)
600001b0:	00379693          	slli	x13,x15,0x3
600001b4:	fe442783          	lw	x15,-28(x8)
600001b8:	00f687b3          	add	x15,x13,x15
600001bc:	fd442683          	lw	x13,-44(x8)
600001c0:	00f687b3          	add	x15,x13,x15
600001c4:	00171713          	slli	x14,x14,0x1
600001c8:	0ff77713          	zext.b	x14,x14
600001cc:	00e78023          	sb	x14,0(x15)
600001d0:	fec42783          	lw	x15,-20(x8)
600001d4:	00379713          	slli	x14,x15,0x3
600001d8:	fe442783          	lw	x15,-28(x8)
600001dc:	00f707b3          	add	x15,x14,x15
600001e0:	fd442703          	lw	x14,-44(x8)
600001e4:	00f707b3          	add	x15,x14,x15
600001e8:	0007c783          	lbu	x15,0(x15)
600001ec:	01879713          	slli	x14,x15,0x18
600001f0:	41875713          	srai	x14,x14,0x18
600001f4:	fdc42683          	lw	x13,-36(x8)
600001f8:	fe842783          	lw	x15,-24(x8)
600001fc:	00f687b3          	add	x15,x13,x15
60000200:	0007c783          	lbu	x15,0(x15)
60000204:	00078693          	mv	x13,x15
60000208:	fe442783          	lw	x15,-28(x8)
6000020c:	40f6d7b3          	sra	x15,x13,x15
60000210:	01879793          	slli	x15,x15,0x18
60000214:	4187d793          	srai	x15,x15,0x18
60000218:	0017f793          	andi	x15,x15,1
6000021c:	01879793          	slli	x15,x15,0x18
60000220:	4187d793          	srai	x15,x15,0x18
60000224:	00f767b3          	or	x15,x14,x15
60000228:	01879693          	slli	x13,x15,0x18
6000022c:	4186d693          	srai	x13,x13,0x18
60000230:	fec42783          	lw	x15,-20(x8)
60000234:	00379713          	slli	x14,x15,0x3
60000238:	fe442783          	lw	x15,-28(x8)
6000023c:	00f707b3          	add	x15,x14,x15
60000240:	fd442703          	lw	x14,-44(x8)
60000244:	00f707b3          	add	x15,x14,x15
60000248:	0ff6f713          	zext.b	x14,x13
6000024c:	00e78023          	sb	x14,0(x15)
60000250:	fe442783          	lw	x15,-28(x8)
60000254:	00178793          	addi	x15,x15,1
60000258:	fef42223          	sw	x15,-28(x8)
6000025c:	fe442703          	lw	x14,-28(x8)
60000260:	00700793          	li	x15,7
60000264:	f2e7d6e3          	bge	x15,x14,60000190 <compress_code+0x74>
60000268:	fe842783          	lw	x15,-24(x8)
6000026c:	00178793          	addi	x15,x15,1
60000270:	fef42423          	sw	x15,-24(x8)
60000274:	fec42703          	lw	x14,-20(x8)
60000278:	fe042783          	lw	x15,-32(x8)
6000027c:	00f77863          	bgeu	x14,x15,6000028c <compress_code+0x170>
60000280:	fe842703          	lw	x14,-24(x8)
60000284:	fd842783          	lw	x15,-40(x8)
60000288:	eef760e3          	bltu	x14,x15,60000168 <compress_code+0x4c>
6000028c:	fe042783          	lw	x15,-32(x8)
60000290:	fff78793          	addi	x15,x15,-1
60000294:	fd442703          	lw	x14,-44(x8)
60000298:	00f707b3          	add	x15,x14,x15
6000029c:	0007c783          	lbu	x15,0(x15)
600002a0:	00078693          	mv	x13,x15
600002a4:	fe042783          	lw	x15,-32(x8)
600002a8:	00379713          	slli	x14,x15,0x3
600002ac:	fd842783          	lw	x15,-40(x8)
600002b0:	40f707b3          	sub	x15,x14,x15
600002b4:	00f696b3          	sll	x13,x13,x15
600002b8:	fe042783          	lw	x15,-32(x8)
600002bc:	fff78793          	addi	x15,x15,-1
600002c0:	fd442703          	lw	x14,-44(x8)
600002c4:	00f707b3          	add	x15,x14,x15
600002c8:	0ff6f713          	zext.b	x14,x13
600002cc:	00e78023          	sb	x14,0(x15)
600002d0:	fe042783          	lw	x15,-32(x8)
600002d4:	00078513          	mv	x10,x15
600002d8:	02c12403          	lw	x8,44(x2)
600002dc:	03010113          	addi	x2,x2,48
600002e0:	00008067          	ret

600002e4 <main>:
600002e4:	e5010113          	addi	x2,x2,-432
600002e8:	1a112623          	sw	x1,428(x2)
600002ec:	1a812423          	sw	x8,424(x2)
600002f0:	1b010413          	addi	x8,x2,432
600002f4:	00000717          	auipc	x14,0x0
600002f8:	70c70713          	addi	x14,x14,1804 # 60000a00 <_data_vma_start>
600002fc:	f2040793          	addi	x15,x8,-224
60000300:	00070693          	mv	x13,x14
60000304:	0c800713          	li	x14,200
60000308:	00070613          	mv	x12,x14
6000030c:	00068593          	mv	x11,x13
60000310:	00078513          	mv	x10,x15
60000314:	00000097          	auipc	x1,0x0
60000318:	478080e7          	jalr	1144(x1) # 6000078c <memcpy>
6000031c:	0c800793          	li	x15,200
60000320:	fef42623          	sw	x15,-20(x8)
60000324:	e5840793          	addi	x15,x8,-424
60000328:	0c800713          	li	x14,200
6000032c:	00070613          	mv	x12,x14
60000330:	00000593          	li	x11,0
60000334:	00078513          	mv	x10,x15
60000338:	00000097          	auipc	x1,0x0
6000033c:	d08080e7          	jalr	-760(x1) # 60000040 <memset>
60000340:	00102013          	slti	x0,x0,1
60000344:	00302013          	slti	x0,x0,3
60000348:	e5840713          	addi	x14,x8,-424
6000034c:	f2040793          	addi	x15,x8,-224
60000350:	00070613          	mv	x12,x14
60000354:	fec42583          	lw	x11,-20(x8)
60000358:	00078513          	mv	x10,x15
6000035c:	00000097          	auipc	x1,0x0
60000360:	dc0080e7          	jalr	-576(x1) # 6000011c <compress_code>
60000364:	fea42423          	sw	x10,-24(x8)
60000368:	00402013          	slti	x0,x0,4
6000036c:	00202013          	slti	x0,x0,2
60000370:	fe842783          	lw	x15,-24(x8)
60000374:	00078513          	mv	x10,x15
60000378:	1ac12083          	lw	x1,428(x2)
6000037c:	1a812403          	lw	x8,424(x2)
60000380:	1b010113          	addi	x2,x2,432
60000384:	00008067          	ret

60000388 <_fini>:
60000388:	00000063          	beqz	x0,60000388 <_fini>
6000038c:	00000013          	nop
60000390:	00000013          	nop
60000394:	00000013          	nop
60000398:	00000013          	nop
6000039c:	00000013          	nop
600003a0:	00000013          	nop
600003a4:	00000013          	nop
600003a8:	00000013          	nop
600003ac:	00000013          	nop
600003b0:	00000013          	nop
600003b4:	00000013          	nop
600003b8:	00000013          	nop
600003bc:	00000013          	nop
600003c0:	00000013          	nop
600003c4:	00000013          	nop
600003c8:	00000013          	nop
600003cc:	00000013          	nop
600003d0:	00000013          	nop
600003d4:	00000013          	nop
600003d8:	00000013          	nop
600003dc:	00000013          	nop
600003e0:	00000013          	nop
600003e4:	00000013          	nop
600003e8:	00000013          	nop
600003ec:	00000013          	nop
600003f0:	00000013          	nop
600003f4:	00000013          	nop
600003f8:	00000013          	nop
600003fc:	00000013          	nop
60000400:	00000013          	nop
60000404:	00000013          	nop
60000408:	00000013          	nop
6000040c:	00000013          	nop
60000410:	00000013          	nop
60000414:	00000013          	nop
60000418:	00000013          	nop
6000041c:	00000013          	nop
60000420:	00000013          	nop
60000424:	00000013          	nop
60000428:	00000013          	nop
6000042c:	00000013          	nop
60000430:	00000013          	nop
60000434:	00000013          	nop
60000438:	00000013          	nop
6000043c:	00000013          	nop
60000440:	00000013          	nop
60000444:	00000013          	nop
60000448:	00000013          	nop
6000044c:	00000013          	nop
60000450:	00000013          	nop
60000454:	00000013          	nop
60000458:	00000013          	nop
6000045c:	00000013          	nop
60000460:	00000013          	nop
60000464:	00000013          	nop
60000468:	00000013          	nop
6000046c:	00000013          	nop
60000470:	00000013          	nop
60000474:	00000013          	nop
60000478:	00000013          	nop
6000047c:	00000013          	nop
60000480:	00000013          	nop
60000484:	00000013          	nop
60000488:	00000013          	nop
6000048c:	00000013          	nop
60000490:	00000013          	nop
60000494:	00000013          	nop
60000498:	00000013          	nop
6000049c:	00000013          	nop
600004a0:	00000013          	nop
600004a4:	00000013          	nop
600004a8:	00000013          	nop
600004ac:	00000013          	nop
600004b0:	00000013          	nop
600004b4:	00000013          	nop
600004b8:	00000013          	nop
600004bc:	00000013          	nop
600004c0:	00000013          	nop
600004c4:	00000013          	nop
600004c8:	00000013          	nop
600004cc:	00000013          	nop
600004d0:	00000013          	nop
600004d4:	00000013          	nop
600004d8:	00000013          	nop
600004dc:	00000013          	nop
600004e0:	00000013          	nop
600004e4:	00000013          	nop
600004e8:	00000013          	nop
600004ec:	00000013          	nop
600004f0:	00000013          	nop
600004f4:	00000013          	nop
600004f8:	00000013          	nop
600004fc:	00000013          	nop
60000500:	00000013          	nop
60000504:	00000013          	nop
60000508:	00000013          	nop
6000050c:	00000013          	nop
60000510:	00000013          	nop
60000514:	00000013          	nop
60000518:	00000013          	nop
6000051c:	00000013          	nop
60000520:	00000013          	nop
60000524:	00000013          	nop
60000528:	00000013          	nop
6000052c:	00000013          	nop
60000530:	00000013          	nop
60000534:	00000013          	nop
60000538:	00000013          	nop
6000053c:	00000013          	nop
60000540:	00000013          	nop
60000544:	00000013          	nop
60000548:	00000013          	nop
6000054c:	00000013          	nop
60000550:	00000013          	nop
60000554:	00000013          	nop
60000558:	00000013          	nop
6000055c:	00000013          	nop
60000560:	00000013          	nop
60000564:	00000013          	nop
60000568:	00000013          	nop
6000056c:	00000013          	nop
60000570:	00000013          	nop
60000574:	00000013          	nop
60000578:	00000013          	nop
6000057c:	00000013          	nop
60000580:	00000013          	nop
60000584:	00000013          	nop
60000588:	00000013          	nop
6000058c:	00000013          	nop
60000590:	00000013          	nop
60000594:	00000013          	nop
60000598:	00000013          	nop
6000059c:	00000013          	nop
600005a0:	00000013          	nop
600005a4:	00000013          	nop
600005a8:	00000013          	nop
600005ac:	00000013          	nop
600005b0:	00000013          	nop
600005b4:	00000013          	nop
600005b8:	00000013          	nop
600005bc:	00000013          	nop
600005c0:	00000013          	nop
600005c4:	00000013          	nop
600005c8:	00000013          	nop
600005cc:	00000013          	nop
600005d0:	00000013          	nop
600005d4:	00000013          	nop
600005d8:	00000013          	nop
600005dc:	00000013          	nop
600005e0:	00000013          	nop
600005e4:	00000013          	nop
600005e8:	00000013          	nop
600005ec:	00000013          	nop
600005f0:	00000013          	nop
600005f4:	00000013          	nop
600005f8:	00000013          	nop
600005fc:	00000013          	nop
60000600:	00000013          	nop
60000604:	00000013          	nop
60000608:	00000013          	nop
6000060c:	00000013          	nop
60000610:	00000013          	nop
60000614:	00000013          	nop
60000618:	00000013          	nop
6000061c:	00000013          	nop
60000620:	00000013          	nop
60000624:	00000013          	nop
60000628:	00000013          	nop
6000062c:	00000013          	nop
60000630:	00000013          	nop
60000634:	00000013          	nop
60000638:	00000013          	nop
6000063c:	00000013          	nop
60000640:	00000013          	nop
60000644:	00000013          	nop
60000648:	00000013          	nop
6000064c:	00000013          	nop
60000650:	00000013          	nop
60000654:	00000013          	nop
60000658:	00000013          	nop
6000065c:	00000013          	nop
60000660:	00000013          	nop
60000664:	00000013          	nop
60000668:	00000013          	nop
6000066c:	00000013          	nop
60000670:	00000013          	nop
60000674:	00000013          	nop
60000678:	00000013          	nop
6000067c:	00000013          	nop
60000680:	00000013          	nop
60000684:	00000013          	nop
60000688:	00000013          	nop
6000068c:	00000013          	nop
60000690:	00000013          	nop
60000694:	00000013          	nop
60000698:	00000013          	nop
6000069c:	00000013          	nop
600006a0:	00000013          	nop
600006a4:	00000013          	nop
600006a8:	00000013          	nop
600006ac:	00000013          	nop
600006b0:	00000013          	nop
600006b4:	00000013          	nop
600006b8:	00000013          	nop
600006bc:	00000013          	nop
600006c0:	00000013          	nop
600006c4:	00000013          	nop
600006c8:	00000013          	nop
600006cc:	00000013          	nop
600006d0:	00000013          	nop
600006d4:	00000013          	nop
600006d8:	00000013          	nop
600006dc:	00000013          	nop
600006e0:	00000013          	nop
600006e4:	00000013          	nop
600006e8:	00000013          	nop
600006ec:	00000013          	nop
600006f0:	00000013          	nop
600006f4:	00000013          	nop
600006f8:	00000013          	nop
600006fc:	00000013          	nop
60000700:	00000013          	nop
60000704:	00000013          	nop
60000708:	00000013          	nop
6000070c:	00000013          	nop
60000710:	00000013          	nop
60000714:	00000013          	nop
60000718:	00000013          	nop
6000071c:	00000013          	nop
60000720:	00000013          	nop
60000724:	00000013          	nop
60000728:	00000013          	nop
6000072c:	00000013          	nop
60000730:	00000013          	nop
60000734:	00000013          	nop
60000738:	00000013          	nop
6000073c:	00000013          	nop
60000740:	00000013          	nop
60000744:	00000013          	nop
60000748:	00000013          	nop
6000074c:	00000013          	nop
60000750:	00000013          	nop
60000754:	00000013          	nop
60000758:	00000013          	nop
6000075c:	00000013          	nop
60000760:	00000013          	nop
60000764:	00000013          	nop
60000768:	00000013          	nop
6000076c:	00000013          	nop
60000770:	00000013          	nop
60000774:	00000013          	nop
60000778:	00000013          	nop
6000077c:	00000013          	nop
60000780:	00000013          	nop
60000784:	00000013          	nop
60000788:	00000013          	nop

6000078c <memcpy>:
6000078c:	00a5c7b3          	xor	x15,x11,x10
60000790:	0037f793          	andi	x15,x15,3
60000794:	00c508b3          	add	x17,x10,x12
60000798:	06079463          	bnez	x15,60000800 <memcpy+0x74>
6000079c:	00300793          	li	x15,3
600007a0:	06c7f063          	bgeu	x15,x12,60000800 <memcpy+0x74>
600007a4:	00357793          	andi	x15,x10,3
600007a8:	00050713          	mv	x14,x10
600007ac:	06079a63          	bnez	x15,60000820 <memcpy+0x94>
600007b0:	ffc8f613          	andi	x12,x17,-4
600007b4:	40e606b3          	sub	x13,x12,x14
600007b8:	02000793          	li	x15,32
600007bc:	08d7ce63          	blt	x15,x13,60000858 <memcpy+0xcc>
600007c0:	00058693          	mv	x13,x11
600007c4:	00070793          	mv	x15,x14
600007c8:	02c77863          	bgeu	x14,x12,600007f8 <memcpy+0x6c>
600007cc:	0006a803          	lw	x16,0(x13)
600007d0:	00478793          	addi	x15,x15,4
600007d4:	00468693          	addi	x13,x13,4
600007d8:	ff07ae23          	sw	x16,-4(x15)
600007dc:	fec7e8e3          	bltu	x15,x12,600007cc <memcpy+0x40>
600007e0:	fff60793          	addi	x15,x12,-1
600007e4:	40e787b3          	sub	x15,x15,x14
600007e8:	ffc7f793          	andi	x15,x15,-4
600007ec:	00478793          	addi	x15,x15,4
600007f0:	00f70733          	add	x14,x14,x15
600007f4:	00f585b3          	add	x11,x11,x15
600007f8:	01176863          	bltu	x14,x17,60000808 <memcpy+0x7c>
600007fc:	00008067          	ret
60000800:	00050713          	mv	x14,x10
60000804:	05157863          	bgeu	x10,x17,60000854 <memcpy+0xc8>
60000808:	0005c783          	lbu	x15,0(x11)
6000080c:	00170713          	addi	x14,x14,1
60000810:	00158593          	addi	x11,x11,1
60000814:	fef70fa3          	sb	x15,-1(x14)
60000818:	fee898e3          	bne	x17,x14,60000808 <memcpy+0x7c>
6000081c:	00008067          	ret
60000820:	0005c683          	lbu	x13,0(x11)
60000824:	00170713          	addi	x14,x14,1
60000828:	00377793          	andi	x15,x14,3
6000082c:	fed70fa3          	sb	x13,-1(x14)
60000830:	00158593          	addi	x11,x11,1
60000834:	f6078ee3          	beqz	x15,600007b0 <memcpy+0x24>
60000838:	0005c683          	lbu	x13,0(x11)
6000083c:	00170713          	addi	x14,x14,1
60000840:	00377793          	andi	x15,x14,3
60000844:	fed70fa3          	sb	x13,-1(x14)
60000848:	00158593          	addi	x11,x11,1
6000084c:	fc079ae3          	bnez	x15,60000820 <memcpy+0x94>
60000850:	f61ff06f          	j	600007b0 <memcpy+0x24>
60000854:	00008067          	ret
60000858:	ff010113          	addi	x2,x2,-16
6000085c:	00812623          	sw	x8,12(x2)
60000860:	02000413          	li	x8,32
60000864:	0005a383          	lw	x7,0(x11)
60000868:	0045a283          	lw	x5,4(x11)
6000086c:	0085af83          	lw	x31,8(x11)
60000870:	00c5af03          	lw	x30,12(x11)
60000874:	0105ae83          	lw	x29,16(x11)
60000878:	0145ae03          	lw	x28,20(x11)
6000087c:	0185a303          	lw	x6,24(x11)
60000880:	01c5a803          	lw	x16,28(x11)
60000884:	0205a683          	lw	x13,32(x11)
60000888:	02470713          	addi	x14,x14,36
6000088c:	40e607b3          	sub	x15,x12,x14
60000890:	fc772e23          	sw	x7,-36(x14)
60000894:	fe572023          	sw	x5,-32(x14)
60000898:	fff72223          	sw	x31,-28(x14)
6000089c:	ffe72423          	sw	x30,-24(x14)
600008a0:	ffd72623          	sw	x29,-20(x14)
600008a4:	ffc72823          	sw	x28,-16(x14)
600008a8:	fe672a23          	sw	x6,-12(x14)
600008ac:	ff072c23          	sw	x16,-8(x14)
600008b0:	fed72e23          	sw	x13,-4(x14)
600008b4:	02458593          	addi	x11,x11,36
600008b8:	faf446e3          	blt	x8,x15,60000864 <memcpy+0xd8>
600008bc:	00058693          	mv	x13,x11
600008c0:	00070793          	mv	x15,x14
600008c4:	02c77863          	bgeu	x14,x12,600008f4 <memcpy+0x168>
600008c8:	0006a803          	lw	x16,0(x13)
600008cc:	00478793          	addi	x15,x15,4
600008d0:	00468693          	addi	x13,x13,4
600008d4:	ff07ae23          	sw	x16,-4(x15)
600008d8:	fec7e8e3          	bltu	x15,x12,600008c8 <memcpy+0x13c>
600008dc:	fff60793          	addi	x15,x12,-1
600008e0:	40e787b3          	sub	x15,x15,x14
600008e4:	ffc7f793          	andi	x15,x15,-4
600008e8:	00478793          	addi	x15,x15,4
600008ec:	00f70733          	add	x14,x14,x15
600008f0:	00f585b3          	add	x11,x11,x15
600008f4:	01176863          	bltu	x14,x17,60000904 <memcpy+0x178>
600008f8:	00c12403          	lw	x8,12(x2)
600008fc:	01010113          	addi	x2,x2,16
60000900:	00008067          	ret
60000904:	0005c783          	lbu	x15,0(x11)
60000908:	00170713          	addi	x14,x14,1
6000090c:	00158593          	addi	x11,x11,1
60000910:	fef70fa3          	sb	x15,-1(x14)
60000914:	fee882e3          	beq	x17,x14,600008f8 <memcpy+0x16c>
60000918:	0005c783          	lbu	x15,0(x11)
6000091c:	00170713          	addi	x14,x14,1
60000920:	00158593          	addi	x11,x11,1
60000924:	fef70fa3          	sb	x15,-1(x14)
60000928:	fce89ee3          	bne	x17,x14,60000904 <memcpy+0x178>
6000092c:	fcdff06f          	j	600008f8 <memcpy+0x16c>

Disassembly of section .data:

60000930 <_data_vma_start-0xd0>:
	...

60000a00 <_data_vma_start>:
60000a00:	6649                	.insn	2, 0x6649
60000a02:	7920                	.insn	2, 0x7920
60000a04:	6120756f          	jal	x10,60008016 <_end+0x7536>
60000a08:	61757463          	bgeu	x10,x23,60001010 <_end+0x530>
60000a0c:	6c6c                	.insn	2, 0x6c6c
60000a0e:	2079                	.insn	2, 0x2079
60000a10:	6564                	.insn	2, 0x6564
60000a12:	65646f63          	bltu	x8,x22,60001070 <_end+0x590>
60000a16:	7420                	.insn	2, 0x7420
60000a18:	6968                	.insn	2, 0x6968
60000a1a:	73202c73          	.insn	4, 0x73202c73
60000a1e:	6e65                	.insn	2, 0x6e65
60000a20:	2064                	.insn	2, 0x2064
60000a22:	4154                	.insn	2, 0x4154
60000a24:	4120                	.insn	2, 0x4120
60000a26:	6a72                	.insn	2, 0x6a72
60000a28:	6e75                	.insn	2, 0x6e75
60000a2a:	6120                	.insn	2, 0x6120
60000a2c:	6d20                	.insn	2, 0x6d20
60000a2e:	7365                	.insn	2, 0x7365
60000a30:	65676173          	.insn	4, 0x65676173
60000a34:	6f20                	.insn	2, 0x6f20
60000a36:	206e                	.insn	2, 0x206e
60000a38:	6964                	.insn	2, 0x6964
60000a3a:	726f6373          	.insn	4, 0x726f6373
60000a3e:	2064                	.insn	2, 0x2064
60000a40:	6874                	.insn	2, 0x6874
60000a42:	7461                	.insn	2, 0x7461
60000a44:	7920                	.insn	2, 0x7920
60000a46:	6820756f          	jal	x10,600080c8 <_end+0x75e8>
60000a4a:	7661                	.insn	2, 0x7661
60000a4c:	2e65                	.insn	2, 0x2e65
60000a4e:	4820                	.insn	2, 0x4820
60000a50:	2065                	.insn	2, 0x2065
60000a52:	6c6c6977          	.insn	4, 0x6c6c6977
60000a56:	7420                	.insn	2, 0x7420
60000a58:	6968                	.insn	2, 0x6968
60000a5a:	6b6e                	.insn	2, 0x6b6e
60000a5c:	7920                	.insn	2, 0x7920
60000a5e:	6120756f          	jal	x10,60008070 <_end+0x7590>
60000a62:	6572                	.insn	2, 0x6572
60000a64:	7620                	.insn	2, 0x7620
60000a66:	7265                	.insn	2, 0x7265
60000a68:	2079                	.insn	2, 0x2079
60000a6a:	6c6f6f63          	bltu	x30,x6,60001148 <_end+0x668>
60000a6e:	202c                	.insn	2, 0x202c
60000a70:	6e61                	.insn	2, 0x6e61
60000a72:	2064                	.insn	2, 0x2064
60000a74:	6568                	.insn	2, 0x6568
60000a76:	6d20                	.insn	2, 0x6d20
60000a78:	6769                	.insn	2, 0x6769
60000a7a:	7468                	.insn	2, 0x7468
60000a7c:	6520                	.insn	2, 0x6520
60000a7e:	6576                	.insn	2, 0x6576
60000a80:	206e                	.insn	2, 0x206e
60000a82:	646e6573          	.insn	4, 0x646e6573
60000a86:	7920                	.insn	2, 0x7920
60000a88:	6120756f          	jal	x10,6000809a <_end+0x75ba>
60000a8c:	6820                	.insn	2, 0x6820
60000a8e:	6769                	.insn	2, 0x6769
60000a90:	2d68                	.insn	2, 0x2d68
60000a92:	6966                	.insn	2, 0x6966
60000a94:	6576                	.insn	2, 0x6576
60000a96:	6520                	.insn	2, 0x6520
60000a98:	6f6d                	.insn	2, 0x6f6d
60000a9a:	696a                	.insn	2, 0x696a
60000a9c:	6120                	.insn	2, 0x6120
60000a9e:	20612073          	.insn	4, 0x20612073
60000aa2:	6572                	.insn	2, 0x6572
60000aa4:	64726177          	.insn	4, 0x64726177
60000aa8:	2021                	.insn	2, 0x2021
60000aaa:	2049                	.insn	2, 0x2049
60000aac:	6874                	.insn	2, 0x6874
60000aae:	6e69                	.insn	2, 0x6e69
60000ab0:	6f79206b          	.insn	4, 0x6f79206b
60000ab4:	2075                	.insn	2, 0x2075
60000ab6:	6564                	.insn	2, 0x6564
60000ab8:	76726573          	.insn	4, 0x76726573
60000abc:	2065                	.insn	2, 0x2065
60000abe:	2061                	.insn	2, 0x2061
60000ac0:	6968                	.insn	2, 0x6968
60000ac2:	352d6867          	.insn	4, 0x352d6867
60000ac6:	2e21                	.insn	2, 0x2e21
60000ac8:	0000                	.insn	2, 0x
	...

Disassembly of section .tohost:

60000acc <tohost-0x4>:
60000acc:	0000                	.insn	2, 0x
	...

60000ad0 <tohost>:
	...

Disassembly of section .fromhost:

60000ad8 <fromhost>:
	...
