
../testcode/coremark_small_rv32i.elf:     file format elf32-littleriscv


Disassembly of section .text.swinit1:

60000000 <_start>:
60000000:	00000013          	nop
60000004:	00000093          	li	x1,0
60000008:	00000113          	li	x2,0
6000000c:	00000193          	li	x3,0
60000010:	00000213          	li	x4,0
60000014:	00000293          	li	x5,0
60000018:	00000313          	li	x6,0
6000001c:	00000393          	li	x7,0
60000020:	00000413          	li	x8,0
60000024:	00000493          	li	x9,0
60000028:	00000513          	li	x10,0
6000002c:	00000593          	li	x11,0
60000030:	00000613          	li	x12,0
60000034:	00000693          	li	x13,0
60000038:	00000713          	li	x14,0
6000003c:	00000793          	li	x15,0
60000040:	00000813          	li	x16,0
60000044:	00000893          	li	x17,0
60000048:	00000913          	li	x18,0
6000004c:	00000993          	li	x19,0
60000050:	00000a13          	li	x20,0
60000054:	00000a93          	li	x21,0
60000058:	00000b13          	li	x22,0
6000005c:	00000b93          	li	x23,0
60000060:	00000c13          	li	x24,0
60000064:	00000c93          	li	x25,0
60000068:	00000d13          	li	x26,0
6000006c:	00000d93          	li	x27,0
60000070:	00000e13          	li	x28,0
60000074:	00000e93          	li	x29,0
60000078:	00000f13          	li	x30,0
6000007c:	00000f93          	li	x31,0

60000080 <_initbss>:
60000080:	00004317          	auipc	x6,0x4
60000084:	27c30313          	addi	x6,x6,636 # 600042fc <static_memblk>
60000088:	00005397          	auipc	x7,0x5
6000008c:	a5038393          	addi	x7,x7,-1456 # 60004ad8 <_bss_vma_end>
60000090:	00730863          	beq	x6,x7,600000a0 <_setup>

60000094 <_initbss_loop>:
60000094:	00032023          	sw	x0,0(x6)
60000098:	00430313          	addi	x6,x6,4
6000009c:	fe736ce3          	bltu	x6,x7,60000094 <_initbss_loop>

600000a0 <_setup>:
600000a0:	20000117          	auipc	x2,0x20000
600000a4:	f6010113          	addi	x2,x2,-160 # 80000000 <_stack_top>
600000a8:	00010433          	add	x8,x2,x0
600000ac:	00003097          	auipc	x1,0x3
600000b0:	eb8080e7          	jalr	-328(x1) # 60002f64 <main>
600000b4:	f0002013          	slti	x0,x0,-256
600000b8:	00000097          	auipc	x1,0x0
600000bc:	008080e7          	jalr	8(x1) # 600000c0 <_fini>

Disassembly of section .text.swfin:

600000c0 <_fini>:
600000c0:	00000063          	beqz	x0,600000c0 <_fini>
600000c4:	00000013          	nop
600000c8:	00000013          	nop
600000cc:	00000013          	nop
600000d0:	00000013          	nop
600000d4:	00000013          	nop
600000d8:	00000013          	nop
600000dc:	00000013          	nop
600000e0:	00000013          	nop
600000e4:	00000013          	nop
600000e8:	00000013          	nop

Disassembly of section .text:

600000ec <crcu16>:
600000ec:	0ff57793          	zext.b	x15,x10
600000f0:	00b7c6b3          	xor	x13,x15,x11
600000f4:	0016f693          	andi	x13,x13,1
600000f8:	ffffa737          	lui	x14,0xffffa
600000fc:	00170713          	addi	x14,x14,1 # ffffa001 <_stack_top+0x7fffa001>
60000100:	40d006b3          	neg	x13,x13
60000104:	00e6f6b3          	and	x13,x13,x14
60000108:	0015d593          	srli	x11,x11,0x1
6000010c:	00b6c6b3          	xor	x13,x13,x11
60000110:	01069693          	slli	x13,x13,0x10
60000114:	0106d693          	srli	x13,x13,0x10
60000118:	0017d613          	srli	x12,x15,0x1
6000011c:	00d64633          	xor	x12,x12,x13
60000120:	00167613          	andi	x12,x12,1
60000124:	40c00633          	neg	x12,x12
60000128:	00e67633          	and	x12,x12,x14
6000012c:	0016d693          	srli	x13,x13,0x1
60000130:	00d64633          	xor	x12,x12,x13
60000134:	01061613          	slli	x12,x12,0x10
60000138:	01065613          	srli	x12,x12,0x10
6000013c:	0027d693          	srli	x13,x15,0x2
60000140:	00c6c6b3          	xor	x13,x13,x12
60000144:	0016f693          	andi	x13,x13,1
60000148:	40d006b3          	neg	x13,x13
6000014c:	00e6f6b3          	and	x13,x13,x14
60000150:	00165613          	srli	x12,x12,0x1
60000154:	00c6c6b3          	xor	x13,x13,x12
60000158:	01069693          	slli	x13,x13,0x10
6000015c:	0106d693          	srli	x13,x13,0x10
60000160:	0037d613          	srli	x12,x15,0x3
60000164:	00d64633          	xor	x12,x12,x13
60000168:	00167613          	andi	x12,x12,1
6000016c:	40c00633          	neg	x12,x12
60000170:	00e67633          	and	x12,x12,x14
60000174:	0016d693          	srli	x13,x13,0x1
60000178:	00d64633          	xor	x12,x12,x13
6000017c:	01061613          	slli	x12,x12,0x10
60000180:	01065613          	srli	x12,x12,0x10
60000184:	0047d693          	srli	x13,x15,0x4
60000188:	00c6c6b3          	xor	x13,x13,x12
6000018c:	0016f693          	andi	x13,x13,1
60000190:	40d006b3          	neg	x13,x13
60000194:	00e6f6b3          	and	x13,x13,x14
60000198:	00165613          	srli	x12,x12,0x1
6000019c:	00c6c6b3          	xor	x13,x13,x12
600001a0:	01069693          	slli	x13,x13,0x10
600001a4:	0106d693          	srli	x13,x13,0x10
600001a8:	0057d613          	srli	x12,x15,0x5
600001ac:	00d64633          	xor	x12,x12,x13
600001b0:	00167613          	andi	x12,x12,1
600001b4:	40c00633          	neg	x12,x12
600001b8:	00e67633          	and	x12,x12,x14
600001bc:	0016d693          	srli	x13,x13,0x1
600001c0:	00d64633          	xor	x12,x12,x13
600001c4:	01061613          	slli	x12,x12,0x10
600001c8:	01065613          	srli	x12,x12,0x10
600001cc:	0067d693          	srli	x13,x15,0x6
600001d0:	00c6c6b3          	xor	x13,x13,x12
600001d4:	0016f693          	andi	x13,x13,1
600001d8:	40d006b3          	neg	x13,x13
600001dc:	00e6f6b3          	and	x13,x13,x14
600001e0:	00165613          	srli	x12,x12,0x1
600001e4:	00c6c6b3          	xor	x13,x13,x12
600001e8:	01069693          	slli	x13,x13,0x10
600001ec:	0106d693          	srli	x13,x13,0x10
600001f0:	0077d793          	srli	x15,x15,0x7
600001f4:	00d7c7b3          	xor	x15,x15,x13
600001f8:	0017f793          	andi	x15,x15,1
600001fc:	40f007b3          	neg	x15,x15
60000200:	00e7f7b3          	and	x15,x15,x14
60000204:	0016d693          	srli	x13,x13,0x1
60000208:	00d7c7b3          	xor	x15,x15,x13
6000020c:	01079793          	slli	x15,x15,0x10
60000210:	00855513          	srli	x10,x10,0x8
60000214:	0107d793          	srli	x15,x15,0x10
60000218:	00f546b3          	xor	x13,x10,x15
6000021c:	0016f693          	andi	x13,x13,1
60000220:	40d006b3          	neg	x13,x13
60000224:	00e6f6b3          	and	x13,x13,x14
60000228:	0017d793          	srli	x15,x15,0x1
6000022c:	00f6c7b3          	xor	x15,x13,x15
60000230:	01079793          	slli	x15,x15,0x10
60000234:	0107d793          	srli	x15,x15,0x10
60000238:	00155693          	srli	x13,x10,0x1
6000023c:	00f6c6b3          	xor	x13,x13,x15
60000240:	0016f693          	andi	x13,x13,1
60000244:	40d006b3          	neg	x13,x13
60000248:	00e6f6b3          	and	x13,x13,x14
6000024c:	0017d793          	srli	x15,x15,0x1
60000250:	00f6c6b3          	xor	x13,x13,x15
60000254:	01069693          	slli	x13,x13,0x10
60000258:	0106d693          	srli	x13,x13,0x10
6000025c:	00255793          	srli	x15,x10,0x2
60000260:	00d7c7b3          	xor	x15,x15,x13
60000264:	0017f793          	andi	x15,x15,1
60000268:	40f007b3          	neg	x15,x15
6000026c:	00e7f7b3          	and	x15,x15,x14
60000270:	0016d693          	srli	x13,x13,0x1
60000274:	00d7c7b3          	xor	x15,x15,x13
60000278:	01079793          	slli	x15,x15,0x10
6000027c:	0107d793          	srli	x15,x15,0x10
60000280:	00355693          	srli	x13,x10,0x3
60000284:	00f6c6b3          	xor	x13,x13,x15
60000288:	0016f693          	andi	x13,x13,1
6000028c:	40d006b3          	neg	x13,x13
60000290:	00e6f6b3          	and	x13,x13,x14
60000294:	0017d793          	srli	x15,x15,0x1
60000298:	00f6c6b3          	xor	x13,x13,x15
6000029c:	01069693          	slli	x13,x13,0x10
600002a0:	0106d693          	srli	x13,x13,0x10
600002a4:	00455793          	srli	x15,x10,0x4
600002a8:	00d7c7b3          	xor	x15,x15,x13
600002ac:	0017f793          	andi	x15,x15,1
600002b0:	40f007b3          	neg	x15,x15
600002b4:	00e7f7b3          	and	x15,x15,x14
600002b8:	0016d693          	srli	x13,x13,0x1
600002bc:	00d7c7b3          	xor	x15,x15,x13
600002c0:	01079793          	slli	x15,x15,0x10
600002c4:	0107d793          	srli	x15,x15,0x10
600002c8:	00555693          	srli	x13,x10,0x5
600002cc:	00f6c6b3          	xor	x13,x13,x15
600002d0:	0016f693          	andi	x13,x13,1
600002d4:	40d006b3          	neg	x13,x13
600002d8:	00e6f6b3          	and	x13,x13,x14
600002dc:	0017d793          	srli	x15,x15,0x1
600002e0:	00f6c6b3          	xor	x13,x13,x15
600002e4:	01069693          	slli	x13,x13,0x10
600002e8:	0106d693          	srli	x13,x13,0x10
600002ec:	00655793          	srli	x15,x10,0x6
600002f0:	00d7c7b3          	xor	x15,x15,x13
600002f4:	0017f793          	andi	x15,x15,1
600002f8:	40f007b3          	neg	x15,x15
600002fc:	00e7f7b3          	and	x15,x15,x14
60000300:	0016d693          	srli	x13,x13,0x1
60000304:	00d7c7b3          	xor	x15,x15,x13
60000308:	01079793          	slli	x15,x15,0x10
6000030c:	0107d793          	srli	x15,x15,0x10
60000310:	00755513          	srli	x10,x10,0x7
60000314:	00f54533          	xor	x10,x10,x15
60000318:	00157513          	andi	x10,x10,1
6000031c:	40a00533          	neg	x10,x10
60000320:	00e57533          	and	x10,x10,x14
60000324:	0017d793          	srli	x15,x15,0x1
60000328:	00f54533          	xor	x10,x10,x15
6000032c:	01051513          	slli	x10,x10,0x10
60000330:	01055513          	srli	x10,x10,0x10
60000334:	00008067          	ret

60000338 <core_state_transition>:
60000338:	00052783          	lw	x15,0(x10)
6000033c:	00050813          	mv	x16,x10
60000340:	0007c703          	lbu	x14,0(x15)
60000344:	28070863          	beqz	x14,600005d4 <core_state_transition+0x29c>
60000348:	02c00693          	li	x13,44
6000034c:	00000513          	li	x10,0
60000350:	1ed70e63          	beq	x14,x13,6000054c <core_state_transition+0x214>
60000354:	02e00513          	li	x10,46
60000358:	22a70c63          	beq	x14,x10,60000590 <core_state_transition+0x258>
6000035c:	1ee56c63          	bltu	x10,x14,60000554 <core_state_transition+0x21c>
60000360:	fd570713          	addi	x14,x14,-43
60000364:	0fd77713          	andi	x14,x14,253
60000368:	02070663          	beqz	x14,60000394 <core_state_transition+0x5c>
6000036c:	0045a683          	lw	x13,4(x11)
60000370:	0005a703          	lw	x14,0(x11)
60000374:	00178793          	addi	x15,x15,1
60000378:	00168693          	addi	x13,x13,1
6000037c:	00170713          	addi	x14,x14,1
60000380:	00d5a223          	sw	x13,4(x11)
60000384:	00e5a023          	sw	x14,0(x11)
60000388:	00100513          	li	x10,1
6000038c:	00f82023          	sw	x15,0(x16)
60000390:	00008067          	ret
60000394:	0005a703          	lw	x14,0(x11)
60000398:	00178613          	addi	x12,x15,1
6000039c:	00170713          	addi	x14,x14,1
600003a0:	00e5a023          	sw	x14,0(x11)
600003a4:	0017c883          	lbu	x17,1(x15)
600003a8:	26088663          	beqz	x17,60000614 <core_state_transition+0x2dc>
600003ac:	20d88c63          	beq	x17,x13,600005c4 <core_state_transition+0x28c>
600003b0:	0085a683          	lw	x13,8(x11)
600003b4:	fd088713          	addi	x14,x17,-48
600003b8:	0ff77713          	zext.b	x14,x14
600003bc:	00900313          	li	x6,9
600003c0:	00168693          	addi	x13,x13,1
600003c4:	00e37e63          	bgeu	x6,x14,600003e0 <core_state_transition+0xa8>
600003c8:	1ea88a63          	beq	x17,x10,600005bc <core_state_transition+0x284>
600003cc:	00d5a423          	sw	x13,8(x11)
600003d0:	00278793          	addi	x15,x15,2
600003d4:	00100513          	li	x10,1
600003d8:	00f82023          	sw	x15,0(x16)
600003dc:	00008067          	ret
600003e0:	00d5a423          	sw	x13,8(x11)
600003e4:	0140006f          	j	600003f8 <core_state_transition+0xc0>
600003e8:	fd078793          	addi	x15,x15,-48
600003ec:	0ff7f793          	zext.b	x15,x15
600003f0:	00900713          	li	x14,9
600003f4:	12f76e63          	bltu	x14,x15,60000530 <core_state_transition+0x1f8>
600003f8:	00164783          	lbu	x15,1(x12)
600003fc:	00160613          	addi	x12,x12,1
60000400:	1e078a63          	beqz	x15,600005f4 <core_state_transition+0x2bc>
60000404:	02c00713          	li	x14,44
60000408:	16e78c63          	beq	x15,x14,60000580 <core_state_transition+0x248>
6000040c:	02e00713          	li	x14,46
60000410:	fce79ce3          	bne	x15,x14,600003e8 <core_state_transition+0xb0>
60000414:	0105a783          	lw	x15,16(x11)
60000418:	00178793          	addi	x15,x15,1
6000041c:	00f5a823          	sw	x15,16(x11)
60000420:	00164783          	lbu	x15,1(x12)
60000424:	00160613          	addi	x12,x12,1
60000428:	1a078a63          	beqz	x15,600005dc <core_state_transition+0x2a4>
6000042c:	02c00713          	li	x14,44
60000430:	16e78e63          	beq	x15,x14,600005ac <core_state_transition+0x274>
60000434:	0df7f713          	andi	x14,x15,223
60000438:	04500693          	li	x13,69
6000043c:	02d70863          	beq	x14,x13,6000046c <core_state_transition+0x134>
60000440:	fd078793          	addi	x15,x15,-48
60000444:	0ff7f793          	zext.b	x15,x15
60000448:	00900713          	li	x14,9
6000044c:	fcf77ae3          	bgeu	x14,x15,60000420 <core_state_transition+0xe8>
60000450:	0145a703          	lw	x14,20(x11)
60000454:	00160793          	addi	x15,x12,1
60000458:	00100513          	li	x10,1
6000045c:	00170713          	addi	x14,x14,1
60000460:	00e5aa23          	sw	x14,20(x11)
60000464:	00f82023          	sw	x15,0(x16)
60000468:	00008067          	ret
6000046c:	0145a703          	lw	x14,20(x11)
60000470:	00160793          	addi	x15,x12,1
60000474:	00300513          	li	x10,3
60000478:	00170713          	addi	x14,x14,1
6000047c:	00e5aa23          	sw	x14,20(x11)
60000480:	00164703          	lbu	x14,1(x12)
60000484:	f00704e3          	beqz	x14,6000038c <core_state_transition+0x54>
60000488:	02c00693          	li	x13,44
6000048c:	14d70e63          	beq	x14,x13,600005e8 <core_state_transition+0x2b0>
60000490:	00c5a783          	lw	x15,12(x11)
60000494:	fd570713          	addi	x14,x14,-43
60000498:	0fd77713          	andi	x14,x14,253
6000049c:	00178793          	addi	x15,x15,1
600004a0:	00f5a623          	sw	x15,12(x11)
600004a4:	00100513          	li	x10,1
600004a8:	00260793          	addi	x15,x12,2
600004ac:	ee0710e3          	bnez	x14,6000038c <core_state_transition+0x54>
600004b0:	00264703          	lbu	x14,2(x12)
600004b4:	00260793          	addi	x15,x12,2
600004b8:	00600513          	li	x10,6
600004bc:	ec0708e3          	beqz	x14,6000038c <core_state_transition+0x54>
600004c0:	08d70463          	beq	x14,x13,60000548 <core_state_transition+0x210>
600004c4:	0185a683          	lw	x13,24(x11)
600004c8:	fd070713          	addi	x14,x14,-48
600004cc:	0ff77713          	zext.b	x14,x14
600004d0:	00168693          	addi	x13,x13,1
600004d4:	00900513          	li	x10,9
600004d8:	00d5ac23          	sw	x13,24(x11)
600004dc:	00e57a63          	bgeu	x10,x14,600004f0 <core_state_transition+0x1b8>
600004e0:	00360793          	addi	x15,x12,3
600004e4:	00100513          	li	x10,1
600004e8:	00f82023          	sw	x15,0(x16)
600004ec:	00008067          	ret
600004f0:	00900613          	li	x12,9
600004f4:	0017c683          	lbu	x13,1(x15)
600004f8:	00078513          	mv	x10,x15
600004fc:	02c00893          	li	x17,44
60000500:	fd068713          	addi	x14,x13,-48
60000504:	00178793          	addi	x15,x15,1
60000508:	0ff77713          	zext.b	x14,x14
6000050c:	10068063          	beqz	x13,6000060c <core_state_transition+0x2d4>
60000510:	0f168863          	beq	x13,x17,60000600 <core_state_transition+0x2c8>
60000514:	fee670e3          	bgeu	x12,x14,600004f4 <core_state_transition+0x1bc>
60000518:	0045a703          	lw	x14,4(x11)
6000051c:	00250793          	addi	x15,x10,2
60000520:	00100513          	li	x10,1
60000524:	00170713          	addi	x14,x14,1
60000528:	00e5a223          	sw	x14,4(x11)
6000052c:	e61ff06f          	j	6000038c <core_state_transition+0x54>
60000530:	0105a703          	lw	x14,16(x11)
60000534:	00160793          	addi	x15,x12,1
60000538:	00100513          	li	x10,1
6000053c:	00170713          	addi	x14,x14,1
60000540:	00e5a823          	sw	x14,16(x11)
60000544:	e49ff06f          	j	6000038c <core_state_transition+0x54>
60000548:	00600513          	li	x10,6
6000054c:	00178793          	addi	x15,x15,1
60000550:	e3dff06f          	j	6000038c <core_state_transition+0x54>
60000554:	fd070713          	addi	x14,x14,-48
60000558:	0ff77713          	zext.b	x14,x14
6000055c:	00900613          	li	x12,9
60000560:	e0e666e3          	bltu	x12,x14,6000036c <core_state_transition+0x34>
60000564:	0005a703          	lw	x14,0(x11)
60000568:	00178613          	addi	x12,x15,1
6000056c:	00170713          	addi	x14,x14,1
60000570:	00e5a023          	sw	x14,0(x11)
60000574:	0017c783          	lbu	x15,1(x15)
60000578:	06078e63          	beqz	x15,600005f4 <core_state_transition+0x2bc>
6000057c:	e8d798e3          	bne	x15,x13,6000040c <core_state_transition+0xd4>
60000580:	00060793          	mv	x15,x12
60000584:	00400513          	li	x10,4
60000588:	00178793          	addi	x15,x15,1
6000058c:	e01ff06f          	j	6000038c <core_state_transition+0x54>
60000590:	0005a703          	lw	x14,0(x11)
60000594:	00178613          	addi	x12,x15,1
60000598:	00170713          	addi	x14,x14,1
6000059c:	00e5a023          	sw	x14,0(x11)
600005a0:	0017c783          	lbu	x15,1(x15)
600005a4:	02078c63          	beqz	x15,600005dc <core_state_transition+0x2a4>
600005a8:	e8d796e3          	bne	x15,x13,60000434 <core_state_transition+0xfc>
600005ac:	00060793          	mv	x15,x12
600005b0:	00500513          	li	x10,5
600005b4:	00178793          	addi	x15,x15,1
600005b8:	dd5ff06f          	j	6000038c <core_state_transition+0x54>
600005bc:	00d5a423          	sw	x13,8(x11)
600005c0:	e61ff06f          	j	60000420 <core_state_transition+0xe8>
600005c4:	00060793          	mv	x15,x12
600005c8:	00200513          	li	x10,2
600005cc:	00178793          	addi	x15,x15,1
600005d0:	dbdff06f          	j	6000038c <core_state_transition+0x54>
600005d4:	00000513          	li	x10,0
600005d8:	db5ff06f          	j	6000038c <core_state_transition+0x54>
600005dc:	00060793          	mv	x15,x12
600005e0:	00500513          	li	x10,5
600005e4:	da9ff06f          	j	6000038c <core_state_transition+0x54>
600005e8:	00300513          	li	x10,3
600005ec:	00178793          	addi	x15,x15,1
600005f0:	d9dff06f          	j	6000038c <core_state_transition+0x54>
600005f4:	00060793          	mv	x15,x12
600005f8:	00400513          	li	x10,4
600005fc:	d91ff06f          	j	6000038c <core_state_transition+0x54>
60000600:	00700513          	li	x10,7
60000604:	00178793          	addi	x15,x15,1
60000608:	d85ff06f          	j	6000038c <core_state_transition+0x54>
6000060c:	00700513          	li	x10,7
60000610:	d7dff06f          	j	6000038c <core_state_transition+0x54>
60000614:	00060793          	mv	x15,x12
60000618:	00200513          	li	x10,2
6000061c:	d71ff06f          	j	6000038c <core_state_transition+0x54>

60000620 <calc_func>:
60000620:	00051703          	lh	x14,0(x10)
60000624:	f4010113          	addi	x2,x2,-192
60000628:	02a12223          	sw	x10,36(x2)
6000062c:	40775793          	srai	x15,x14,0x7
60000630:	0017f793          	andi	x15,x15,1
60000634:	0a112e23          	sw	x1,188(x2)
60000638:	00e12e23          	sw	x14,28(x2)
6000063c:	00b12a23          	sw	x11,20(x2)
60000640:	02f12423          	sw	x15,40(x2)
60000644:	07f77513          	andi	x10,x14,127
60000648:	34079e63          	bnez	x15,600009a4 <calc_func+0x384>
6000064c:	0385d603          	lhu	x12,56(x11)
60000650:	0b312623          	sw	x19,172(x2)
60000654:	40375993          	srai	x19,x14,0x3
60000658:	00070693          	mv	x13,x14
6000065c:	00f9f993          	andi	x19,x19,15
60000660:	00499713          	slli	x14,x19,0x4
60000664:	0b612023          	sw	x22,160(x2)
60000668:	09712e23          	sw	x23,156(x2)
6000066c:	0076f793          	andi	x15,x13,7
60000670:	00c12423          	sw	x12,8(x2)
60000674:	00e989b3          	add	x19,x19,x14
60000678:	32078c63          	beqz	x15,600009b0 <calc_func+0x390>
6000067c:	00100713          	li	x14,1
60000680:	0ae79063          	bne	x15,x14,60000720 <calc_func+0x100>
60000684:	0345a703          	lw	x14,52(x11)
60000688:	0305a783          	lw	x15,48(x11)
6000068c:	0b512223          	sw	x21,164(x2)
60000690:	00e12223          	sw	x14,4(x2)
60000694:	02c5a703          	lw	x14,44(x11)
60000698:	0285aa83          	lw	x21,40(x11)
6000069c:	0b212823          	sw	x18,176(x2)
600006a0:	0a812c23          	sw	x8,184(x2)
600006a4:	fffff937          	lui	x18,0xfffff
600006a8:	0a912a23          	sw	x9,180(x2)
600006ac:	0b412423          	sw	x20,168(x2)
600006b0:	09812c23          	sw	x24,152(x2)
600006b4:	09912a23          	sw	x25,148(x2)
600006b8:	09a12823          	sw	x26,144(x2)
600006bc:	09b12623          	sw	x27,140(x2)
600006c0:	02e12023          	sw	x14,32(x2)
600006c4:	00f12623          	sw	x15,12(x2)
600006c8:	0129e933          	or	x18,x19,x18
600006cc:	000a9463          	bnez	x21,600006d4 <calc_func+0xb4>
600006d0:	6650106f          	j	60002534 <calc_func+0x1f14>
600006d4:	001a9793          	slli	x15,x21,0x1
600006d8:	00f70433          	add	x8,x14,x15
600006dc:	415004b3          	neg	x9,x21
600006e0:	00078c13          	mv	x24,x15
600006e4:	00040693          	mv	x13,x8
600006e8:	00000c93          	li	x25,0
600006ec:	00249493          	slli	x9,x9,0x2
600006f0:	41868633          	sub	x12,x13,x24
600006f4:	00060793          	mv	x15,x12
600006f8:	0007d703          	lhu	x14,0(x15)
600006fc:	00278793          	addi	x15,x15,2
60000700:	00e98733          	add	x14,x19,x14
60000704:	fee79f23          	sh	x14,-2(x15)
60000708:	fef698e3          	bne	x13,x15,600006f8 <calc_func+0xd8>
6000070c:	001c8a13          	addi	x20,x25,1
60000710:	409606b3          	sub	x13,x12,x9
60000714:	594a88e3          	beq	x21,x20,600014a4 <calc_func+0xe84>
60000718:	000a0c93          	mv	x25,x20
6000071c:	fd5ff06f          	j	600006f0 <calc_func+0xd0>
60000720:	01069813          	slli	x16,x13,0x10
60000724:	01085813          	srli	x16,x16,0x10
60000728:	00068613          	mv	x12,x13
6000072c:	00812703          	lw	x14,8(x2)
60000730:	0ff67793          	zext.b	x15,x12
60000734:	ffffa6b7          	lui	x13,0xffffa
60000738:	00e7c5b3          	xor	x11,x15,x14
6000073c:	0015f593          	andi	x11,x11,1
60000740:	00168693          	addi	x13,x13,1 # ffffa001 <_stack_top+0x7fffa001>
60000744:	40b005b3          	neg	x11,x11
60000748:	00175b13          	srli	x22,x14,0x1
6000074c:	00d5f5b3          	and	x11,x11,x13
60000750:	0165c5b3          	xor	x11,x11,x22
60000754:	01059593          	slli	x11,x11,0x10
60000758:	0105d593          	srli	x11,x11,0x10
6000075c:	0017d713          	srli	x14,x15,0x1
60000760:	00b74733          	xor	x14,x14,x11
60000764:	00177713          	andi	x14,x14,1
60000768:	40e00733          	neg	x14,x14
6000076c:	00d77733          	and	x14,x14,x13
60000770:	0015d593          	srli	x11,x11,0x1
60000774:	00b74733          	xor	x14,x14,x11
60000778:	01071713          	slli	x14,x14,0x10
6000077c:	01075713          	srli	x14,x14,0x10
60000780:	0027d593          	srli	x11,x15,0x2
60000784:	00e5c5b3          	xor	x11,x11,x14
60000788:	0015f593          	andi	x11,x11,1
6000078c:	40b005b3          	neg	x11,x11
60000790:	00d5f5b3          	and	x11,x11,x13
60000794:	00175713          	srli	x14,x14,0x1
60000798:	00e5c5b3          	xor	x11,x11,x14
6000079c:	01059593          	slli	x11,x11,0x10
600007a0:	0105d593          	srli	x11,x11,0x10
600007a4:	0037d713          	srli	x14,x15,0x3
600007a8:	00b74733          	xor	x14,x14,x11
600007ac:	00177713          	andi	x14,x14,1
600007b0:	40e00733          	neg	x14,x14
600007b4:	00d77733          	and	x14,x14,x13
600007b8:	0015d593          	srli	x11,x11,0x1
600007bc:	00b74733          	xor	x14,x14,x11
600007c0:	01071713          	slli	x14,x14,0x10
600007c4:	01075713          	srli	x14,x14,0x10
600007c8:	0047d593          	srli	x11,x15,0x4
600007cc:	00e5c5b3          	xor	x11,x11,x14
600007d0:	0015f593          	andi	x11,x11,1
600007d4:	40b005b3          	neg	x11,x11
600007d8:	00d5f5b3          	and	x11,x11,x13
600007dc:	00175713          	srli	x14,x14,0x1
600007e0:	00e5c5b3          	xor	x11,x11,x14
600007e4:	01059593          	slli	x11,x11,0x10
600007e8:	0105d593          	srli	x11,x11,0x10
600007ec:	0057d713          	srli	x14,x15,0x5
600007f0:	00b74733          	xor	x14,x14,x11
600007f4:	00177713          	andi	x14,x14,1
600007f8:	40e00733          	neg	x14,x14
600007fc:	00d77733          	and	x14,x14,x13
60000800:	0015d593          	srli	x11,x11,0x1
60000804:	00b74733          	xor	x14,x14,x11
60000808:	01071713          	slli	x14,x14,0x10
6000080c:	01075713          	srli	x14,x14,0x10
60000810:	0067d593          	srli	x11,x15,0x6
60000814:	00e5c5b3          	xor	x11,x11,x14
60000818:	0015f593          	andi	x11,x11,1
6000081c:	40b005b3          	neg	x11,x11
60000820:	00d5f5b3          	and	x11,x11,x13
60000824:	00175713          	srli	x14,x14,0x1
60000828:	00e5c5b3          	xor	x11,x11,x14
6000082c:	01059593          	slli	x11,x11,0x10
60000830:	0105d593          	srli	x11,x11,0x10
60000834:	0077d713          	srli	x14,x15,0x7
60000838:	00b74733          	xor	x14,x14,x11
6000083c:	00177713          	andi	x14,x14,1
60000840:	40e00733          	neg	x14,x14
60000844:	00d77733          	and	x14,x14,x13
60000848:	0015d593          	srli	x11,x11,0x1
6000084c:	00b74733          	xor	x14,x14,x11
60000850:	00885793          	srli	x15,x16,0x8
60000854:	01071713          	slli	x14,x14,0x10
60000858:	0ff7f793          	zext.b	x15,x15
6000085c:	01075713          	srli	x14,x14,0x10
60000860:	00e7c5b3          	xor	x11,x15,x14
60000864:	0015f593          	andi	x11,x11,1
60000868:	40b005b3          	neg	x11,x11
6000086c:	00d5f5b3          	and	x11,x11,x13
60000870:	00175713          	srli	x14,x14,0x1
60000874:	00e5c733          	xor	x14,x11,x14
60000878:	01071713          	slli	x14,x14,0x10
6000087c:	01075713          	srli	x14,x14,0x10
60000880:	0017d593          	srli	x11,x15,0x1
60000884:	00e5c5b3          	xor	x11,x11,x14
60000888:	0015f593          	andi	x11,x11,1
6000088c:	40b005b3          	neg	x11,x11
60000890:	00d5f5b3          	and	x11,x11,x13
60000894:	00175713          	srli	x14,x14,0x1
60000898:	00e5c5b3          	xor	x11,x11,x14
6000089c:	01059593          	slli	x11,x11,0x10
600008a0:	0105d593          	srli	x11,x11,0x10
600008a4:	0027d713          	srli	x14,x15,0x2
600008a8:	00b74733          	xor	x14,x14,x11
600008ac:	00177713          	andi	x14,x14,1
600008b0:	40e00733          	neg	x14,x14
600008b4:	00d77733          	and	x14,x14,x13
600008b8:	0015d593          	srli	x11,x11,0x1
600008bc:	00b74733          	xor	x14,x14,x11
600008c0:	01071713          	slli	x14,x14,0x10
600008c4:	01075713          	srli	x14,x14,0x10
600008c8:	0037d593          	srli	x11,x15,0x3
600008cc:	00e5c5b3          	xor	x11,x11,x14
600008d0:	0015f593          	andi	x11,x11,1
600008d4:	40b005b3          	neg	x11,x11
600008d8:	00d5f5b3          	and	x11,x11,x13
600008dc:	00175713          	srli	x14,x14,0x1
600008e0:	00e5c5b3          	xor	x11,x11,x14
600008e4:	01059593          	slli	x11,x11,0x10
600008e8:	0105d593          	srli	x11,x11,0x10
600008ec:	0047d713          	srli	x14,x15,0x4
600008f0:	00b74733          	xor	x14,x14,x11
600008f4:	00177713          	andi	x14,x14,1
600008f8:	40e00733          	neg	x14,x14
600008fc:	00d77733          	and	x14,x14,x13
60000900:	0015d593          	srli	x11,x11,0x1
60000904:	00b74733          	xor	x14,x14,x11
60000908:	01071713          	slli	x14,x14,0x10
6000090c:	01075713          	srli	x14,x14,0x10
60000910:	0057d593          	srli	x11,x15,0x5
60000914:	00e5c5b3          	xor	x11,x11,x14
60000918:	0015f593          	andi	x11,x11,1
6000091c:	40b005b3          	neg	x11,x11
60000920:	00d5f5b3          	and	x11,x11,x13
60000924:	00175713          	srli	x14,x14,0x1
60000928:	00e5c5b3          	xor	x11,x11,x14
6000092c:	01059593          	slli	x11,x11,0x10
60000930:	0105d593          	srli	x11,x11,0x10
60000934:	0067d713          	srli	x14,x15,0x6
60000938:	00b74733          	xor	x14,x14,x11
6000093c:	00177713          	andi	x14,x14,1
60000940:	40e00733          	neg	x14,x14
60000944:	00d77733          	and	x14,x14,x13
60000948:	0015d593          	srli	x11,x11,0x1
6000094c:	00b74733          	xor	x14,x14,x11
60000950:	01071713          	slli	x14,x14,0x10
60000954:	01075713          	srli	x14,x14,0x10
60000958:	0077d793          	srli	x15,x15,0x7
6000095c:	00e7c7b3          	xor	x15,x15,x14
60000960:	0017f793          	andi	x15,x15,1
60000964:	40f007b3          	neg	x15,x15
60000968:	00d7f7b3          	and	x15,x15,x13
6000096c:	01c12683          	lw	x13,28(x2)
60000970:	00175713          	srli	x14,x14,0x1
60000974:	07f67513          	andi	x10,x12,127
60000978:	f006fb93          	andi	x23,x13,-256
6000097c:	01412683          	lw	x13,20(x2)
60000980:	00e7c7b3          	xor	x15,x15,x14
60000984:	01756733          	or	x14,x10,x23
60000988:	02f69c23          	sh	x15,56(x13)
6000098c:	08076793          	ori	x15,x14,128
60000990:	02412703          	lw	x14,36(x2)
60000994:	0ac12983          	lw	x19,172(x2)
60000998:	0a012b03          	lw	x22,160(x2)
6000099c:	09c12b83          	lw	x23,156(x2)
600009a0:	00f71023          	sh	x15,0(x14)
600009a4:	0bc12083          	lw	x1,188(x2)
600009a8:	0c010113          	addi	x2,x2,192
600009ac:	00008067          	ret
600009b0:	0b212823          	sw	x18,176(x2)
600009b4:	0a812c23          	sw	x8,184(x2)
600009b8:	0a912a23          	sw	x9,180(x2)
600009bc:	0b412423          	sw	x20,168(x2)
600009c0:	0b512223          	sw	x21,164(x2)
600009c4:	09812c23          	sw	x24,152(x2)
600009c8:	02200793          	li	x15,34
600009cc:	00098913          	mv	x18,x19
600009d0:	00f9f463          	bgeu	x19,x15,600009d8 <calc_func+0x3b8>
600009d4:	02200913          	li	x18,34
600009d8:	01412703          	lw	x14,20(x2)
600009dc:	01091913          	slli	x18,x18,0x10
600009e0:	06012023          	sw	x0,96(x2)
600009e4:	01472483          	lw	x9,20(x14)
600009e8:	04012023          	sw	x0,64(x2)
600009ec:	06012223          	sw	x0,100(x2)
600009f0:	0004c783          	lbu	x15,0(x9)
600009f4:	02912e23          	sw	x9,60(x2)
600009f8:	04012223          	sw	x0,68(x2)
600009fc:	06012423          	sw	x0,104(x2)
60000a00:	04012423          	sw	x0,72(x2)
60000a04:	06012623          	sw	x0,108(x2)
60000a08:	04012623          	sw	x0,76(x2)
60000a0c:	06012823          	sw	x0,112(x2)
60000a10:	04012823          	sw	x0,80(x2)
60000a14:	06012a23          	sw	x0,116(x2)
60000a18:	04012a23          	sw	x0,84(x2)
60000a1c:	06012c23          	sw	x0,120(x2)
60000a20:	04012c23          	sw	x0,88(x2)
60000a24:	06012e23          	sw	x0,124(x2)
60000a28:	04012e23          	sw	x0,92(x2)
60000a2c:	01872a83          	lw	x21,24(x14)
60000a30:	00071c03          	lh	x24,0(x14)
60000a34:	00271a03          	lh	x20,2(x14)
60000a38:	41095913          	srai	x18,x18,0x10
60000a3c:	06010413          	addi	x8,x2,96
60000a40:	03c10993          	addi	x19,x2,60
60000a44:	00079463          	bnez	x15,60000a4c <calc_func+0x42c>
60000a48:	2fd0106f          	j	60002544 <calc_func+0x1f24>
60000a4c:	00040593          	mv	x11,x8
60000a50:	00098513          	mv	x10,x19
60000a54:	00000097          	auipc	x1,0x0
60000a58:	8e4080e7          	jalr	-1820(x1) # 60000338 <core_state_transition>
60000a5c:	00251793          	slli	x15,x10,0x2
60000a60:	03010713          	addi	x14,x2,48
60000a64:	05078793          	addi	x15,x15,80
60000a68:	00e787b3          	add	x15,x15,x14
60000a6c:	03c12683          	lw	x13,60(x2)
60000a70:	fc07a703          	lw	x14,-64(x15)
60000a74:	0006c683          	lbu	x13,0(x13)
60000a78:	00170713          	addi	x14,x14,1
60000a7c:	fce7a023          	sw	x14,-64(x15)
60000a80:	fc0696e3          	bnez	x13,60000a4c <calc_func+0x42c>
60000a84:	02912e23          	sw	x9,60(x2)
60000a88:	01548ab3          	add	x21,x9,x21
60000a8c:	0354f863          	bgeu	x9,x21,60000abc <calc_func+0x49c>
60000a90:	00048793          	mv	x15,x9
60000a94:	02c00613          	li	x12,44
60000a98:	0007c703          	lbu	x14,0(x15)
60000a9c:	018746b3          	xor	x13,x14,x24
60000aa0:	00c70463          	beq	x14,x12,60000aa8 <calc_func+0x488>
60000aa4:	00d78023          	sb	x13,0(x15)
60000aa8:	012787b3          	add	x15,x15,x18
60000aac:	ff57e6e3          	bltu	x15,x21,60000a98 <calc_func+0x478>
60000ab0:	0004c783          	lbu	x15,0(x9)
60000ab4:	03c10993          	addi	x19,x2,60
60000ab8:	02078e63          	beqz	x15,60000af4 <calc_func+0x4d4>
60000abc:	00040593          	mv	x11,x8
60000ac0:	00098513          	mv	x10,x19
60000ac4:	00000097          	auipc	x1,0x0
60000ac8:	874080e7          	jalr	-1932(x1) # 60000338 <core_state_transition>
60000acc:	00251793          	slli	x15,x10,0x2
60000ad0:	03010713          	addi	x14,x2,48
60000ad4:	05078793          	addi	x15,x15,80
60000ad8:	00e787b3          	add	x15,x15,x14
60000adc:	03c12683          	lw	x13,60(x2)
60000ae0:	fc07a703          	lw	x14,-64(x15)
60000ae4:	0006c683          	lbu	x13,0(x13)
60000ae8:	00170713          	addi	x14,x14,1
60000aec:	fce7a023          	sw	x14,-64(x15)
60000af0:	fc0696e3          	bnez	x13,60000abc <calc_func+0x49c>
60000af4:	02912e23          	sw	x9,60(x2)
60000af8:	02c00693          	li	x13,44
60000afc:	0154fe63          	bgeu	x9,x21,60000b18 <calc_func+0x4f8>
60000b00:	0004c783          	lbu	x15,0(x9)
60000b04:	0147c733          	xor	x14,x15,x20
60000b08:	00d78463          	beq	x15,x13,60000b10 <calc_func+0x4f0>
60000b0c:	00e48023          	sb	x14,0(x9)
60000b10:	012484b3          	add	x9,x9,x18
60000b14:	ff54e6e3          	bltu	x9,x21,60000b00 <calc_func+0x4e0>
60000b18:	01412783          	lw	x15,20(x2)
60000b1c:	0387d503          	lhu	x10,56(x15)
60000b20:	ffffa7b7          	lui	x15,0xffffa
60000b24:	04010613          	addi	x12,x2,64
60000b28:	00040593          	mv	x11,x8
60000b2c:	00178793          	addi	x15,x15,1 # ffffa001 <_stack_top+0x7fffa001>
60000b30:	00062303          	lw	x6,0(x12)
60000b34:	00812883          	lw	x17,8(x2)
60000b38:	0005a803          	lw	x16,0(x11)
60000b3c:	0ff37713          	zext.b	x14,x6
60000b40:	0018d693          	srli	x13,x17,0x1
60000b44:	011748b3          	xor	x17,x14,x17
60000b48:	0018f893          	andi	x17,x17,1
60000b4c:	411008b3          	neg	x17,x17
60000b50:	00f8f8b3          	and	x17,x17,x15
60000b54:	00d8c8b3          	xor	x17,x17,x13
60000b58:	01089893          	slli	x17,x17,0x10
60000b5c:	0108d893          	srli	x17,x17,0x10
60000b60:	00175693          	srli	x13,x14,0x1
60000b64:	0116c6b3          	xor	x13,x13,x17
60000b68:	0016f693          	andi	x13,x13,1
60000b6c:	40d006b3          	neg	x13,x13
60000b70:	0018d893          	srli	x17,x17,0x1
60000b74:	00f6f6b3          	and	x13,x13,x15
60000b78:	0116c6b3          	xor	x13,x13,x17
60000b7c:	01069693          	slli	x13,x13,0x10
60000b80:	0106d693          	srli	x13,x13,0x10
60000b84:	00275893          	srli	x17,x14,0x2
60000b88:	00d8c8b3          	xor	x17,x17,x13
60000b8c:	0018f893          	andi	x17,x17,1
60000b90:	411008b3          	neg	x17,x17
60000b94:	0016d693          	srli	x13,x13,0x1
60000b98:	00f8f8b3          	and	x17,x17,x15
60000b9c:	00d8c8b3          	xor	x17,x17,x13
60000ba0:	01089893          	slli	x17,x17,0x10
60000ba4:	0108d893          	srli	x17,x17,0x10
60000ba8:	00375693          	srli	x13,x14,0x3
60000bac:	0116c6b3          	xor	x13,x13,x17
60000bb0:	0016f693          	andi	x13,x13,1
60000bb4:	40d006b3          	neg	x13,x13
60000bb8:	0018d893          	srli	x17,x17,0x1
60000bbc:	00f6f6b3          	and	x13,x13,x15
60000bc0:	0116c6b3          	xor	x13,x13,x17
60000bc4:	01069693          	slli	x13,x13,0x10
60000bc8:	0106d693          	srli	x13,x13,0x10
60000bcc:	00475893          	srli	x17,x14,0x4
60000bd0:	00d8c8b3          	xor	x17,x17,x13
60000bd4:	0018f893          	andi	x17,x17,1
60000bd8:	411008b3          	neg	x17,x17
60000bdc:	0016d693          	srli	x13,x13,0x1
60000be0:	00f8f8b3          	and	x17,x17,x15
60000be4:	00d8c8b3          	xor	x17,x17,x13
60000be8:	01089893          	slli	x17,x17,0x10
60000bec:	0108d893          	srli	x17,x17,0x10
60000bf0:	00575693          	srli	x13,x14,0x5
60000bf4:	0116c6b3          	xor	x13,x13,x17
60000bf8:	0016f693          	andi	x13,x13,1
60000bfc:	40d006b3          	neg	x13,x13
60000c00:	0018d893          	srli	x17,x17,0x1
60000c04:	00f6f6b3          	and	x13,x13,x15
60000c08:	0116c6b3          	xor	x13,x13,x17
60000c0c:	01069693          	slli	x13,x13,0x10
60000c10:	0106d693          	srli	x13,x13,0x10
60000c14:	00675893          	srli	x17,x14,0x6
60000c18:	00d8c8b3          	xor	x17,x17,x13
60000c1c:	0018f893          	andi	x17,x17,1
60000c20:	411008b3          	neg	x17,x17
60000c24:	0016d693          	srli	x13,x13,0x1
60000c28:	00f8f8b3          	and	x17,x17,x15
60000c2c:	00d8c8b3          	xor	x17,x17,x13
60000c30:	01089893          	slli	x17,x17,0x10
60000c34:	0108d893          	srli	x17,x17,0x10
60000c38:	00775693          	srli	x13,x14,0x7
60000c3c:	0116c6b3          	xor	x13,x13,x17
60000c40:	0016f693          	andi	x13,x13,1
60000c44:	40d006b3          	neg	x13,x13
60000c48:	0018d893          	srli	x17,x17,0x1
60000c4c:	00f6f6b3          	and	x13,x13,x15
60000c50:	0116c6b3          	xor	x13,x13,x17
60000c54:	01031713          	slli	x14,x6,0x10
60000c58:	01075713          	srli	x14,x14,0x10
60000c5c:	01069693          	slli	x13,x13,0x10
60000c60:	00875713          	srli	x14,x14,0x8
60000c64:	0106d693          	srli	x13,x13,0x10
60000c68:	00d748b3          	xor	x17,x14,x13
60000c6c:	0018f893          	andi	x17,x17,1
60000c70:	411008b3          	neg	x17,x17
60000c74:	00f8f8b3          	and	x17,x17,x15
60000c78:	0016d693          	srli	x13,x13,0x1
60000c7c:	00d8c6b3          	xor	x13,x17,x13
60000c80:	01069693          	slli	x13,x13,0x10
60000c84:	0106d693          	srli	x13,x13,0x10
60000c88:	00175893          	srli	x17,x14,0x1
60000c8c:	00d8c8b3          	xor	x17,x17,x13
60000c90:	0018f893          	andi	x17,x17,1
60000c94:	411008b3          	neg	x17,x17
60000c98:	0016d693          	srli	x13,x13,0x1
60000c9c:	00f8f8b3          	and	x17,x17,x15
60000ca0:	00d8c8b3          	xor	x17,x17,x13
60000ca4:	01089893          	slli	x17,x17,0x10
60000ca8:	0108d893          	srli	x17,x17,0x10
60000cac:	00275693          	srli	x13,x14,0x2
60000cb0:	0116c6b3          	xor	x13,x13,x17
60000cb4:	0016f693          	andi	x13,x13,1
60000cb8:	40d006b3          	neg	x13,x13
60000cbc:	0018d893          	srli	x17,x17,0x1
60000cc0:	00f6f6b3          	and	x13,x13,x15
60000cc4:	0116c6b3          	xor	x13,x13,x17
60000cc8:	01069693          	slli	x13,x13,0x10
60000ccc:	0106d693          	srli	x13,x13,0x10
60000cd0:	00375893          	srli	x17,x14,0x3
60000cd4:	00d8c8b3          	xor	x17,x17,x13
60000cd8:	0018f893          	andi	x17,x17,1
60000cdc:	411008b3          	neg	x17,x17
60000ce0:	0016d693          	srli	x13,x13,0x1
60000ce4:	00f8f8b3          	and	x17,x17,x15
60000ce8:	00d8c8b3          	xor	x17,x17,x13
60000cec:	01089893          	slli	x17,x17,0x10
60000cf0:	0108d893          	srli	x17,x17,0x10
60000cf4:	00475693          	srli	x13,x14,0x4
60000cf8:	0116c6b3          	xor	x13,x13,x17
60000cfc:	0016f693          	andi	x13,x13,1
60000d00:	40d006b3          	neg	x13,x13
60000d04:	0018d893          	srli	x17,x17,0x1
60000d08:	00f6f6b3          	and	x13,x13,x15
60000d0c:	0116c6b3          	xor	x13,x13,x17
60000d10:	01069693          	slli	x13,x13,0x10
60000d14:	0106d693          	srli	x13,x13,0x10
60000d18:	00575893          	srli	x17,x14,0x5
60000d1c:	00d8c8b3          	xor	x17,x17,x13
60000d20:	0018f893          	andi	x17,x17,1
60000d24:	411008b3          	neg	x17,x17
60000d28:	0016d693          	srli	x13,x13,0x1
60000d2c:	00f8f8b3          	and	x17,x17,x15
60000d30:	00d8c8b3          	xor	x17,x17,x13
60000d34:	01089893          	slli	x17,x17,0x10
60000d38:	0108d893          	srli	x17,x17,0x10
60000d3c:	00675693          	srli	x13,x14,0x6
60000d40:	0116c6b3          	xor	x13,x13,x17
60000d44:	0016f693          	andi	x13,x13,1
60000d48:	40d006b3          	neg	x13,x13
60000d4c:	0018d893          	srli	x17,x17,0x1
60000d50:	00f6f6b3          	and	x13,x13,x15
60000d54:	0116c6b3          	xor	x13,x13,x17
60000d58:	01069693          	slli	x13,x13,0x10
60000d5c:	0106d693          	srli	x13,x13,0x10
60000d60:	00775893          	srli	x17,x14,0x7
60000d64:	00d8c8b3          	xor	x17,x17,x13
60000d68:	0018f893          	andi	x17,x17,1
60000d6c:	411008b3          	neg	x17,x17
60000d70:	0016d693          	srli	x13,x13,0x1
60000d74:	00f8f8b3          	and	x17,x17,x15
60000d78:	00d8c8b3          	xor	x17,x17,x13
60000d7c:	01035713          	srli	x14,x6,0x10
60000d80:	01089893          	slli	x17,x17,0x10
60000d84:	0ff77693          	zext.b	x13,x14
60000d88:	0108d893          	srli	x17,x17,0x10
60000d8c:	0116c333          	xor	x6,x13,x17
60000d90:	00137313          	andi	x6,x6,1
60000d94:	40600333          	neg	x6,x6
60000d98:	00f37333          	and	x6,x6,x15
60000d9c:	0018d893          	srli	x17,x17,0x1
60000da0:	011348b3          	xor	x17,x6,x17
60000da4:	01089893          	slli	x17,x17,0x10
60000da8:	0108d893          	srli	x17,x17,0x10
60000dac:	0016d313          	srli	x6,x13,0x1
60000db0:	01134333          	xor	x6,x6,x17
60000db4:	00137313          	andi	x6,x6,1
60000db8:	40600333          	neg	x6,x6
60000dbc:	0018d893          	srli	x17,x17,0x1
60000dc0:	00f37333          	and	x6,x6,x15
60000dc4:	01134333          	xor	x6,x6,x17
60000dc8:	01031313          	slli	x6,x6,0x10
60000dcc:	01035313          	srli	x6,x6,0x10
60000dd0:	0026d893          	srli	x17,x13,0x2
60000dd4:	0068c8b3          	xor	x17,x17,x6
60000dd8:	0018f893          	andi	x17,x17,1
60000ddc:	411008b3          	neg	x17,x17
60000de0:	00135313          	srli	x6,x6,0x1
60000de4:	00f8f8b3          	and	x17,x17,x15
60000de8:	0068c8b3          	xor	x17,x17,x6
60000dec:	01089893          	slli	x17,x17,0x10
60000df0:	0108d893          	srli	x17,x17,0x10
60000df4:	0036d313          	srli	x6,x13,0x3
60000df8:	01134333          	xor	x6,x6,x17
60000dfc:	00137313          	andi	x6,x6,1
60000e00:	40600333          	neg	x6,x6
60000e04:	0018d893          	srli	x17,x17,0x1
60000e08:	00f37333          	and	x6,x6,x15
60000e0c:	01134333          	xor	x6,x6,x17
60000e10:	01031313          	slli	x6,x6,0x10
60000e14:	01035313          	srli	x6,x6,0x10
60000e18:	0046d893          	srli	x17,x13,0x4
60000e1c:	0068c8b3          	xor	x17,x17,x6
60000e20:	0018f893          	andi	x17,x17,1
60000e24:	411008b3          	neg	x17,x17
60000e28:	00135313          	srli	x6,x6,0x1
60000e2c:	00f8f8b3          	and	x17,x17,x15
60000e30:	0068c8b3          	xor	x17,x17,x6
60000e34:	01089893          	slli	x17,x17,0x10
60000e38:	0108d893          	srli	x17,x17,0x10
60000e3c:	0056d313          	srli	x6,x13,0x5
60000e40:	01134333          	xor	x6,x6,x17
60000e44:	00137313          	andi	x6,x6,1
60000e48:	40600333          	neg	x6,x6
60000e4c:	0018d893          	srli	x17,x17,0x1
60000e50:	00f37333          	and	x6,x6,x15
60000e54:	01134333          	xor	x6,x6,x17
60000e58:	01031313          	slli	x6,x6,0x10
60000e5c:	01035313          	srli	x6,x6,0x10
60000e60:	0066d893          	srli	x17,x13,0x6
60000e64:	0068c8b3          	xor	x17,x17,x6
60000e68:	0018f893          	andi	x17,x17,1
60000e6c:	411008b3          	neg	x17,x17
60000e70:	00f8f8b3          	and	x17,x17,x15
60000e74:	00135313          	srli	x6,x6,0x1
60000e78:	0068c8b3          	xor	x17,x17,x6
60000e7c:	01089893          	slli	x17,x17,0x10
60000e80:	0108d893          	srli	x17,x17,0x10
60000e84:	0076d693          	srli	x13,x13,0x7
60000e88:	0116c6b3          	xor	x13,x13,x17
60000e8c:	0016f693          	andi	x13,x13,1
60000e90:	40d006b3          	neg	x13,x13
60000e94:	0018d893          	srli	x17,x17,0x1
60000e98:	00f6f6b3          	and	x13,x13,x15
60000e9c:	0116c6b3          	xor	x13,x13,x17
60000ea0:	01069693          	slli	x13,x13,0x10
60000ea4:	00875713          	srli	x14,x14,0x8
60000ea8:	0106d693          	srli	x13,x13,0x10
60000eac:	00d748b3          	xor	x17,x14,x13
60000eb0:	0018f893          	andi	x17,x17,1
60000eb4:	411008b3          	neg	x17,x17
60000eb8:	0016d693          	srli	x13,x13,0x1
60000ebc:	00f8f8b3          	and	x17,x17,x15
60000ec0:	00d8c8b3          	xor	x17,x17,x13
60000ec4:	01089893          	slli	x17,x17,0x10
60000ec8:	0108d893          	srli	x17,x17,0x10
60000ecc:	00175693          	srli	x13,x14,0x1
60000ed0:	0116c6b3          	xor	x13,x13,x17
60000ed4:	0016f693          	andi	x13,x13,1
60000ed8:	40d006b3          	neg	x13,x13
60000edc:	0018d893          	srli	x17,x17,0x1
60000ee0:	00f6f6b3          	and	x13,x13,x15
60000ee4:	0116c6b3          	xor	x13,x13,x17
60000ee8:	01069693          	slli	x13,x13,0x10
60000eec:	0106d693          	srli	x13,x13,0x10
60000ef0:	00275893          	srli	x17,x14,0x2
60000ef4:	00d8c8b3          	xor	x17,x17,x13
60000ef8:	0018f893          	andi	x17,x17,1
60000efc:	411008b3          	neg	x17,x17
60000f00:	0016d693          	srli	x13,x13,0x1
60000f04:	00f8f8b3          	and	x17,x17,x15
60000f08:	00d8c8b3          	xor	x17,x17,x13
60000f0c:	01089893          	slli	x17,x17,0x10
60000f10:	0108d893          	srli	x17,x17,0x10
60000f14:	00375693          	srli	x13,x14,0x3
60000f18:	0116c6b3          	xor	x13,x13,x17
60000f1c:	0016f693          	andi	x13,x13,1
60000f20:	40d006b3          	neg	x13,x13
60000f24:	0018d893          	srli	x17,x17,0x1
60000f28:	00f6f6b3          	and	x13,x13,x15
60000f2c:	0116c6b3          	xor	x13,x13,x17
60000f30:	01069693          	slli	x13,x13,0x10
60000f34:	0106d693          	srli	x13,x13,0x10
60000f38:	00475893          	srli	x17,x14,0x4
60000f3c:	00d8c8b3          	xor	x17,x17,x13
60000f40:	0018f893          	andi	x17,x17,1
60000f44:	411008b3          	neg	x17,x17
60000f48:	0016d693          	srli	x13,x13,0x1
60000f4c:	00f8f8b3          	and	x17,x17,x15
60000f50:	00d8c8b3          	xor	x17,x17,x13
60000f54:	01089893          	slli	x17,x17,0x10
60000f58:	0108d893          	srli	x17,x17,0x10
60000f5c:	00575693          	srli	x13,x14,0x5
60000f60:	0116c6b3          	xor	x13,x13,x17
60000f64:	0016f693          	andi	x13,x13,1
60000f68:	40d006b3          	neg	x13,x13
60000f6c:	0018d893          	srli	x17,x17,0x1
60000f70:	00f6f6b3          	and	x13,x13,x15
60000f74:	0116c6b3          	xor	x13,x13,x17
60000f78:	01069693          	slli	x13,x13,0x10
60000f7c:	0106d693          	srli	x13,x13,0x10
60000f80:	00675893          	srli	x17,x14,0x6
60000f84:	00d8c8b3          	xor	x17,x17,x13
60000f88:	0018f893          	andi	x17,x17,1
60000f8c:	411008b3          	neg	x17,x17
60000f90:	0016d693          	srli	x13,x13,0x1
60000f94:	00f8f8b3          	and	x17,x17,x15
60000f98:	00d8c8b3          	xor	x17,x17,x13
60000f9c:	01089893          	slli	x17,x17,0x10
60000fa0:	0108d893          	srli	x17,x17,0x10
60000fa4:	00775693          	srli	x13,x14,0x7
60000fa8:	0116c6b3          	xor	x13,x13,x17
60000fac:	0016f693          	andi	x13,x13,1
60000fb0:	40d006b3          	neg	x13,x13
60000fb4:	0018d893          	srli	x17,x17,0x1
60000fb8:	00f6f6b3          	and	x13,x13,x15
60000fbc:	0116c6b3          	xor	x13,x13,x17
60000fc0:	01069693          	slli	x13,x13,0x10
60000fc4:	0ff87713          	zext.b	x14,x16
60000fc8:	0106d693          	srli	x13,x13,0x10
60000fcc:	00d748b3          	xor	x17,x14,x13
60000fd0:	0018f893          	andi	x17,x17,1
60000fd4:	411008b3          	neg	x17,x17
60000fd8:	00f8f8b3          	and	x17,x17,x15
60000fdc:	0016d693          	srli	x13,x13,0x1
60000fe0:	00d8c6b3          	xor	x13,x17,x13
60000fe4:	01069693          	slli	x13,x13,0x10
60000fe8:	0106d693          	srli	x13,x13,0x10
60000fec:	00175893          	srli	x17,x14,0x1
60000ff0:	00d8c8b3          	xor	x17,x17,x13
60000ff4:	0018f893          	andi	x17,x17,1
60000ff8:	411008b3          	neg	x17,x17
60000ffc:	0016d693          	srli	x13,x13,0x1
60001000:	00f8f8b3          	and	x17,x17,x15
60001004:	00d8c8b3          	xor	x17,x17,x13
60001008:	01089893          	slli	x17,x17,0x10
6000100c:	0108d893          	srli	x17,x17,0x10
60001010:	00275693          	srli	x13,x14,0x2
60001014:	0116c6b3          	xor	x13,x13,x17
60001018:	0016f693          	andi	x13,x13,1
6000101c:	40d006b3          	neg	x13,x13
60001020:	0018d893          	srli	x17,x17,0x1
60001024:	00f6f6b3          	and	x13,x13,x15
60001028:	0116c6b3          	xor	x13,x13,x17
6000102c:	01069693          	slli	x13,x13,0x10
60001030:	0106d693          	srli	x13,x13,0x10
60001034:	00375893          	srli	x17,x14,0x3
60001038:	00d8c8b3          	xor	x17,x17,x13
6000103c:	0018f893          	andi	x17,x17,1
60001040:	411008b3          	neg	x17,x17
60001044:	0016d693          	srli	x13,x13,0x1
60001048:	00f8f8b3          	and	x17,x17,x15
6000104c:	00d8c8b3          	xor	x17,x17,x13
60001050:	01089893          	slli	x17,x17,0x10
60001054:	0108d893          	srli	x17,x17,0x10
60001058:	00475693          	srli	x13,x14,0x4
6000105c:	0116c6b3          	xor	x13,x13,x17
60001060:	0016f693          	andi	x13,x13,1
60001064:	40d006b3          	neg	x13,x13
60001068:	0018d893          	srli	x17,x17,0x1
6000106c:	00f6f6b3          	and	x13,x13,x15
60001070:	0116c6b3          	xor	x13,x13,x17
60001074:	01069693          	slli	x13,x13,0x10
60001078:	0106d693          	srli	x13,x13,0x10
6000107c:	00575893          	srli	x17,x14,0x5
60001080:	00d8c8b3          	xor	x17,x17,x13
60001084:	0018f893          	andi	x17,x17,1
60001088:	411008b3          	neg	x17,x17
6000108c:	0016d693          	srli	x13,x13,0x1
60001090:	00f8f8b3          	and	x17,x17,x15
60001094:	00d8c8b3          	xor	x17,x17,x13
60001098:	01089893          	slli	x17,x17,0x10
6000109c:	0108d893          	srli	x17,x17,0x10
600010a0:	00675693          	srli	x13,x14,0x6
600010a4:	0116c6b3          	xor	x13,x13,x17
600010a8:	0016f693          	andi	x13,x13,1
600010ac:	40d006b3          	neg	x13,x13
600010b0:	0018d893          	srli	x17,x17,0x1
600010b4:	00f6f6b3          	and	x13,x13,x15
600010b8:	0116c6b3          	xor	x13,x13,x17
600010bc:	01069693          	slli	x13,x13,0x10
600010c0:	0106d693          	srli	x13,x13,0x10
600010c4:	00775713          	srli	x14,x14,0x7
600010c8:	00d74733          	xor	x14,x14,x13
600010cc:	00177713          	andi	x14,x14,1
600010d0:	40e00733          	neg	x14,x14
600010d4:	0016d693          	srli	x13,x13,0x1
600010d8:	00f77733          	and	x14,x14,x15
600010dc:	00d74733          	xor	x14,x14,x13
600010e0:	01081693          	slli	x13,x16,0x10
600010e4:	0106d693          	srli	x13,x13,0x10
600010e8:	01071713          	slli	x14,x14,0x10
600010ec:	0086d693          	srli	x13,x13,0x8
600010f0:	01075713          	srli	x14,x14,0x10
600010f4:	00e6c8b3          	xor	x17,x13,x14
600010f8:	0018f893          	andi	x17,x17,1
600010fc:	411008b3          	neg	x17,x17
60001100:	00f8f8b3          	and	x17,x17,x15
60001104:	00175713          	srli	x14,x14,0x1
60001108:	00e8c733          	xor	x14,x17,x14
6000110c:	01071713          	slli	x14,x14,0x10
60001110:	01075713          	srli	x14,x14,0x10
60001114:	0016d893          	srli	x17,x13,0x1
60001118:	00e8c8b3          	xor	x17,x17,x14
6000111c:	0018f893          	andi	x17,x17,1
60001120:	411008b3          	neg	x17,x17
60001124:	00175713          	srli	x14,x14,0x1
60001128:	00f8f8b3          	and	x17,x17,x15
6000112c:	00e8c8b3          	xor	x17,x17,x14
60001130:	01089893          	slli	x17,x17,0x10
60001134:	0108d893          	srli	x17,x17,0x10
60001138:	0026d713          	srli	x14,x13,0x2
6000113c:	01174733          	xor	x14,x14,x17
60001140:	00177713          	andi	x14,x14,1
60001144:	40e00733          	neg	x14,x14
60001148:	0018d893          	srli	x17,x17,0x1
6000114c:	00f77733          	and	x14,x14,x15
60001150:	01174733          	xor	x14,x14,x17
60001154:	01071713          	slli	x14,x14,0x10
60001158:	01075713          	srli	x14,x14,0x10
6000115c:	0036d893          	srli	x17,x13,0x3
60001160:	00e8c8b3          	xor	x17,x17,x14
60001164:	0018f893          	andi	x17,x17,1
60001168:	411008b3          	neg	x17,x17
6000116c:	00175713          	srli	x14,x14,0x1
60001170:	00f8f8b3          	and	x17,x17,x15
60001174:	00e8c8b3          	xor	x17,x17,x14
60001178:	01089893          	slli	x17,x17,0x10
6000117c:	0108d893          	srli	x17,x17,0x10
60001180:	0046d713          	srli	x14,x13,0x4
60001184:	01174733          	xor	x14,x14,x17
60001188:	00177713          	andi	x14,x14,1
6000118c:	40e00733          	neg	x14,x14
60001190:	0018d893          	srli	x17,x17,0x1
60001194:	00f77733          	and	x14,x14,x15
60001198:	01174733          	xor	x14,x14,x17
6000119c:	01071713          	slli	x14,x14,0x10
600011a0:	01075713          	srli	x14,x14,0x10
600011a4:	0056d893          	srli	x17,x13,0x5
600011a8:	00e8c8b3          	xor	x17,x17,x14
600011ac:	0018f893          	andi	x17,x17,1
600011b0:	411008b3          	neg	x17,x17
600011b4:	00175713          	srli	x14,x14,0x1
600011b8:	00f8f8b3          	and	x17,x17,x15
600011bc:	00e8c8b3          	xor	x17,x17,x14
600011c0:	01089893          	slli	x17,x17,0x10
600011c4:	0108d893          	srli	x17,x17,0x10
600011c8:	0066d713          	srli	x14,x13,0x6
600011cc:	01174733          	xor	x14,x14,x17
600011d0:	00177713          	andi	x14,x14,1
600011d4:	40e00733          	neg	x14,x14
600011d8:	0018d893          	srli	x17,x17,0x1
600011dc:	00f77733          	and	x14,x14,x15
600011e0:	01174733          	xor	x14,x14,x17
600011e4:	01071713          	slli	x14,x14,0x10
600011e8:	01075713          	srli	x14,x14,0x10
600011ec:	0076d693          	srli	x13,x13,0x7
600011f0:	00e6c6b3          	xor	x13,x13,x14
600011f4:	0016f693          	andi	x13,x13,1
600011f8:	40d006b3          	neg	x13,x13
600011fc:	00175713          	srli	x14,x14,0x1
60001200:	00f6f6b3          	and	x13,x13,x15
60001204:	00e6c6b3          	xor	x13,x13,x14
60001208:	01085813          	srli	x16,x16,0x10
6000120c:	01069693          	slli	x13,x13,0x10
60001210:	0ff87713          	zext.b	x14,x16
60001214:	0106d693          	srli	x13,x13,0x10
60001218:	00d748b3          	xor	x17,x14,x13
6000121c:	0018f893          	andi	x17,x17,1
60001220:	411008b3          	neg	x17,x17
60001224:	0016d693          	srli	x13,x13,0x1
60001228:	00f8f8b3          	and	x17,x17,x15
6000122c:	00d8c8b3          	xor	x17,x17,x13
60001230:	01089893          	slli	x17,x17,0x10
60001234:	0108d893          	srli	x17,x17,0x10
60001238:	00175693          	srli	x13,x14,0x1
6000123c:	0116c6b3          	xor	x13,x13,x17
60001240:	0016f693          	andi	x13,x13,1
60001244:	40d006b3          	neg	x13,x13
60001248:	0018d893          	srli	x17,x17,0x1
6000124c:	00f6f6b3          	and	x13,x13,x15
60001250:	0116c6b3          	xor	x13,x13,x17
60001254:	01069693          	slli	x13,x13,0x10
60001258:	0106d693          	srli	x13,x13,0x10
6000125c:	00275893          	srli	x17,x14,0x2
60001260:	00d8c8b3          	xor	x17,x17,x13
60001264:	0018f893          	andi	x17,x17,1
60001268:	411008b3          	neg	x17,x17
6000126c:	0016d693          	srli	x13,x13,0x1
60001270:	00f8f8b3          	and	x17,x17,x15
60001274:	00d8c8b3          	xor	x17,x17,x13
60001278:	01089893          	slli	x17,x17,0x10
6000127c:	0108d893          	srli	x17,x17,0x10
60001280:	00375693          	srli	x13,x14,0x3
60001284:	0116c6b3          	xor	x13,x13,x17
60001288:	0016f693          	andi	x13,x13,1
6000128c:	40d006b3          	neg	x13,x13
60001290:	0018d893          	srli	x17,x17,0x1
60001294:	00f6f6b3          	and	x13,x13,x15
60001298:	0116c6b3          	xor	x13,x13,x17
6000129c:	01069693          	slli	x13,x13,0x10
600012a0:	0106d693          	srli	x13,x13,0x10
600012a4:	00475893          	srli	x17,x14,0x4
600012a8:	00d8c8b3          	xor	x17,x17,x13
600012ac:	0018f893          	andi	x17,x17,1
600012b0:	411008b3          	neg	x17,x17
600012b4:	0016d693          	srli	x13,x13,0x1
600012b8:	00f8f8b3          	and	x17,x17,x15
600012bc:	00d8c8b3          	xor	x17,x17,x13
600012c0:	01089893          	slli	x17,x17,0x10
600012c4:	0108d893          	srli	x17,x17,0x10
600012c8:	00575693          	srli	x13,x14,0x5
600012cc:	0116c6b3          	xor	x13,x13,x17
600012d0:	0016f693          	andi	x13,x13,1
600012d4:	40d006b3          	neg	x13,x13
600012d8:	0018d893          	srli	x17,x17,0x1
600012dc:	00f6f6b3          	and	x13,x13,x15
600012e0:	0116c6b3          	xor	x13,x13,x17
600012e4:	01069693          	slli	x13,x13,0x10
600012e8:	0106d693          	srli	x13,x13,0x10
600012ec:	00675893          	srli	x17,x14,0x6
600012f0:	00d8c8b3          	xor	x17,x17,x13
600012f4:	0018f893          	andi	x17,x17,1
600012f8:	411008b3          	neg	x17,x17
600012fc:	0016d693          	srli	x13,x13,0x1
60001300:	00f8f8b3          	and	x17,x17,x15
60001304:	00d8c8b3          	xor	x17,x17,x13
60001308:	01089893          	slli	x17,x17,0x10
6000130c:	0108d893          	srli	x17,x17,0x10
60001310:	00775713          	srli	x14,x14,0x7
60001314:	01174733          	xor	x14,x14,x17
60001318:	00177713          	andi	x14,x14,1
6000131c:	40e00733          	neg	x14,x14
60001320:	00f77733          	and	x14,x14,x15
60001324:	0018d893          	srli	x17,x17,0x1
60001328:	01174733          	xor	x14,x14,x17
6000132c:	01071713          	slli	x14,x14,0x10
60001330:	00885693          	srli	x13,x16,0x8
60001334:	01075713          	srli	x14,x14,0x10
60001338:	00e6c833          	xor	x16,x13,x14
6000133c:	00187813          	andi	x16,x16,1
60001340:	41000833          	neg	x16,x16
60001344:	00175713          	srli	x14,x14,0x1
60001348:	00f87833          	and	x16,x16,x15
6000134c:	00e84833          	xor	x16,x16,x14
60001350:	01081813          	slli	x16,x16,0x10
60001354:	01085813          	srli	x16,x16,0x10
60001358:	0016d713          	srli	x14,x13,0x1
6000135c:	01074733          	xor	x14,x14,x16
60001360:	00177713          	andi	x14,x14,1
60001364:	40e00733          	neg	x14,x14
60001368:	00185813          	srli	x16,x16,0x1
6000136c:	00f77733          	and	x14,x14,x15
60001370:	01074733          	xor	x14,x14,x16
60001374:	01071713          	slli	x14,x14,0x10
60001378:	01075713          	srli	x14,x14,0x10
6000137c:	0026d813          	srli	x16,x13,0x2
60001380:	00e84833          	xor	x16,x16,x14
60001384:	00187813          	andi	x16,x16,1
60001388:	41000833          	neg	x16,x16
6000138c:	00175713          	srli	x14,x14,0x1
60001390:	00f87833          	and	x16,x16,x15
60001394:	00e84833          	xor	x16,x16,x14
60001398:	01081813          	slli	x16,x16,0x10
6000139c:	01085813          	srli	x16,x16,0x10
600013a0:	0036d713          	srli	x14,x13,0x3
600013a4:	01074733          	xor	x14,x14,x16
600013a8:	00177713          	andi	x14,x14,1
600013ac:	40e00733          	neg	x14,x14
600013b0:	00185813          	srli	x16,x16,0x1
600013b4:	00f77733          	and	x14,x14,x15
600013b8:	01074733          	xor	x14,x14,x16
600013bc:	01071713          	slli	x14,x14,0x10
600013c0:	01075713          	srli	x14,x14,0x10
600013c4:	0046d813          	srli	x16,x13,0x4
600013c8:	00e84833          	xor	x16,x16,x14
600013cc:	00187813          	andi	x16,x16,1
600013d0:	41000833          	neg	x16,x16
600013d4:	00175713          	srli	x14,x14,0x1
600013d8:	00f87833          	and	x16,x16,x15
600013dc:	00e84833          	xor	x16,x16,x14
600013e0:	01081813          	slli	x16,x16,0x10
600013e4:	01085813          	srli	x16,x16,0x10
600013e8:	0056d713          	srli	x14,x13,0x5
600013ec:	01074733          	xor	x14,x14,x16
600013f0:	00177713          	andi	x14,x14,1
600013f4:	40e00733          	neg	x14,x14
600013f8:	00185813          	srli	x16,x16,0x1
600013fc:	00f77733          	and	x14,x14,x15
60001400:	01074733          	xor	x14,x14,x16
60001404:	01071713          	slli	x14,x14,0x10
60001408:	01075713          	srli	x14,x14,0x10
6000140c:	0066d813          	srli	x16,x13,0x6
60001410:	00e84833          	xor	x16,x16,x14
60001414:	00187813          	andi	x16,x16,1
60001418:	41000833          	neg	x16,x16
6000141c:	00175713          	srli	x14,x14,0x1
60001420:	00f87833          	and	x16,x16,x15
60001424:	00e84833          	xor	x16,x16,x14
60001428:	01081813          	slli	x16,x16,0x10
6000142c:	01085813          	srli	x16,x16,0x10
60001430:	0076d713          	srli	x14,x13,0x7
60001434:	01074733          	xor	x14,x14,x16
60001438:	00177713          	andi	x14,x14,1
6000143c:	40e00733          	neg	x14,x14
60001440:	00f77733          	and	x14,x14,x15
60001444:	00185813          	srli	x16,x16,0x1
60001448:	01074733          	xor	x14,x14,x16
6000144c:	01071713          	slli	x14,x14,0x10
60001450:	01075713          	srli	x14,x14,0x10
60001454:	00460613          	addi	x12,x12,4
60001458:	00e12423          	sw	x14,8(x2)
6000145c:	00458593          	addi	x11,x11,4
60001460:	ec861863          	bne	x12,x8,60000b30 <calc_func+0x510>
60001464:	01412703          	lw	x14,20(x2)
60001468:	03e75783          	lhu	x15,62(x14)
6000146c:	00079663          	bnez	x15,60001478 <calc_func+0xe58>
60001470:	00812783          	lw	x15,8(x2)
60001474:	02f71f23          	sh	x15,62(x14)
60001478:	00812803          	lw	x16,8(x2)
6000147c:	0b812403          	lw	x8,184(x2)
60001480:	0b412483          	lw	x9,180(x2)
60001484:	01081613          	slli	x12,x16,0x10
60001488:	0b012903          	lw	x18,176(x2)
6000148c:	0a812a03          	lw	x20,168(x2)
60001490:	0a412a83          	lw	x21,164(x2)
60001494:	09812c03          	lw	x24,152(x2)
60001498:	41065613          	srai	x12,x12,0x10
6000149c:	00a12423          	sw	x10,8(x2)
600014a0:	a8cff06f          	j	6000072c <calc_func+0x10c>
600014a4:	00000d93          	li	x27,0
600014a8:	00012823          	sw	x0,16(x2)
600014ac:	00412783          	lw	x15,4(x2)
600014b0:	41840d33          	sub	x26,x8,x24
600014b4:	002d9713          	slli	x14,x27,0x2
600014b8:	00f70bb3          	add	x23,x14,x15
600014bc:	000d0b13          	mv	x22,x26
600014c0:	000b1503          	lh	x10,0(x22)
600014c4:	00098593          	mv	x11,x19
600014c8:	002b0b13          	addi	x22,x22,2
600014cc:	00002097          	auipc	x1,0x2
600014d0:	9c0080e7          	jalr	-1600(x1) # 60002e8c <__mulsi3>
600014d4:	00aba023          	sw	x10,0(x23)
600014d8:	004b8b93          	addi	x23,x23,4
600014dc:	ff6412e3          	bne	x8,x22,600014c0 <calc_func+0xea0>
600014e0:	01012703          	lw	x14,16(x2)
600014e4:	014d8db3          	add	x27,x27,x20
600014e8:	409d0433          	sub	x8,x26,x9
600014ec:	00170793          	addi	x15,x14,1
600014f0:	00ec8663          	beq	x25,x14,600014fc <calc_func+0xedc>
600014f4:	00f12823          	sw	x15,16(x2)
600014f8:	fb5ff06f          	j	600014ac <calc_func+0xe8c>
600014fc:	00412783          	lw	x15,4(x2)
60001500:	41400e33          	neg	x28,x20
60001504:	00000693          	li	x13,0
60001508:	40978833          	sub	x16,x15,x9
6000150c:	00000593          	li	x11,0
60001510:	00000793          	li	x15,0
60001514:	00000313          	li	x6,0
60001518:	003e1e13          	slli	x28,x28,0x3
6000151c:	010488b3          	add	x17,x9,x16
60001520:	00088713          	mv	x14,x17
60001524:	0140006f          	j	60001538 <calc_func+0xf18>
60001528:	01079793          	slli	x15,x15,0x10
6000152c:	00470713          	addi	x14,x14,4
60001530:	4107d793          	srai	x15,x15,0x10
60001534:	02e80e63          	beq	x16,x14,60001570 <calc_func+0xf50>
60001538:	00068613          	mv	x12,x13
6000153c:	00072683          	lw	x13,0(x14)
60001540:	01079793          	slli	x15,x15,0x10
60001544:	0107d793          	srli	x15,x15,0x10
60001548:	00d62633          	slt	x12,x12,x13
6000154c:	00d585b3          	add	x11,x11,x13
60001550:	00a78513          	addi	x10,x15,10
60001554:	00c787b3          	add	x15,x15,x12
60001558:	fcb958e3          	bge	x18,x11,60001528 <calc_func+0xf08>
6000155c:	01051793          	slli	x15,x10,0x10
60001560:	00470713          	addi	x14,x14,4
60001564:	4107d793          	srai	x15,x15,0x10
60001568:	00000593          	li	x11,0
6000156c:	fce816e3          	bne	x16,x14,60001538 <calc_func+0xf18>
60001570:	00130713          	addi	x14,x6,1
60001574:	41c88833          	sub	x16,x17,x28
60001578:	006c8663          	beq	x25,x6,60001584 <calc_func+0xf64>
6000157c:	00070313          	mv	x6,x14
60001580:	f9dff06f          	j	6000151c <calc_func+0xefc>
60001584:	0ff7f713          	zext.b	x14,x15
60001588:	00177613          	andi	x12,x14,1
6000158c:	0000a6b7          	lui	x13,0xa
60001590:	40c00633          	neg	x12,x12
60001594:	00168693          	addi	x13,x13,1 # a001 <_start-0x5fff5fff>
60001598:	00c6f6b3          	and	x13,x13,x12
6000159c:	00175613          	srli	x12,x14,0x1
600015a0:	00d64633          	xor	x12,x12,x13
600015a4:	00167613          	andi	x12,x12,1
600015a8:	ffffa5b7          	lui	x11,0xffffa
600015ac:	00158593          	addi	x11,x11,1 # ffffa001 <_stack_top+0x7fffa001>
600015b0:	40c00633          	neg	x12,x12
600015b4:	0016d693          	srli	x13,x13,0x1
600015b8:	00b67633          	and	x12,x12,x11
600015bc:	00d64633          	xor	x12,x12,x13
600015c0:	01061613          	slli	x12,x12,0x10
600015c4:	01065613          	srli	x12,x12,0x10
600015c8:	00275693          	srli	x13,x14,0x2
600015cc:	00c6c6b3          	xor	x13,x13,x12
600015d0:	0016f693          	andi	x13,x13,1
600015d4:	40d006b3          	neg	x13,x13
600015d8:	00b6f6b3          	and	x13,x13,x11
600015dc:	00165613          	srli	x12,x12,0x1
600015e0:	01079793          	slli	x15,x15,0x10
600015e4:	00c6c6b3          	xor	x13,x13,x12
600015e8:	0107d793          	srli	x15,x15,0x10
600015ec:	01069693          	slli	x13,x13,0x10
600015f0:	0087d793          	srli	x15,x15,0x8
600015f4:	00375713          	srli	x14,x14,0x3
600015f8:	0106d693          	srli	x13,x13,0x10
600015fc:	00d745b3          	xor	x11,x14,x13
60001600:	0015f593          	andi	x11,x11,1
60001604:	ffffa637          	lui	x12,0xffffa
60001608:	00160613          	addi	x12,x12,1 # ffffa001 <_stack_top+0x7fffa001>
6000160c:	40b005b3          	neg	x11,x11
60001610:	0016d693          	srli	x13,x13,0x1
60001614:	00c5f5b3          	and	x11,x11,x12
60001618:	00d5c5b3          	xor	x11,x11,x13
6000161c:	01059593          	slli	x11,x11,0x10
60001620:	0105d593          	srli	x11,x11,0x10
60001624:	00175693          	srli	x13,x14,0x1
60001628:	00b6c6b3          	xor	x13,x13,x11
6000162c:	0016f693          	andi	x13,x13,1
60001630:	40d006b3          	neg	x13,x13
60001634:	0015d593          	srli	x11,x11,0x1
60001638:	00c6f6b3          	and	x13,x13,x12
6000163c:	00b6c6b3          	xor	x13,x13,x11
60001640:	01069693          	slli	x13,x13,0x10
60001644:	0106d693          	srli	x13,x13,0x10
60001648:	00275593          	srli	x11,x14,0x2
6000164c:	00d5c5b3          	xor	x11,x11,x13
60001650:	0015f593          	andi	x11,x11,1
60001654:	40b005b3          	neg	x11,x11
60001658:	0016d693          	srli	x13,x13,0x1
6000165c:	00c5f5b3          	and	x11,x11,x12
60001660:	00d5c5b3          	xor	x11,x11,x13
60001664:	01059593          	slli	x11,x11,0x10
60001668:	0105d593          	srli	x11,x11,0x10
6000166c:	00375693          	srli	x13,x14,0x3
60001670:	00b6c6b3          	xor	x13,x13,x11
60001674:	0016f693          	andi	x13,x13,1
60001678:	40d006b3          	neg	x13,x13
6000167c:	00c6f6b3          	and	x13,x13,x12
60001680:	0015d593          	srli	x11,x11,0x1
60001684:	00b6c6b3          	xor	x13,x13,x11
60001688:	01069693          	slli	x13,x13,0x10
6000168c:	0106d693          	srli	x13,x13,0x10
60001690:	00475713          	srli	x14,x14,0x4
60001694:	00d74733          	xor	x14,x14,x13
60001698:	00177713          	andi	x14,x14,1
6000169c:	40e00733          	neg	x14,x14
600016a0:	0016d693          	srli	x13,x13,0x1
600016a4:	00c77733          	and	x14,x14,x12
600016a8:	00d74733          	xor	x14,x14,x13
600016ac:	01071713          	slli	x14,x14,0x10
600016b0:	01075713          	srli	x14,x14,0x10
600016b4:	00e7c6b3          	xor	x13,x15,x14
600016b8:	0016f693          	andi	x13,x13,1
600016bc:	40d006b3          	neg	x13,x13
600016c0:	00c6f6b3          	and	x13,x13,x12
600016c4:	00175713          	srli	x14,x14,0x1
600016c8:	00e6c733          	xor	x14,x13,x14
600016cc:	01071713          	slli	x14,x14,0x10
600016d0:	01075713          	srli	x14,x14,0x10
600016d4:	0017d693          	srli	x13,x15,0x1
600016d8:	00e6c6b3          	xor	x13,x13,x14
600016dc:	0016f693          	andi	x13,x13,1
600016e0:	40d006b3          	neg	x13,x13
600016e4:	00175713          	srli	x14,x14,0x1
600016e8:	00c6f6b3          	and	x13,x13,x12
600016ec:	00e6c6b3          	xor	x13,x13,x14
600016f0:	01069693          	slli	x13,x13,0x10
600016f4:	0106d693          	srli	x13,x13,0x10
600016f8:	0027d713          	srli	x14,x15,0x2
600016fc:	00d74733          	xor	x14,x14,x13
60001700:	00177713          	andi	x14,x14,1
60001704:	40e00733          	neg	x14,x14
60001708:	0016d693          	srli	x13,x13,0x1
6000170c:	00c77733          	and	x14,x14,x12
60001710:	00d74733          	xor	x14,x14,x13
60001714:	01071713          	slli	x14,x14,0x10
60001718:	01075713          	srli	x14,x14,0x10
6000171c:	0037d693          	srli	x13,x15,0x3
60001720:	00e6c6b3          	xor	x13,x13,x14
60001724:	0016f693          	andi	x13,x13,1
60001728:	40d006b3          	neg	x13,x13
6000172c:	00175713          	srli	x14,x14,0x1
60001730:	00c6f6b3          	and	x13,x13,x12
60001734:	00e6c6b3          	xor	x13,x13,x14
60001738:	01069693          	slli	x13,x13,0x10
6000173c:	0106d693          	srli	x13,x13,0x10
60001740:	0047d713          	srli	x14,x15,0x4
60001744:	00d74733          	xor	x14,x14,x13
60001748:	00177713          	andi	x14,x14,1
6000174c:	40e00733          	neg	x14,x14
60001750:	0016d693          	srli	x13,x13,0x1
60001754:	00c77733          	and	x14,x14,x12
60001758:	00d74733          	xor	x14,x14,x13
6000175c:	01071713          	slli	x14,x14,0x10
60001760:	01075713          	srli	x14,x14,0x10
60001764:	0057d693          	srli	x13,x15,0x5
60001768:	00e6c6b3          	xor	x13,x13,x14
6000176c:	0016f693          	andi	x13,x13,1
60001770:	40d006b3          	neg	x13,x13
60001774:	00175713          	srli	x14,x14,0x1
60001778:	00c6f6b3          	and	x13,x13,x12
6000177c:	00e6c6b3          	xor	x13,x13,x14
60001780:	01069693          	slli	x13,x13,0x10
60001784:	0106d693          	srli	x13,x13,0x10
60001788:	0067d713          	srli	x14,x15,0x6
6000178c:	00d74733          	xor	x14,x14,x13
60001790:	00177713          	andi	x14,x14,1
60001794:	40e00733          	neg	x14,x14
60001798:	00c77733          	and	x14,x14,x12
6000179c:	0016d693          	srli	x13,x13,0x1
600017a0:	00d74733          	xor	x14,x14,x13
600017a4:	01071713          	slli	x14,x14,0x10
600017a8:	01075713          	srli	x14,x14,0x10
600017ac:	0077d793          	srli	x15,x15,0x7
600017b0:	00e7c7b3          	xor	x15,x15,x14
600017b4:	0017f793          	andi	x15,x15,1
600017b8:	40f007b3          	neg	x15,x15
600017bc:	00c7f7b3          	and	x15,x15,x12
600017c0:	00175713          	srli	x14,x14,0x1
600017c4:	00e7c7b3          	xor	x15,x15,x14
600017c8:	01079d13          	slli	x26,x15,0x10
600017cc:	010d5d13          	srli	x26,x26,0x10
600017d0:	540a8ce3          	beqz	x21,60002528 <calc_func+0x1f08>
600017d4:	00412783          	lw	x15,4(x2)
600017d8:	002a9413          	slli	x8,x21,0x2
600017dc:	001a9493          	slli	x9,x21,0x1
600017e0:	00078a13          	mv	x20,x15
600017e4:	00f40433          	add	x8,x8,x15
600017e8:	00c12783          	lw	x15,12(x2)
600017ec:	00000c93          	li	x25,0
600017f0:	00f484b3          	add	x9,x9,x15
600017f4:	02012703          	lw	x14,32(x2)
600017f8:	00c12d83          	lw	x27,12(x2)
600017fc:	001c9793          	slli	x15,x25,0x1
60001800:	00f70bb3          	add	x23,x14,x15
60001804:	00000b13          	li	x22,0
60001808:	000d9583          	lh	x11,0(x27)
6000180c:	000b9503          	lh	x10,0(x23)
60001810:	002d8d93          	addi	x27,x27,2
60001814:	002b8b93          	addi	x23,x23,2
60001818:	00001097          	auipc	x1,0x1
6000181c:	674080e7          	jalr	1652(x1) # 60002e8c <__mulsi3>
60001820:	00ab0b33          	add	x22,x22,x10
60001824:	fe9d92e3          	bne	x27,x9,60001808 <calc_func+0x11e8>
60001828:	016a2023          	sw	x22,0(x20)
6000182c:	004a0a13          	addi	x20,x20,4
60001830:	015c8cb3          	add	x25,x25,x21
60001834:	fd4410e3          	bne	x8,x20,600017f4 <calc_func+0x11d4>
60001838:	415004b3          	neg	x9,x21
6000183c:	00249313          	slli	x6,x9,0x2
60001840:	00000793          	li	x15,0
60001844:	00000693          	li	x13,0
60001848:	00000593          	li	x11,0
6000184c:	00000893          	li	x17,0
60001850:	00349493          	slli	x9,x9,0x3
60001854:	00640833          	add	x16,x8,x6
60001858:	00080713          	mv	x14,x16
6000185c:	0140006f          	j	60001870 <calc_func+0x1250>
60001860:	01079793          	slli	x15,x15,0x10
60001864:	00470713          	addi	x14,x14,4
60001868:	4107d793          	srai	x15,x15,0x10
6000186c:	02e40e63          	beq	x8,x14,600018a8 <calc_func+0x1288>
60001870:	00068613          	mv	x12,x13
60001874:	00072683          	lw	x13,0(x14)
60001878:	01079793          	slli	x15,x15,0x10
6000187c:	0107d793          	srli	x15,x15,0x10
60001880:	00d62633          	slt	x12,x12,x13
60001884:	00d585b3          	add	x11,x11,x13
60001888:	00a78513          	addi	x10,x15,10
6000188c:	00c787b3          	add	x15,x15,x12
60001890:	fcb958e3          	bge	x18,x11,60001860 <calc_func+0x1240>
60001894:	01051793          	slli	x15,x10,0x10
60001898:	00470713          	addi	x14,x14,4
6000189c:	4107d793          	srai	x15,x15,0x10
600018a0:	00000593          	li	x11,0
600018a4:	fce416e3          	bne	x8,x14,60001870 <calc_func+0x1250>
600018a8:	00188893          	addi	x17,x17,1
600018ac:	40980433          	sub	x8,x16,x9
600018b0:	fb1a92e3          	bne	x21,x17,60001854 <calc_func+0x1234>
600018b4:	01079713          	slli	x14,x15,0x10
600018b8:	01075713          	srli	x14,x14,0x10
600018bc:	0ff7f793          	zext.b	x15,x15
600018c0:	00875713          	srli	x14,x14,0x8
600018c4:	01a7c633          	xor	x12,x15,x26
600018c8:	00167613          	andi	x12,x12,1
600018cc:	ffffa6b7          	lui	x13,0xffffa
600018d0:	00168693          	addi	x13,x13,1 # ffffa001 <_stack_top+0x7fffa001>
600018d4:	40c00633          	neg	x12,x12
600018d8:	00d67633          	and	x12,x12,x13
600018dc:	001d5d13          	srli	x26,x26,0x1
600018e0:	01a64633          	xor	x12,x12,x26
600018e4:	01061613          	slli	x12,x12,0x10
600018e8:	01065613          	srli	x12,x12,0x10
600018ec:	0017d593          	srli	x11,x15,0x1
600018f0:	00c5c5b3          	xor	x11,x11,x12
600018f4:	0015f593          	andi	x11,x11,1
600018f8:	40b005b3          	neg	x11,x11
600018fc:	00165613          	srli	x12,x12,0x1
60001900:	00d5f5b3          	and	x11,x11,x13
60001904:	00c5c5b3          	xor	x11,x11,x12
60001908:	01059593          	slli	x11,x11,0x10
6000190c:	0105d593          	srli	x11,x11,0x10
60001910:	0027d613          	srli	x12,x15,0x2
60001914:	00b64633          	xor	x12,x12,x11
60001918:	00167613          	andi	x12,x12,1
6000191c:	40c00633          	neg	x12,x12
60001920:	0015d593          	srli	x11,x11,0x1
60001924:	00d67633          	and	x12,x12,x13
60001928:	00b64633          	xor	x12,x12,x11
6000192c:	01061613          	slli	x12,x12,0x10
60001930:	01065613          	srli	x12,x12,0x10
60001934:	0037d593          	srli	x11,x15,0x3
60001938:	00c5c5b3          	xor	x11,x11,x12
6000193c:	0015f593          	andi	x11,x11,1
60001940:	40b005b3          	neg	x11,x11
60001944:	00165613          	srli	x12,x12,0x1
60001948:	00d5f5b3          	and	x11,x11,x13
6000194c:	00c5c5b3          	xor	x11,x11,x12
60001950:	01059593          	slli	x11,x11,0x10
60001954:	0105d593          	srli	x11,x11,0x10
60001958:	0047d613          	srli	x12,x15,0x4
6000195c:	00b64633          	xor	x12,x12,x11
60001960:	00167613          	andi	x12,x12,1
60001964:	40c00633          	neg	x12,x12
60001968:	0015d593          	srli	x11,x11,0x1
6000196c:	00d67633          	and	x12,x12,x13
60001970:	00b64633          	xor	x12,x12,x11
60001974:	01061613          	slli	x12,x12,0x10
60001978:	01065613          	srli	x12,x12,0x10
6000197c:	0057d593          	srli	x11,x15,0x5
60001980:	00c5c5b3          	xor	x11,x11,x12
60001984:	0015f593          	andi	x11,x11,1
60001988:	40b005b3          	neg	x11,x11
6000198c:	00165613          	srli	x12,x12,0x1
60001990:	00d5f5b3          	and	x11,x11,x13
60001994:	00c5c5b3          	xor	x11,x11,x12
60001998:	01059593          	slli	x11,x11,0x10
6000199c:	0105d593          	srli	x11,x11,0x10
600019a0:	0067d613          	srli	x12,x15,0x6
600019a4:	00b64633          	xor	x12,x12,x11
600019a8:	00167613          	andi	x12,x12,1
600019ac:	40c00633          	neg	x12,x12
600019b0:	00d67633          	and	x12,x12,x13
600019b4:	0015d593          	srli	x11,x11,0x1
600019b8:	00b64633          	xor	x12,x12,x11
600019bc:	01061613          	slli	x12,x12,0x10
600019c0:	01065613          	srli	x12,x12,0x10
600019c4:	0077d793          	srli	x15,x15,0x7
600019c8:	00c7c7b3          	xor	x15,x15,x12
600019cc:	0017f793          	andi	x15,x15,1
600019d0:	40f007b3          	neg	x15,x15
600019d4:	00165613          	srli	x12,x12,0x1
600019d8:	00d7f7b3          	and	x15,x15,x13
600019dc:	00c7c7b3          	xor	x15,x15,x12
600019e0:	01079793          	slli	x15,x15,0x10
600019e4:	0107d793          	srli	x15,x15,0x10
600019e8:	00f74633          	xor	x12,x14,x15
600019ec:	00167613          	andi	x12,x12,1
600019f0:	40c00633          	neg	x12,x12
600019f4:	0017d793          	srli	x15,x15,0x1
600019f8:	00d67633          	and	x12,x12,x13
600019fc:	00f64633          	xor	x12,x12,x15
60001a00:	01061613          	slli	x12,x12,0x10
60001a04:	01065613          	srli	x12,x12,0x10
60001a08:	00175793          	srli	x15,x14,0x1
60001a0c:	00c7c7b3          	xor	x15,x15,x12
60001a10:	0017f793          	andi	x15,x15,1
60001a14:	40f007b3          	neg	x15,x15
60001a18:	00165613          	srli	x12,x12,0x1
60001a1c:	00d7f7b3          	and	x15,x15,x13
60001a20:	00c7c7b3          	xor	x15,x15,x12
60001a24:	01079793          	slli	x15,x15,0x10
60001a28:	0107d793          	srli	x15,x15,0x10
60001a2c:	00275613          	srli	x12,x14,0x2
60001a30:	00f64633          	xor	x12,x12,x15
60001a34:	00167613          	andi	x12,x12,1
60001a38:	40c00633          	neg	x12,x12
60001a3c:	0017d793          	srli	x15,x15,0x1
60001a40:	00d67633          	and	x12,x12,x13
60001a44:	00f64633          	xor	x12,x12,x15
60001a48:	01061613          	slli	x12,x12,0x10
60001a4c:	01065613          	srli	x12,x12,0x10
60001a50:	00375793          	srli	x15,x14,0x3
60001a54:	00c7c7b3          	xor	x15,x15,x12
60001a58:	0017f793          	andi	x15,x15,1
60001a5c:	40f007b3          	neg	x15,x15
60001a60:	00165613          	srli	x12,x12,0x1
60001a64:	00d7f7b3          	and	x15,x15,x13
60001a68:	00c7c7b3          	xor	x15,x15,x12
60001a6c:	01079793          	slli	x15,x15,0x10
60001a70:	0107d793          	srli	x15,x15,0x10
60001a74:	00475613          	srli	x12,x14,0x4
60001a78:	00f64633          	xor	x12,x12,x15
60001a7c:	00167613          	andi	x12,x12,1
60001a80:	40c00633          	neg	x12,x12
60001a84:	0017d793          	srli	x15,x15,0x1
60001a88:	00d67633          	and	x12,x12,x13
60001a8c:	00f64633          	xor	x12,x12,x15
60001a90:	01061613          	slli	x12,x12,0x10
60001a94:	01065613          	srli	x12,x12,0x10
60001a98:	00575793          	srli	x15,x14,0x5
60001a9c:	00c7c7b3          	xor	x15,x15,x12
60001aa0:	0017f793          	andi	x15,x15,1
60001aa4:	40f007b3          	neg	x15,x15
60001aa8:	00165613          	srli	x12,x12,0x1
60001aac:	00d7f7b3          	and	x15,x15,x13
60001ab0:	00c7c7b3          	xor	x15,x15,x12
60001ab4:	01079793          	slli	x15,x15,0x10
60001ab8:	0107d793          	srli	x15,x15,0x10
60001abc:	00675613          	srli	x12,x14,0x6
60001ac0:	00f64633          	xor	x12,x12,x15
60001ac4:	00167613          	andi	x12,x12,1
60001ac8:	40c00633          	neg	x12,x12
60001acc:	0017d793          	srli	x15,x15,0x1
60001ad0:	00d67633          	and	x12,x12,x13
60001ad4:	00f64633          	xor	x12,x12,x15
60001ad8:	01061613          	slli	x12,x12,0x10
60001adc:	01065613          	srli	x12,x12,0x10
60001ae0:	00775793          	srli	x15,x14,0x7
60001ae4:	00c7c7b3          	xor	x15,x15,x12
60001ae8:	0017f793          	andi	x15,x15,1
60001aec:	40f007b3          	neg	x15,x15
60001af0:	00d7f7b3          	and	x15,x15,x13
60001af4:	00165613          	srli	x12,x12,0x1
60001af8:	00c7c7b3          	xor	x15,x15,x12
60001afc:	01079793          	slli	x15,x15,0x10
60001b00:	0107d793          	srli	x15,x15,0x10
60001b04:	02f12623          	sw	x15,44(x2)
60001b08:	00000713          	li	x14,0
60001b0c:	00000793          	li	x15,0
60001b10:	0a0a8c63          	beqz	x21,60001bc8 <calc_func+0x15a8>
60001b14:	02012783          	lw	x15,32(x2)
60001b18:	001a9413          	slli	x8,x21,0x1
60001b1c:	00012823          	sw	x0,16(x2)
60001b20:	00078d93          	mv	x27,x15
60001b24:	00f404b3          	add	x9,x8,x15
60001b28:	01012783          	lw	x15,16(x2)
60001b2c:	00012c23          	sw	x0,24(x2)
60001b30:	00279a13          	slli	x20,x15,0x2
60001b34:	00412783          	lw	x15,4(x2)
60001b38:	00c12c83          	lw	x25,12(x2)
60001b3c:	00000d13          	li	x26,0
60001b40:	00fa0a33          	add	x20,x20,x15
60001b44:	000c8c13          	mv	x24,x25
60001b48:	000d8b13          	mv	x22,x27
60001b4c:	00000b93          	li	x23,0
60001b50:	000c1583          	lh	x11,0(x24)
60001b54:	000b1503          	lh	x10,0(x22)
60001b58:	002b0b13          	addi	x22,x22,2
60001b5c:	008c0c33          	add	x24,x24,x8
60001b60:	00001097          	auipc	x1,0x1
60001b64:	32c080e7          	jalr	812(x1) # 60002e8c <__mulsi3>
60001b68:	00ab8bb3          	add	x23,x23,x10
60001b6c:	fe9b12e3          	bne	x22,x9,60001b50 <calc_func+0x1530>
60001b70:	017a2023          	sw	x23,0(x20)
60001b74:	001d0713          	addi	x14,x26,1
60001b78:	004a0a13          	addi	x20,x20,4
60001b7c:	002c8c93          	addi	x25,x25,2
60001b80:	00ea8663          	beq	x21,x14,60001b8c <calc_func+0x156c>
60001b84:	00070d13          	mv	x26,x14
60001b88:	fbdff06f          	j	60001b44 <calc_func+0x1524>
60001b8c:	01012683          	lw	x13,16(x2)
60001b90:	01812783          	lw	x15,24(x2)
60001b94:	008d8db3          	add	x27,x27,x8
60001b98:	015686b3          	add	x13,x13,x21
60001b9c:	00d12823          	sw	x13,16(x2)
60001ba0:	00178713          	addi	x14,x15,1
60001ba4:	008b04b3          	add	x9,x22,x8
60001ba8:	0fa788e3          	beq	x15,x26,60002498 <calc_func+0x1e78>
60001bac:	00e12c23          	sw	x14,24(x2)
60001bb0:	00068793          	mv	x15,x13
60001bb4:	f7dff06f          	j	60001b30 <calc_func+0x1510>
60001bb8:	01079713          	slli	x14,x15,0x10
60001bbc:	01075713          	srli	x14,x14,0x10
60001bc0:	0ff7f793          	zext.b	x15,x15
60001bc4:	00875713          	srli	x14,x14,0x8
60001bc8:	02c12583          	lw	x11,44(x2)
60001bcc:	ffffa6b7          	lui	x13,0xffffa
60001bd0:	00168693          	addi	x13,x13,1 # ffffa001 <_stack_top+0x7fffa001>
60001bd4:	00b7c633          	xor	x12,x15,x11
60001bd8:	00167613          	andi	x12,x12,1
60001bdc:	40c00633          	neg	x12,x12
60001be0:	0015d593          	srli	x11,x11,0x1
60001be4:	00d67633          	and	x12,x12,x13
60001be8:	00b64633          	xor	x12,x12,x11
60001bec:	01061613          	slli	x12,x12,0x10
60001bf0:	01065613          	srli	x12,x12,0x10
60001bf4:	0017d593          	srli	x11,x15,0x1
60001bf8:	00c5c5b3          	xor	x11,x11,x12
60001bfc:	0015f593          	andi	x11,x11,1
60001c00:	40b005b3          	neg	x11,x11
60001c04:	00165613          	srli	x12,x12,0x1
60001c08:	00d5f5b3          	and	x11,x11,x13
60001c0c:	00c5c5b3          	xor	x11,x11,x12
60001c10:	01059593          	slli	x11,x11,0x10
60001c14:	0105d593          	srli	x11,x11,0x10
60001c18:	0027d613          	srli	x12,x15,0x2
60001c1c:	00b64633          	xor	x12,x12,x11
60001c20:	00167613          	andi	x12,x12,1
60001c24:	40c00633          	neg	x12,x12
60001c28:	0015d593          	srli	x11,x11,0x1
60001c2c:	00d67633          	and	x12,x12,x13
60001c30:	00b64633          	xor	x12,x12,x11
60001c34:	01061613          	slli	x12,x12,0x10
60001c38:	01065613          	srli	x12,x12,0x10
60001c3c:	0037d593          	srli	x11,x15,0x3
60001c40:	00c5c5b3          	xor	x11,x11,x12
60001c44:	0015f593          	andi	x11,x11,1
60001c48:	40b005b3          	neg	x11,x11
60001c4c:	00165613          	srli	x12,x12,0x1
60001c50:	00d5f5b3          	and	x11,x11,x13
60001c54:	00c5c5b3          	xor	x11,x11,x12
60001c58:	01059593          	slli	x11,x11,0x10
60001c5c:	0105d593          	srli	x11,x11,0x10
60001c60:	0047d613          	srli	x12,x15,0x4
60001c64:	00b64633          	xor	x12,x12,x11
60001c68:	00167613          	andi	x12,x12,1
60001c6c:	40c00633          	neg	x12,x12
60001c70:	0015d593          	srli	x11,x11,0x1
60001c74:	00d67633          	and	x12,x12,x13
60001c78:	00b64633          	xor	x12,x12,x11
60001c7c:	01061613          	slli	x12,x12,0x10
60001c80:	01065613          	srli	x12,x12,0x10
60001c84:	0057d593          	srli	x11,x15,0x5
60001c88:	00c5c5b3          	xor	x11,x11,x12
60001c8c:	0015f593          	andi	x11,x11,1
60001c90:	40b005b3          	neg	x11,x11
60001c94:	00165613          	srli	x12,x12,0x1
60001c98:	00d5f5b3          	and	x11,x11,x13
60001c9c:	00c5c5b3          	xor	x11,x11,x12
60001ca0:	01059593          	slli	x11,x11,0x10
60001ca4:	0105d593          	srli	x11,x11,0x10
60001ca8:	0067d613          	srli	x12,x15,0x6
60001cac:	00b64633          	xor	x12,x12,x11
60001cb0:	00167613          	andi	x12,x12,1
60001cb4:	40c00633          	neg	x12,x12
60001cb8:	00d67633          	and	x12,x12,x13
60001cbc:	0015d593          	srli	x11,x11,0x1
60001cc0:	00b64633          	xor	x12,x12,x11
60001cc4:	01061613          	slli	x12,x12,0x10
60001cc8:	01065613          	srli	x12,x12,0x10
60001ccc:	0077d793          	srli	x15,x15,0x7
60001cd0:	00c7c7b3          	xor	x15,x15,x12
60001cd4:	0017f793          	andi	x15,x15,1
60001cd8:	40f007b3          	neg	x15,x15
60001cdc:	00165613          	srli	x12,x12,0x1
60001ce0:	00d7f7b3          	and	x15,x15,x13
60001ce4:	00c7c7b3          	xor	x15,x15,x12
60001ce8:	01079793          	slli	x15,x15,0x10
60001cec:	0107d793          	srli	x15,x15,0x10
60001cf0:	00f74633          	xor	x12,x14,x15
60001cf4:	00167613          	andi	x12,x12,1
60001cf8:	40c00633          	neg	x12,x12
60001cfc:	0017d793          	srli	x15,x15,0x1
60001d00:	00d67633          	and	x12,x12,x13
60001d04:	00f64633          	xor	x12,x12,x15
60001d08:	01061613          	slli	x12,x12,0x10
60001d0c:	01065613          	srli	x12,x12,0x10
60001d10:	00175793          	srli	x15,x14,0x1
60001d14:	00c7c7b3          	xor	x15,x15,x12
60001d18:	0017f793          	andi	x15,x15,1
60001d1c:	40f007b3          	neg	x15,x15
60001d20:	00165613          	srli	x12,x12,0x1
60001d24:	00d7f7b3          	and	x15,x15,x13
60001d28:	00c7c7b3          	xor	x15,x15,x12
60001d2c:	01079793          	slli	x15,x15,0x10
60001d30:	0107d793          	srli	x15,x15,0x10
60001d34:	00275613          	srli	x12,x14,0x2
60001d38:	00f64633          	xor	x12,x12,x15
60001d3c:	00167613          	andi	x12,x12,1
60001d40:	40c00633          	neg	x12,x12
60001d44:	0017d793          	srli	x15,x15,0x1
60001d48:	00d67633          	and	x12,x12,x13
60001d4c:	00f64633          	xor	x12,x12,x15
60001d50:	01061613          	slli	x12,x12,0x10
60001d54:	01065613          	srli	x12,x12,0x10
60001d58:	00375793          	srli	x15,x14,0x3
60001d5c:	00c7c7b3          	xor	x15,x15,x12
60001d60:	0017f793          	andi	x15,x15,1
60001d64:	40f007b3          	neg	x15,x15
60001d68:	00165613          	srli	x12,x12,0x1
60001d6c:	00d7f7b3          	and	x15,x15,x13
60001d70:	00c7c7b3          	xor	x15,x15,x12
60001d74:	01079793          	slli	x15,x15,0x10
60001d78:	0107d793          	srli	x15,x15,0x10
60001d7c:	00475613          	srli	x12,x14,0x4
60001d80:	00f64633          	xor	x12,x12,x15
60001d84:	00167613          	andi	x12,x12,1
60001d88:	40c00633          	neg	x12,x12
60001d8c:	0017d793          	srli	x15,x15,0x1
60001d90:	00d67633          	and	x12,x12,x13
60001d94:	00f64633          	xor	x12,x12,x15
60001d98:	01061613          	slli	x12,x12,0x10
60001d9c:	01065613          	srli	x12,x12,0x10
60001da0:	00575793          	srli	x15,x14,0x5
60001da4:	00c7c7b3          	xor	x15,x15,x12
60001da8:	0017f793          	andi	x15,x15,1
60001dac:	40f007b3          	neg	x15,x15
60001db0:	00165613          	srli	x12,x12,0x1
60001db4:	00d7f7b3          	and	x15,x15,x13
60001db8:	00c7c7b3          	xor	x15,x15,x12
60001dbc:	01079793          	slli	x15,x15,0x10
60001dc0:	0107d793          	srli	x15,x15,0x10
60001dc4:	00675613          	srli	x12,x14,0x6
60001dc8:	00f64633          	xor	x12,x12,x15
60001dcc:	00167613          	andi	x12,x12,1
60001dd0:	40c00633          	neg	x12,x12
60001dd4:	0017d793          	srli	x15,x15,0x1
60001dd8:	00d67633          	and	x12,x12,x13
60001ddc:	00f64633          	xor	x12,x12,x15
60001de0:	01061613          	slli	x12,x12,0x10
60001de4:	01065613          	srli	x12,x12,0x10
60001de8:	00775793          	srli	x15,x14,0x7
60001dec:	00c7c7b3          	xor	x15,x15,x12
60001df0:	0017f793          	andi	x15,x15,1
60001df4:	40f007b3          	neg	x15,x15
60001df8:	00d7f7b3          	and	x15,x15,x13
60001dfc:	00165613          	srli	x12,x12,0x1
60001e00:	00c7c7b3          	xor	x15,x15,x12
60001e04:	01079793          	slli	x15,x15,0x10
60001e08:	0107d793          	srli	x15,x15,0x10
60001e0c:	02f12623          	sw	x15,44(x2)
60001e10:	00000713          	li	x14,0
60001e14:	0c0a8a63          	beqz	x21,60001ee8 <calc_func+0x18c8>
60001e18:	02012783          	lw	x15,32(x2)
60001e1c:	001a9413          	slli	x8,x21,0x1
60001e20:	00012823          	sw	x0,16(x2)
60001e24:	00078d93          	mv	x27,x15
60001e28:	008784b3          	add	x9,x15,x8
60001e2c:	01012783          	lw	x15,16(x2)
60001e30:	00012c23          	sw	x0,24(x2)
60001e34:	00279a13          	slli	x20,x15,0x2
60001e38:	00412783          	lw	x15,4(x2)
60001e3c:	00c12c83          	lw	x25,12(x2)
60001e40:	00000d13          	li	x26,0
60001e44:	00fa0a33          	add	x20,x20,x15
60001e48:	000c8b13          	mv	x22,x25
60001e4c:	000d8b93          	mv	x23,x27
60001e50:	00000c13          	li	x24,0
60001e54:	000b1583          	lh	x11,0(x22)
60001e58:	000b9503          	lh	x10,0(x23)
60001e5c:	002b8b93          	addi	x23,x23,2
60001e60:	008b0b33          	add	x22,x22,x8
60001e64:	00001097          	auipc	x1,0x1
60001e68:	028080e7          	jalr	40(x1) # 60002e8c <__mulsi3>
60001e6c:	40255613          	srai	x12,x10,0x2
60001e70:	40555593          	srai	x11,x10,0x5
60001e74:	07f5f593          	andi	x11,x11,127
60001e78:	00f67513          	andi	x10,x12,15
60001e7c:	00001097          	auipc	x1,0x1
60001e80:	010080e7          	jalr	16(x1) # 60002e8c <__mulsi3>
60001e84:	00ac0c33          	add	x24,x24,x10
60001e88:	fc9b96e3          	bne	x23,x9,60001e54 <calc_func+0x1834>
60001e8c:	018a2023          	sw	x24,0(x20)
60001e90:	001d0713          	addi	x14,x26,1
60001e94:	004a0a13          	addi	x20,x20,4
60001e98:	002c8c93          	addi	x25,x25,2
60001e9c:	00ea8663          	beq	x21,x14,60001ea8 <calc_func+0x1888>
60001ea0:	00070d13          	mv	x26,x14
60001ea4:	fa5ff06f          	j	60001e48 <calc_func+0x1828>
60001ea8:	01012683          	lw	x13,16(x2)
60001eac:	01812783          	lw	x15,24(x2)
60001eb0:	008d8db3          	add	x27,x27,x8
60001eb4:	015686b3          	add	x13,x13,x21
60001eb8:	00d12823          	sw	x13,16(x2)
60001ebc:	00178713          	addi	x14,x15,1
60001ec0:	008b84b3          	add	x9,x23,x8
60001ec4:	55a78263          	beq	x15,x26,60002408 <calc_func+0x1de8>
60001ec8:	00e12c23          	sw	x14,24(x2)
60001ecc:	00068793          	mv	x15,x13
60001ed0:	f65ff06f          	j	60001e34 <calc_func+0x1814>
60001ed4:	01079713          	slli	x14,x15,0x10
60001ed8:	01075713          	srli	x14,x14,0x10
60001edc:	0ff7f793          	zext.b	x15,x15
60001ee0:	02f12423          	sw	x15,40(x2)
60001ee4:	00875713          	srli	x14,x14,0x8
60001ee8:	02812583          	lw	x11,40(x2)
60001eec:	02c12783          	lw	x15,44(x2)
60001ef0:	ffffa6b7          	lui	x13,0xffffa
60001ef4:	00168693          	addi	x13,x13,1 # ffffa001 <_stack_top+0x7fffa001>
60001ef8:	00f5c633          	xor	x12,x11,x15
60001efc:	00167613          	andi	x12,x12,1
60001f00:	40c00633          	neg	x12,x12
60001f04:	0017d793          	srli	x15,x15,0x1
60001f08:	00d67633          	and	x12,x12,x13
60001f0c:	00f64633          	xor	x12,x12,x15
60001f10:	01061613          	slli	x12,x12,0x10
60001f14:	01065613          	srli	x12,x12,0x10
60001f18:	0015d793          	srli	x15,x11,0x1
60001f1c:	00c7c7b3          	xor	x15,x15,x12
60001f20:	0017f793          	andi	x15,x15,1
60001f24:	40f007b3          	neg	x15,x15
60001f28:	00165613          	srli	x12,x12,0x1
60001f2c:	00d7f7b3          	and	x15,x15,x13
60001f30:	00c7c7b3          	xor	x15,x15,x12
60001f34:	01079793          	slli	x15,x15,0x10
60001f38:	0107d793          	srli	x15,x15,0x10
60001f3c:	0025d613          	srli	x12,x11,0x2
60001f40:	00f64633          	xor	x12,x12,x15
60001f44:	00167613          	andi	x12,x12,1
60001f48:	40c00633          	neg	x12,x12
60001f4c:	0017d793          	srli	x15,x15,0x1
60001f50:	00d67633          	and	x12,x12,x13
60001f54:	00f64633          	xor	x12,x12,x15
60001f58:	01061613          	slli	x12,x12,0x10
60001f5c:	01065613          	srli	x12,x12,0x10
60001f60:	0035d793          	srli	x15,x11,0x3
60001f64:	00c7c7b3          	xor	x15,x15,x12
60001f68:	0017f793          	andi	x15,x15,1
60001f6c:	40f007b3          	neg	x15,x15
60001f70:	00165613          	srli	x12,x12,0x1
60001f74:	00d7f7b3          	and	x15,x15,x13
60001f78:	00c7c7b3          	xor	x15,x15,x12
60001f7c:	01079793          	slli	x15,x15,0x10
60001f80:	0107d793          	srli	x15,x15,0x10
60001f84:	0045d613          	srli	x12,x11,0x4
60001f88:	00f64633          	xor	x12,x12,x15
60001f8c:	00167613          	andi	x12,x12,1
60001f90:	40c00633          	neg	x12,x12
60001f94:	0017d793          	srli	x15,x15,0x1
60001f98:	00d67633          	and	x12,x12,x13
60001f9c:	00f64633          	xor	x12,x12,x15
60001fa0:	01061613          	slli	x12,x12,0x10
60001fa4:	01065613          	srli	x12,x12,0x10
60001fa8:	0055d793          	srli	x15,x11,0x5
60001fac:	00c7c7b3          	xor	x15,x15,x12
60001fb0:	0017f793          	andi	x15,x15,1
60001fb4:	40f007b3          	neg	x15,x15
60001fb8:	00165613          	srli	x12,x12,0x1
60001fbc:	00d7f7b3          	and	x15,x15,x13
60001fc0:	00c7c7b3          	xor	x15,x15,x12
60001fc4:	01079793          	slli	x15,x15,0x10
60001fc8:	0107d793          	srli	x15,x15,0x10
60001fcc:	0065d613          	srli	x12,x11,0x6
60001fd0:	00f64633          	xor	x12,x12,x15
60001fd4:	00167613          	andi	x12,x12,1
60001fd8:	40c00633          	neg	x12,x12
60001fdc:	0017d793          	srli	x15,x15,0x1
60001fe0:	00d67633          	and	x12,x12,x13
60001fe4:	00f64633          	xor	x12,x12,x15
60001fe8:	01061613          	slli	x12,x12,0x10
60001fec:	01065613          	srli	x12,x12,0x10
60001ff0:	0075d793          	srli	x15,x11,0x7
60001ff4:	00c7c7b3          	xor	x15,x15,x12
60001ff8:	0017f793          	andi	x15,x15,1
60001ffc:	40f007b3          	neg	x15,x15
60002000:	00165613          	srli	x12,x12,0x1
60002004:	00d7f7b3          	and	x15,x15,x13
60002008:	00c7c7b3          	xor	x15,x15,x12
6000200c:	01079793          	slli	x15,x15,0x10
60002010:	0107d793          	srli	x15,x15,0x10
60002014:	00f74633          	xor	x12,x14,x15
60002018:	00167613          	andi	x12,x12,1
6000201c:	40c00633          	neg	x12,x12
60002020:	0017d793          	srli	x15,x15,0x1
60002024:	00d67633          	and	x12,x12,x13
60002028:	00f64633          	xor	x12,x12,x15
6000202c:	01061613          	slli	x12,x12,0x10
60002030:	01065613          	srli	x12,x12,0x10
60002034:	00175793          	srli	x15,x14,0x1
60002038:	00c7c7b3          	xor	x15,x15,x12
6000203c:	0017f793          	andi	x15,x15,1
60002040:	40f007b3          	neg	x15,x15
60002044:	00165613          	srli	x12,x12,0x1
60002048:	00d7f7b3          	and	x15,x15,x13
6000204c:	00c7c7b3          	xor	x15,x15,x12
60002050:	01079793          	slli	x15,x15,0x10
60002054:	0107d793          	srli	x15,x15,0x10
60002058:	00275613          	srli	x12,x14,0x2
6000205c:	00f64633          	xor	x12,x12,x15
60002060:	00167613          	andi	x12,x12,1
60002064:	40c00633          	neg	x12,x12
60002068:	0017d793          	srli	x15,x15,0x1
6000206c:	00d67633          	and	x12,x12,x13
60002070:	00f64633          	xor	x12,x12,x15
60002074:	01061613          	slli	x12,x12,0x10
60002078:	01065613          	srli	x12,x12,0x10
6000207c:	00375793          	srli	x15,x14,0x3
60002080:	00c7c7b3          	xor	x15,x15,x12
60002084:	0017f793          	andi	x15,x15,1
60002088:	40f007b3          	neg	x15,x15
6000208c:	00165613          	srli	x12,x12,0x1
60002090:	00d7f7b3          	and	x15,x15,x13
60002094:	00c7c7b3          	xor	x15,x15,x12
60002098:	01079793          	slli	x15,x15,0x10
6000209c:	0107d793          	srli	x15,x15,0x10
600020a0:	00475613          	srli	x12,x14,0x4
600020a4:	00f64633          	xor	x12,x12,x15
600020a8:	00167613          	andi	x12,x12,1
600020ac:	40c00633          	neg	x12,x12
600020b0:	0017d793          	srli	x15,x15,0x1
600020b4:	00d67633          	and	x12,x12,x13
600020b8:	00f64633          	xor	x12,x12,x15
600020bc:	01061613          	slli	x12,x12,0x10
600020c0:	01065613          	srli	x12,x12,0x10
600020c4:	00575793          	srli	x15,x14,0x5
600020c8:	00c7c7b3          	xor	x15,x15,x12
600020cc:	0017f793          	andi	x15,x15,1
600020d0:	40f007b3          	neg	x15,x15
600020d4:	00165613          	srli	x12,x12,0x1
600020d8:	00d7f7b3          	and	x15,x15,x13
600020dc:	00c7c7b3          	xor	x15,x15,x12
600020e0:	01079793          	slli	x15,x15,0x10
600020e4:	0107d793          	srli	x15,x15,0x10
600020e8:	00675613          	srli	x12,x14,0x6
600020ec:	00f64633          	xor	x12,x12,x15
600020f0:	00167613          	andi	x12,x12,1
600020f4:	40c00633          	neg	x12,x12
600020f8:	0017d793          	srli	x15,x15,0x1
600020fc:	00d67633          	and	x12,x12,x13
60002100:	00f64633          	xor	x12,x12,x15
60002104:	01061613          	slli	x12,x12,0x10
60002108:	01065613          	srli	x12,x12,0x10
6000210c:	00775793          	srli	x15,x14,0x7
60002110:	00c7c7b3          	xor	x15,x15,x12
60002114:	0017f793          	andi	x15,x15,1
60002118:	40f007b3          	neg	x15,x15
6000211c:	00d7f7b3          	and	x15,x15,x13
60002120:	00165613          	srli	x12,x12,0x1
60002124:	00c7c7b3          	xor	x15,x15,x12
60002128:	01079513          	slli	x10,x15,0x10
6000212c:	01055513          	srli	x10,x10,0x10
60002130:	040a8263          	beqz	x21,60002174 <calc_func+0x1b54>
60002134:	02012783          	lw	x15,32(x2)
60002138:	001a9813          	slli	x16,x21,0x1
6000213c:	415004b3          	neg	x9,x21
60002140:	010786b3          	add	x13,x15,x16
60002144:	00000593          	li	x11,0
60002148:	00249493          	slli	x9,x9,0x2
6000214c:	41068633          	sub	x12,x13,x16
60002150:	00060793          	mv	x15,x12
60002154:	0007d703          	lhu	x14,0(x15)
60002158:	00278793          	addi	x15,x15,2
6000215c:	41370733          	sub	x14,x14,x19
60002160:	fee79f23          	sh	x14,-2(x15)
60002164:	fef698e3          	bne	x13,x15,60002154 <calc_func+0x1b34>
60002168:	00158593          	addi	x11,x11,1
6000216c:	409606b3          	sub	x13,x12,x9
60002170:	fcba9ee3          	bne	x21,x11,6000214c <calc_func+0x1b2c>
60002174:	00812603          	lw	x12,8(x2)
60002178:	0ff57793          	zext.b	x15,x10
6000217c:	ffffa6b7          	lui	x13,0xffffa
60002180:	00c7c733          	xor	x14,x15,x12
60002184:	00177713          	andi	x14,x14,1
60002188:	00168693          	addi	x13,x13,1 # ffffa001 <_stack_top+0x7fffa001>
6000218c:	40e00733          	neg	x14,x14
60002190:	00165b13          	srli	x22,x12,0x1
60002194:	00d77733          	and	x14,x14,x13
60002198:	01674733          	xor	x14,x14,x22
6000219c:	01071713          	slli	x14,x14,0x10
600021a0:	01075713          	srli	x14,x14,0x10
600021a4:	0017d613          	srli	x12,x15,0x1
600021a8:	00e64633          	xor	x12,x12,x14
600021ac:	00167613          	andi	x12,x12,1
600021b0:	40c00633          	neg	x12,x12
600021b4:	00175713          	srli	x14,x14,0x1
600021b8:	00d67633          	and	x12,x12,x13
600021bc:	00e64633          	xor	x12,x12,x14
600021c0:	01061613          	slli	x12,x12,0x10
600021c4:	01065613          	srli	x12,x12,0x10
600021c8:	0027d713          	srli	x14,x15,0x2
600021cc:	00c74733          	xor	x14,x14,x12
600021d0:	00177713          	andi	x14,x14,1
600021d4:	40e00733          	neg	x14,x14
600021d8:	00165613          	srli	x12,x12,0x1
600021dc:	00d77733          	and	x14,x14,x13
600021e0:	00c74733          	xor	x14,x14,x12
600021e4:	01071713          	slli	x14,x14,0x10
600021e8:	01075713          	srli	x14,x14,0x10
600021ec:	0037d613          	srli	x12,x15,0x3
600021f0:	00e64633          	xor	x12,x12,x14
600021f4:	00167613          	andi	x12,x12,1
600021f8:	40c00633          	neg	x12,x12
600021fc:	00175713          	srli	x14,x14,0x1
60002200:	00d67633          	and	x12,x12,x13
60002204:	00e64633          	xor	x12,x12,x14
60002208:	01061613          	slli	x12,x12,0x10
6000220c:	01065613          	srli	x12,x12,0x10
60002210:	0047d713          	srli	x14,x15,0x4
60002214:	00c74733          	xor	x14,x14,x12
60002218:	00177713          	andi	x14,x14,1
6000221c:	40e00733          	neg	x14,x14
60002220:	00165613          	srli	x12,x12,0x1
60002224:	00d77733          	and	x14,x14,x13
60002228:	00c74733          	xor	x14,x14,x12
6000222c:	01071713          	slli	x14,x14,0x10
60002230:	01075713          	srli	x14,x14,0x10
60002234:	0057d613          	srli	x12,x15,0x5
60002238:	00e64633          	xor	x12,x12,x14
6000223c:	00167613          	andi	x12,x12,1
60002240:	40c00633          	neg	x12,x12
60002244:	00175713          	srli	x14,x14,0x1
60002248:	00d67633          	and	x12,x12,x13
6000224c:	00e64633          	xor	x12,x12,x14
60002250:	01061613          	slli	x12,x12,0x10
60002254:	01065613          	srli	x12,x12,0x10
60002258:	0067d713          	srli	x14,x15,0x6
6000225c:	00c74733          	xor	x14,x14,x12
60002260:	00177713          	andi	x14,x14,1
60002264:	40e00733          	neg	x14,x14
60002268:	00165613          	srli	x12,x12,0x1
6000226c:	00d77733          	and	x14,x14,x13
60002270:	00c74733          	xor	x14,x14,x12
60002274:	01071713          	slli	x14,x14,0x10
60002278:	01075713          	srli	x14,x14,0x10
6000227c:	0077d793          	srli	x15,x15,0x7
60002280:	00e7c7b3          	xor	x15,x15,x14
60002284:	0017f793          	andi	x15,x15,1
60002288:	40f007b3          	neg	x15,x15
6000228c:	00175713          	srli	x14,x14,0x1
60002290:	00d7f7b3          	and	x15,x15,x13
60002294:	00e7c7b3          	xor	x15,x15,x14
60002298:	01079793          	slli	x15,x15,0x10
6000229c:	00855713          	srli	x14,x10,0x8
600022a0:	0107d793          	srli	x15,x15,0x10
600022a4:	00f74633          	xor	x12,x14,x15
600022a8:	00167613          	andi	x12,x12,1
600022ac:	40c00633          	neg	x12,x12
600022b0:	00d67633          	and	x12,x12,x13
600022b4:	0017d793          	srli	x15,x15,0x1
600022b8:	00f647b3          	xor	x15,x12,x15
600022bc:	01079793          	slli	x15,x15,0x10
600022c0:	0107d793          	srli	x15,x15,0x10
600022c4:	00175613          	srli	x12,x14,0x1
600022c8:	00f64633          	xor	x12,x12,x15
600022cc:	00167613          	andi	x12,x12,1
600022d0:	40c00633          	neg	x12,x12
600022d4:	0017d793          	srli	x15,x15,0x1
600022d8:	00d67633          	and	x12,x12,x13
600022dc:	00f64633          	xor	x12,x12,x15
600022e0:	01061613          	slli	x12,x12,0x10
600022e4:	01065613          	srli	x12,x12,0x10
600022e8:	00275793          	srli	x15,x14,0x2
600022ec:	00c7c7b3          	xor	x15,x15,x12
600022f0:	0017f793          	andi	x15,x15,1
600022f4:	40f007b3          	neg	x15,x15
600022f8:	00165613          	srli	x12,x12,0x1
600022fc:	00d7f7b3          	and	x15,x15,x13
60002300:	00c7c7b3          	xor	x15,x15,x12
60002304:	01079793          	slli	x15,x15,0x10
60002308:	0107d793          	srli	x15,x15,0x10
6000230c:	00375613          	srli	x12,x14,0x3
60002310:	00f64633          	xor	x12,x12,x15
60002314:	00167613          	andi	x12,x12,1
60002318:	40c00633          	neg	x12,x12
6000231c:	0017d793          	srli	x15,x15,0x1
60002320:	00d67633          	and	x12,x12,x13
60002324:	00f64633          	xor	x12,x12,x15
60002328:	01061613          	slli	x12,x12,0x10
6000232c:	01065613          	srli	x12,x12,0x10
60002330:	00475793          	srli	x15,x14,0x4
60002334:	00c7c7b3          	xor	x15,x15,x12
60002338:	0017f793          	andi	x15,x15,1
6000233c:	40f007b3          	neg	x15,x15
60002340:	00165613          	srli	x12,x12,0x1
60002344:	00d7f7b3          	and	x15,x15,x13
60002348:	00c7c7b3          	xor	x15,x15,x12
6000234c:	01079793          	slli	x15,x15,0x10
60002350:	0107d793          	srli	x15,x15,0x10
60002354:	00575613          	srli	x12,x14,0x5
60002358:	00f64633          	xor	x12,x12,x15
6000235c:	00167613          	andi	x12,x12,1
60002360:	40c00633          	neg	x12,x12
60002364:	0017d793          	srli	x15,x15,0x1
60002368:	00d67633          	and	x12,x12,x13
6000236c:	00f64633          	xor	x12,x12,x15
60002370:	01061613          	slli	x12,x12,0x10
60002374:	01065613          	srli	x12,x12,0x10
60002378:	00675793          	srli	x15,x14,0x6
6000237c:	00c7c7b3          	xor	x15,x15,x12
60002380:	0017f793          	andi	x15,x15,1
60002384:	40f007b3          	neg	x15,x15
60002388:	00165613          	srli	x12,x12,0x1
6000238c:	00d7f7b3          	and	x15,x15,x13
60002390:	00c7c7b3          	xor	x15,x15,x12
60002394:	01079793          	slli	x15,x15,0x10
60002398:	0107d793          	srli	x15,x15,0x10
6000239c:	00775813          	srli	x16,x14,0x7
600023a0:	00f84833          	xor	x16,x16,x15
600023a4:	01412603          	lw	x12,20(x2)
600023a8:	00187813          	andi	x16,x16,1
600023ac:	41000833          	neg	x16,x16
600023b0:	0017d793          	srli	x15,x15,0x1
600023b4:	00d87833          	and	x16,x16,x13
600023b8:	00f84833          	xor	x16,x16,x15
600023bc:	03865783          	lhu	x15,56(x12)
600023c0:	03c65703          	lhu	x14,60(x12)
600023c4:	01081813          	slli	x16,x16,0x10
600023c8:	00f12423          	sw	x15,8(x2)
600023cc:	01085813          	srli	x16,x16,0x10
600023d0:	00071463          	bnez	x14,600023d8 <calc_func+0x1db8>
600023d4:	03061e23          	sh	x16,60(x12)
600023d8:	01081613          	slli	x12,x16,0x10
600023dc:	0b812403          	lw	x8,184(x2)
600023e0:	0b412483          	lw	x9,180(x2)
600023e4:	0b012903          	lw	x18,176(x2)
600023e8:	0a812a03          	lw	x20,168(x2)
600023ec:	0a412a83          	lw	x21,164(x2)
600023f0:	09812c03          	lw	x24,152(x2)
600023f4:	09412c83          	lw	x25,148(x2)
600023f8:	09012d03          	lw	x26,144(x2)
600023fc:	08c12d83          	lw	x27,140(x2)
60002400:	41065613          	srai	x12,x12,0x10
60002404:	b28fe06f          	j	6000072c <calc_func+0x10c>
60002408:	00412783          	lw	x15,4(x2)
6000240c:	415004b3          	neg	x9,x21
60002410:	002a9813          	slli	x16,x21,0x2
60002414:	01078833          	add	x16,x15,x16
60002418:	00249e13          	slli	x28,x9,0x2
6000241c:	00000793          	li	x15,0
60002420:	00000693          	li	x13,0
60002424:	00000593          	li	x11,0
60002428:	00000313          	li	x6,0
6000242c:	00349493          	slli	x9,x9,0x3
60002430:	010e08b3          	add	x17,x28,x16
60002434:	00088713          	mv	x14,x17
60002438:	0140006f          	j	6000244c <calc_func+0x1e2c>
6000243c:	01079793          	slli	x15,x15,0x10
60002440:	00470713          	addi	x14,x14,4
60002444:	4107d793          	srai	x15,x15,0x10
60002448:	02e80e63          	beq	x16,x14,60002484 <calc_func+0x1e64>
6000244c:	00068613          	mv	x12,x13
60002450:	00072683          	lw	x13,0(x14)
60002454:	01079793          	slli	x15,x15,0x10
60002458:	0107d793          	srli	x15,x15,0x10
6000245c:	00d62633          	slt	x12,x12,x13
60002460:	00d585b3          	add	x11,x11,x13
60002464:	00a78513          	addi	x10,x15,10
60002468:	00c787b3          	add	x15,x15,x12
6000246c:	fcb958e3          	bge	x18,x11,6000243c <calc_func+0x1e1c>
60002470:	01051793          	slli	x15,x10,0x10
60002474:	00470713          	addi	x14,x14,4
60002478:	4107d793          	srai	x15,x15,0x10
6000247c:	00000593          	li	x11,0
60002480:	fce816e3          	bne	x16,x14,6000244c <calc_func+0x1e2c>
60002484:	00130713          	addi	x14,x6,1
60002488:	40988833          	sub	x16,x17,x9
6000248c:	a46d04e3          	beq	x26,x6,60001ed4 <calc_func+0x18b4>
60002490:	00070313          	mv	x6,x14
60002494:	f9dff06f          	j	60002430 <calc_func+0x1e10>
60002498:	00412783          	lw	x15,4(x2)
6000249c:	415004b3          	neg	x9,x21
600024a0:	002a9813          	slli	x16,x21,0x2
600024a4:	01078833          	add	x16,x15,x16
600024a8:	00249e13          	slli	x28,x9,0x2
600024ac:	00000793          	li	x15,0
600024b0:	00000693          	li	x13,0
600024b4:	00000593          	li	x11,0
600024b8:	00000313          	li	x6,0
600024bc:	00349493          	slli	x9,x9,0x3
600024c0:	010e08b3          	add	x17,x28,x16
600024c4:	00088713          	mv	x14,x17
600024c8:	0140006f          	j	600024dc <calc_func+0x1ebc>
600024cc:	01079793          	slli	x15,x15,0x10
600024d0:	00470713          	addi	x14,x14,4
600024d4:	4107d793          	srai	x15,x15,0x10
600024d8:	03070e63          	beq	x14,x16,60002514 <calc_func+0x1ef4>
600024dc:	00068613          	mv	x12,x13
600024e0:	00072683          	lw	x13,0(x14)
600024e4:	01079793          	slli	x15,x15,0x10
600024e8:	0107d793          	srli	x15,x15,0x10
600024ec:	00d62633          	slt	x12,x12,x13
600024f0:	00d585b3          	add	x11,x11,x13
600024f4:	00a78513          	addi	x10,x15,10
600024f8:	00c787b3          	add	x15,x15,x12
600024fc:	fcb958e3          	bge	x18,x11,600024cc <calc_func+0x1eac>
60002500:	01051793          	slli	x15,x10,0x10
60002504:	00470713          	addi	x14,x14,4
60002508:	4107d793          	srai	x15,x15,0x10
6000250c:	00000593          	li	x11,0
60002510:	fd0716e3          	bne	x14,x16,600024dc <calc_func+0x1ebc>
60002514:	00130713          	addi	x14,x6,1
60002518:	40988833          	sub	x16,x17,x9
6000251c:	e86d0e63          	beq	x26,x6,60001bb8 <calc_func+0x1598>
60002520:	00070313          	mv	x6,x14
60002524:	f9dff06f          	j	600024c0 <calc_func+0x1ea0>
60002528:	00000713          	li	x14,0
6000252c:	00000793          	li	x15,0
60002530:	b94ff06f          	j	600018c4 <calc_func+0x12a4>
60002534:	00000793          	li	x15,0
60002538:	00000713          	li	x14,0
6000253c:	00000693          	li	x13,0
60002540:	8bcff06f          	j	600015fc <calc_func+0xfdc>
60002544:	01548ab3          	add	x21,x9,x21
60002548:	0154f463          	bgeu	x9,x21,60002550 <calc_func+0x1f30>
6000254c:	d44fe06f          	j	60000a90 <calc_func+0x470>
60002550:	00812503          	lw	x10,8(x2)
60002554:	dccfe06f          	j	60000b20 <calc_func+0x500>

60002558 <core_bench_list>:
60002558:	00451883          	lh	x17,4(x10)
6000255c:	fb010113          	addi	x2,x2,-80
60002560:	04812423          	sw	x8,72(x2)
60002564:	03412c23          	sw	x20,56(x2)
60002568:	03712623          	sw	x23,44(x2)
6000256c:	04112623          	sw	x1,76(x2)
60002570:	04912223          	sw	x9,68(x2)
60002574:	05212023          	sw	x18,64(x2)
60002578:	03312e23          	sw	x19,60(x2)
6000257c:	03512a23          	sw	x21,52(x2)
60002580:	03612823          	sw	x22,48(x2)
60002584:	03812423          	sw	x24,40(x2)
60002588:	03912223          	sw	x25,36(x2)
6000258c:	03a12023          	sw	x26,32(x2)
60002590:	01b12e23          	sw	x27,28(x2)
60002594:	00012623          	sw	x0,12(x2)
60002598:	02452403          	lw	x8,36(x10)
6000259c:	00050a13          	mv	x20,x10
600025a0:	00058b93          	mv	x23,x11
600025a4:	00058513          	mv	x10,x11
600025a8:	0d105ae3          	blez	x17,60002e7c <core_bench_list+0x924>
600025ac:	00000613          	li	x12,0
600025b0:	00000813          	li	x16,0
600025b4:	00000593          	li	x11,0
600025b8:	00000493          	li	x9,0
600025bc:	0ff67793          	zext.b	x15,x12
600025c0:	00f12623          	sw	x15,12(x2)
600025c4:	480bc663          	bltz	x23,60002a50 <core_bench_list+0x4f8>
600025c8:	0a040ee3          	beqz	x8,60002e84 <core_bench_list+0x92c>
600025cc:	00040793          	mv	x15,x8
600025d0:	00c0006f          	j	600025dc <core_bench_list+0x84>
600025d4:	0007a783          	lw	x15,0(x15)
600025d8:	00078863          	beqz	x15,600025e8 <core_bench_list+0x90>
600025dc:	0047a703          	lw	x14,4(x15)
600025e0:	00271703          	lh	x14,2(x14)
600025e4:	ff7718e3          	bne	x14,x23,600025d4 <core_bench_list+0x7c>
600025e8:	00000693          	li	x13,0
600025ec:	0080006f          	j	600025f4 <core_bench_list+0x9c>
600025f0:	00070413          	mv	x8,x14
600025f4:	00042703          	lw	x14,0(x8)
600025f8:	00d42023          	sw	x13,0(x8)
600025fc:	00040693          	mv	x13,x8
60002600:	fe0718e3          	bnez	x14,600025f0 <core_bench_list+0x98>
60002604:	46078a63          	beqz	x15,60002a78 <core_bench_list+0x520>
60002608:	0047a703          	lw	x14,4(x15)
6000260c:	00071703          	lh	x14,0(x14)
60002610:	00177693          	andi	x13,x14,1
60002614:	00068c63          	beqz	x13,6000262c <core_bench_list+0xd4>
60002618:	40975713          	srai	x14,x14,0x9
6000261c:	00177713          	andi	x14,x14,1
60002620:	00e48733          	add	x14,x9,x14
60002624:	01071493          	slli	x9,x14,0x10
60002628:	0104d493          	srli	x9,x9,0x10
6000262c:	0007a703          	lw	x14,0(x15)
60002630:	00070c63          	beqz	x14,60002648 <core_bench_list+0xf0>
60002634:	00072683          	lw	x13,0(x14)
60002638:	00d7a023          	sw	x13,0(x15)
6000263c:	00042783          	lw	x15,0(x8)
60002640:	00f72023          	sw	x15,0(x14)
60002644:	00e42023          	sw	x14,0(x8)
60002648:	00158793          	addi	x15,x11,1
6000264c:	01079593          	slli	x11,x15,0x10
60002650:	0105d593          	srli	x11,x11,0x10
60002654:	000bc863          	bltz	x23,60002664 <core_bench_list+0x10c>
60002658:	001b8b93          	addi	x23,x23,1
6000265c:	010b9b93          	slli	x23,x23,0x10
60002660:	410bdb93          	srai	x23,x23,0x10
60002664:	00160613          	addi	x12,x12,1
60002668:	01061613          	slli	x12,x12,0x10
6000266c:	41065613          	srai	x12,x12,0x10
60002670:	f4c896e3          	bne	x17,x12,600025bc <core_bench_list+0x64>
60002674:	00259793          	slli	x15,x11,0x2
60002678:	410787b3          	sub	x15,x15,x16
6000267c:	00f484b3          	add	x9,x9,x15
60002680:	01049493          	slli	x9,x9,0x10
60002684:	0104d493          	srli	x9,x9,0x10
60002688:	00100793          	li	x15,1
6000268c:	6ef50863          	beq	x10,x15,60002d7c <core_bench_list+0x824>
60002690:	00042783          	lw	x15,0(x8)
60002694:	00040693          	mv	x13,x8
60002698:	0007a803          	lw	x16,0(x15)
6000269c:	0047aa83          	lw	x21,4(x15)
600026a0:	00482603          	lw	x12,4(x16)
600026a4:	00082703          	lw	x14,0(x16)
600026a8:	00c7a223          	sw	x12,4(x15)
600026ac:	01582223          	sw	x21,4(x16)
600026b0:	00e7a023          	sw	x14,0(x15)
600026b4:	00082023          	sw	x0,0(x16)
600026b8:	380bc263          	bltz	x23,60002a3c <core_bench_list+0x4e4>
600026bc:	0046a783          	lw	x15,4(x13)
600026c0:	00279783          	lh	x15,2(x15)
600026c4:	01778c63          	beq	x15,x23,600026dc <core_bench_list+0x184>
600026c8:	0006a683          	lw	x13,0(x13)
600026cc:	78068c63          	beqz	x13,60002e64 <core_bench_list+0x90c>
600026d0:	0046a783          	lw	x15,4(x13)
600026d4:	00279783          	lh	x15,2(x15)
600026d8:	ff7798e3          	bne	x15,x23,600026c8 <core_bench_list+0x170>
600026dc:	00042503          	lw	x10,0(x8)
600026e0:	00442703          	lw	x14,4(x8)
600026e4:	ffffa7b7          	lui	x15,0xffffa
600026e8:	00178793          	addi	x15,x15,1 # ffffa001 <_stack_top+0x7fffa001>
600026ec:	00071603          	lh	x12,0(x14)
600026f0:	01061593          	slli	x11,x12,0x10
600026f4:	0105d593          	srli	x11,x11,0x10
600026f8:	0ff67613          	zext.b	x12,x12
600026fc:	0085d293          	srli	x5,x11,0x8
60002700:	0095df93          	srli	x31,x11,0x9
60002704:	00a5df13          	srli	x30,x11,0xa
60002708:	00b5de93          	srli	x29,x11,0xb
6000270c:	00c5de13          	srli	x28,x11,0xc
60002710:	00d5d313          	srli	x6,x11,0xd
60002714:	00e5d893          	srli	x17,x11,0xe
60002718:	00165c13          	srli	x24,x12,0x1
6000271c:	00265b93          	srli	x23,x12,0x2
60002720:	00365b13          	srli	x22,x12,0x3
60002724:	00465a13          	srli	x20,x12,0x4
60002728:	00565993          	srli	x19,x12,0x5
6000272c:	00665913          	srli	x18,x12,0x6
60002730:	00765393          	srli	x7,x12,0x7
60002734:	00f5d593          	srli	x11,x11,0xf
60002738:	00964733          	xor	x14,x12,x9
6000273c:	00177713          	andi	x14,x14,1
60002740:	40e00733          	neg	x14,x14
60002744:	0014d493          	srli	x9,x9,0x1
60002748:	00f77733          	and	x14,x14,x15
6000274c:	00974733          	xor	x14,x14,x9
60002750:	01071713          	slli	x14,x14,0x10
60002754:	01075713          	srli	x14,x14,0x10
60002758:	00ec44b3          	xor	x9,x24,x14
6000275c:	0014f493          	andi	x9,x9,1
60002760:	409004b3          	neg	x9,x9
60002764:	00175713          	srli	x14,x14,0x1
60002768:	00f4f4b3          	and	x9,x9,x15
6000276c:	00e4c4b3          	xor	x9,x9,x14
60002770:	01049493          	slli	x9,x9,0x10
60002774:	0104d493          	srli	x9,x9,0x10
60002778:	009bc733          	xor	x14,x23,x9
6000277c:	00177713          	andi	x14,x14,1
60002780:	40e00733          	neg	x14,x14
60002784:	0014d493          	srli	x9,x9,0x1
60002788:	00f77733          	and	x14,x14,x15
6000278c:	00974733          	xor	x14,x14,x9
60002790:	01071713          	slli	x14,x14,0x10
60002794:	01075713          	srli	x14,x14,0x10
60002798:	00eb44b3          	xor	x9,x22,x14
6000279c:	0014f493          	andi	x9,x9,1
600027a0:	409004b3          	neg	x9,x9
600027a4:	00175713          	srli	x14,x14,0x1
600027a8:	00f4f4b3          	and	x9,x9,x15
600027ac:	00e4c4b3          	xor	x9,x9,x14
600027b0:	01049493          	slli	x9,x9,0x10
600027b4:	0104d493          	srli	x9,x9,0x10
600027b8:	009a4733          	xor	x14,x20,x9
600027bc:	00177713          	andi	x14,x14,1
600027c0:	40e00733          	neg	x14,x14
600027c4:	0014d493          	srli	x9,x9,0x1
600027c8:	00f77733          	and	x14,x14,x15
600027cc:	00974733          	xor	x14,x14,x9
600027d0:	01071713          	slli	x14,x14,0x10
600027d4:	01075713          	srli	x14,x14,0x10
600027d8:	00e9c4b3          	xor	x9,x19,x14
600027dc:	0014f493          	andi	x9,x9,1
600027e0:	409004b3          	neg	x9,x9
600027e4:	00175713          	srli	x14,x14,0x1
600027e8:	00f4f4b3          	and	x9,x9,x15
600027ec:	00e4c4b3          	xor	x9,x9,x14
600027f0:	01049493          	slli	x9,x9,0x10
600027f4:	0104d493          	srli	x9,x9,0x10
600027f8:	00994733          	xor	x14,x18,x9
600027fc:	00177713          	andi	x14,x14,1
60002800:	40e00733          	neg	x14,x14
60002804:	0014d493          	srli	x9,x9,0x1
60002808:	00f77733          	and	x14,x14,x15
6000280c:	00974733          	xor	x14,x14,x9
60002810:	01071713          	slli	x14,x14,0x10
60002814:	01075713          	srli	x14,x14,0x10
60002818:	00e3c4b3          	xor	x9,x7,x14
6000281c:	0014f493          	andi	x9,x9,1
60002820:	409004b3          	neg	x9,x9
60002824:	00175713          	srli	x14,x14,0x1
60002828:	00f4f4b3          	and	x9,x9,x15
6000282c:	00e4c4b3          	xor	x9,x9,x14
60002830:	01049493          	slli	x9,x9,0x10
60002834:	0104d493          	srli	x9,x9,0x10
60002838:	0092c733          	xor	x14,x5,x9
6000283c:	00177713          	andi	x14,x14,1
60002840:	40e00733          	neg	x14,x14
60002844:	0014d493          	srli	x9,x9,0x1
60002848:	00f77733          	and	x14,x14,x15
6000284c:	00974733          	xor	x14,x14,x9
60002850:	01071713          	slli	x14,x14,0x10
60002854:	01075713          	srli	x14,x14,0x10
60002858:	00efc4b3          	xor	x9,x31,x14
6000285c:	0014f493          	andi	x9,x9,1
60002860:	409004b3          	neg	x9,x9
60002864:	00175713          	srli	x14,x14,0x1
60002868:	00f4f4b3          	and	x9,x9,x15
6000286c:	00e4c4b3          	xor	x9,x9,x14
60002870:	01049493          	slli	x9,x9,0x10
60002874:	0104d493          	srli	x9,x9,0x10
60002878:	009f4733          	xor	x14,x30,x9
6000287c:	00177713          	andi	x14,x14,1
60002880:	40e00733          	neg	x14,x14
60002884:	0014d493          	srli	x9,x9,0x1
60002888:	00f77733          	and	x14,x14,x15
6000288c:	00974733          	xor	x14,x14,x9
60002890:	01071713          	slli	x14,x14,0x10
60002894:	01075713          	srli	x14,x14,0x10
60002898:	00eec4b3          	xor	x9,x29,x14
6000289c:	0014f493          	andi	x9,x9,1
600028a0:	409004b3          	neg	x9,x9
600028a4:	00175713          	srli	x14,x14,0x1
600028a8:	00f4f4b3          	and	x9,x9,x15
600028ac:	00e4c4b3          	xor	x9,x9,x14
600028b0:	01049493          	slli	x9,x9,0x10
600028b4:	0104d493          	srli	x9,x9,0x10
600028b8:	009e4733          	xor	x14,x28,x9
600028bc:	00177713          	andi	x14,x14,1
600028c0:	40e00733          	neg	x14,x14
600028c4:	0014d493          	srli	x9,x9,0x1
600028c8:	00f77733          	and	x14,x14,x15
600028cc:	00974733          	xor	x14,x14,x9
600028d0:	01071713          	slli	x14,x14,0x10
600028d4:	01075713          	srli	x14,x14,0x10
600028d8:	00e344b3          	xor	x9,x6,x14
600028dc:	0014f493          	andi	x9,x9,1
600028e0:	409004b3          	neg	x9,x9
600028e4:	00175713          	srli	x14,x14,0x1
600028e8:	00f4f4b3          	and	x9,x9,x15
600028ec:	00e4c4b3          	xor	x9,x9,x14
600028f0:	01049493          	slli	x9,x9,0x10
600028f4:	0104d493          	srli	x9,x9,0x10
600028f8:	0098c733          	xor	x14,x17,x9
600028fc:	00177713          	andi	x14,x14,1
60002900:	40e00733          	neg	x14,x14
60002904:	0014d493          	srli	x9,x9,0x1
60002908:	00f77733          	and	x14,x14,x15
6000290c:	00974733          	xor	x14,x14,x9
60002910:	01071713          	slli	x14,x14,0x10
60002914:	01075713          	srli	x14,x14,0x10
60002918:	00e5c4b3          	xor	x9,x11,x14
6000291c:	0014f493          	andi	x9,x9,1
60002920:	409004b3          	neg	x9,x9
60002924:	00f4f4b3          	and	x9,x9,x15
60002928:	00175713          	srli	x14,x14,0x1
6000292c:	0006a683          	lw	x13,0(x13)
60002930:	00e4c4b3          	xor	x9,x9,x14
60002934:	01049493          	slli	x9,x9,0x10
60002938:	0104d493          	srli	x9,x9,0x10
6000293c:	de069ee3          	bnez	x13,60002738 <core_bench_list+0x1e0>
60002940:	00452703          	lw	x14,4(x10)
60002944:	00052783          	lw	x15,0(x10)
60002948:	00100e93          	li	x29,1
6000294c:	00e82223          	sw	x14,4(x16)
60002950:	01552223          	sw	x21,4(x10)
60002954:	00f82023          	sw	x15,0(x16)
60002958:	01052023          	sw	x16,0(x10)
6000295c:	00100293          	li	x5,1
60002960:	16040663          	beqz	x8,60002acc <core_bench_list+0x574>
60002964:	00000693          	li	x13,0
60002968:	00000f13          	li	x30,0
6000296c:	00000f93          	li	x31,0
60002970:	001f8f93          	addi	x31,x31,1
60002974:	00040713          	mv	x14,x8
60002978:	00000793          	li	x15,0
6000297c:	01d7d863          	bge	x15,x29,6000298c <core_bench_list+0x434>
60002980:	00072703          	lw	x14,0(x14)
60002984:	00178793          	addi	x15,x15,1
60002988:	fe071ae3          	bnez	x14,6000297c <core_bench_list+0x424>
6000298c:	00040613          	mv	x12,x8
60002990:	000e8593          	mv	x11,x29
60002994:	00070413          	mv	x8,x14
60002998:	06f05a63          	blez	x15,60002a0c <core_bench_list+0x4b4>
6000299c:	10058463          	beqz	x11,60002aa4 <core_bench_list+0x54c>
600029a0:	10040263          	beqz	x8,60002aa4 <core_bench_list+0x54c>
600029a4:	00462803          	lw	x16,4(x12)
600029a8:	00442503          	lw	x10,4(x8)
600029ac:	00081703          	lh	x14,0(x16)
600029b0:	00251303          	lh	x6,2(x10)
600029b4:	00281e03          	lh	x28,2(x16)
600029b8:	01071893          	slli	x17,x14,0x10
600029bc:	0108d893          	srli	x17,x17,0x10
600029c0:	f0077713          	andi	x14,x14,-256
600029c4:	0088d893          	srli	x17,x17,0x8
600029c8:	01176733          	or	x14,x14,x17
600029cc:	00e81023          	sh	x14,0(x16)
600029d0:	00051703          	lh	x14,0(x10)
600029d4:	01071813          	slli	x16,x14,0x10
600029d8:	01085813          	srli	x16,x16,0x10
600029dc:	f0077713          	andi	x14,x14,-256
600029e0:	00885813          	srli	x16,x16,0x8
600029e4:	01076733          	or	x14,x14,x16
600029e8:	00e51023          	sh	x14,0(x10)
600029ec:	0bc35c63          	bge	x6,x28,60002aa4 <core_bench_list+0x54c>
600029f0:	00040713          	mv	x14,x8
600029f4:	00042403          	lw	x8,0(x8)
600029f8:	fff58593          	addi	x11,x11,-1
600029fc:	02068663          	beqz	x13,60002a28 <core_bench_list+0x4d0>
60002a00:	00e6a023          	sw	x14,0(x13)
60002a04:	00070693          	mv	x13,x14
60002a08:	f8f04ae3          	bgtz	x15,6000299c <core_bench_list+0x444>
60002a0c:	0ab05463          	blez	x11,60002ab4 <core_bench_list+0x55c>
60002a10:	0a040463          	beqz	x8,60002ab8 <core_bench_list+0x560>
60002a14:	f80798e3          	bnez	x15,600029a4 <core_bench_list+0x44c>
60002a18:	00040713          	mv	x14,x8
60002a1c:	fff58593          	addi	x11,x11,-1
60002a20:	00042403          	lw	x8,0(x8)
60002a24:	fc069ee3          	bnez	x13,60002a00 <core_bench_list+0x4a8>
60002a28:	00070f13          	mv	x30,x14
60002a2c:	00070693          	mv	x13,x14
60002a30:	fd9ff06f          	j	60002a08 <core_bench_list+0x4b0>
60002a34:	0006a683          	lw	x13,0(x13)
60002a38:	42068663          	beqz	x13,60002e64 <core_bench_list+0x90c>
60002a3c:	0046a783          	lw	x15,4(x13)
60002a40:	00c12703          	lw	x14,12(x2)
60002a44:	0007c783          	lbu	x15,0(x15)
60002a48:	fef716e3          	bne	x14,x15,60002a34 <core_bench_list+0x4dc>
60002a4c:	c91ff06f          	j	600026dc <core_bench_list+0x184>
60002a50:	42040a63          	beqz	x8,60002e84 <core_bench_list+0x92c>
60002a54:	00040793          	mv	x15,x8
60002a58:	00c0006f          	j	60002a64 <core_bench_list+0x50c>
60002a5c:	0007a783          	lw	x15,0(x15)
60002a60:	b80784e3          	beqz	x15,600025e8 <core_bench_list+0x90>
60002a64:	0047a703          	lw	x14,4(x15)
60002a68:	00c12683          	lw	x13,12(x2)
60002a6c:	00074703          	lbu	x14,0(x14)
60002a70:	fee696e3          	bne	x13,x14,60002a5c <core_bench_list+0x504>
60002a74:	b75ff06f          	j	600025e8 <core_bench_list+0x90>
60002a78:	00042783          	lw	x15,0(x8)
60002a7c:	00180813          	addi	x16,x16,1
60002a80:	01081813          	slli	x16,x16,0x10
60002a84:	0047a783          	lw	x15,4(x15)
60002a88:	01085813          	srli	x16,x16,0x10
60002a8c:	00178783          	lb	x15,1(x15)
60002a90:	0017f793          	andi	x15,x15,1
60002a94:	00f487b3          	add	x15,x9,x15
60002a98:	01079493          	slli	x9,x15,0x10
60002a9c:	0104d493          	srli	x9,x9,0x10
60002aa0:	bb5ff06f          	j	60002654 <core_bench_list+0xfc>
60002aa4:	00060713          	mv	x14,x12
60002aa8:	fff78793          	addi	x15,x15,-1
60002aac:	00062603          	lw	x12,0(x12)
60002ab0:	f4dff06f          	j	600029fc <core_bench_list+0x4a4>
60002ab4:	ea041ee3          	bnez	x8,60002970 <core_bench_list+0x418>
60002ab8:	0006a023          	sw	x0,0(x13)
60002abc:	005f8c63          	beq	x31,x5,60002ad4 <core_bench_list+0x57c>
60002ac0:	000f0413          	mv	x8,x30
60002ac4:	001e9e93          	slli	x29,x29,0x1
60002ac8:	e8041ee3          	bnez	x8,60002964 <core_bench_list+0x40c>
60002acc:	00002023          	sw	x0,0(x0) # 0 <_start-0x60000000>
60002ad0:	00100073          	ebreak
60002ad4:	000f2503          	lw	x10,0(x30)
60002ad8:	26050263          	beqz	x10,60002d3c <core_bench_list+0x7e4>
60002adc:	004f2703          	lw	x14,4(x30)
60002ae0:	ffffa7b7          	lui	x15,0xffffa
60002ae4:	00178793          	addi	x15,x15,1 # ffffa001 <_stack_top+0x7fffa001>
60002ae8:	00071603          	lh	x12,0(x14)
60002aec:	01061593          	slli	x11,x12,0x10
60002af0:	0105d593          	srli	x11,x11,0x10
60002af4:	0ff67613          	zext.b	x12,x12
60002af8:	0085df93          	srli	x31,x11,0x8
60002afc:	0095df13          	srli	x30,x11,0x9
60002b00:	00a5de93          	srli	x29,x11,0xa
60002b04:	00b5de13          	srli	x28,x11,0xb
60002b08:	00c5d313          	srli	x6,x11,0xc
60002b0c:	00d5d893          	srli	x17,x11,0xd
60002b10:	00e5d813          	srli	x16,x11,0xe
60002b14:	00165a93          	srli	x21,x12,0x1
60002b18:	00265a13          	srli	x20,x12,0x2
60002b1c:	00365993          	srli	x19,x12,0x3
60002b20:	00465913          	srli	x18,x12,0x4
60002b24:	00565413          	srli	x8,x12,0x5
60002b28:	00665393          	srli	x7,x12,0x6
60002b2c:	00765293          	srli	x5,x12,0x7
60002b30:	00f5d593          	srli	x11,x11,0xf
60002b34:	00964733          	xor	x14,x12,x9
60002b38:	00177713          	andi	x14,x14,1
60002b3c:	40e00733          	neg	x14,x14
60002b40:	0014d493          	srli	x9,x9,0x1
60002b44:	00f77733          	and	x14,x14,x15
60002b48:	00974733          	xor	x14,x14,x9
60002b4c:	01071713          	slli	x14,x14,0x10
60002b50:	01075713          	srli	x14,x14,0x10
60002b54:	00eac6b3          	xor	x13,x21,x14
60002b58:	0016f693          	andi	x13,x13,1
60002b5c:	40d006b3          	neg	x13,x13
60002b60:	00175713          	srli	x14,x14,0x1
60002b64:	00f6f6b3          	and	x13,x13,x15
60002b68:	00e6c6b3          	xor	x13,x13,x14
60002b6c:	01069693          	slli	x13,x13,0x10
60002b70:	0106d693          	srli	x13,x13,0x10
60002b74:	00da4733          	xor	x14,x20,x13
60002b78:	00177713          	andi	x14,x14,1
60002b7c:	40e00733          	neg	x14,x14
60002b80:	0016d693          	srli	x13,x13,0x1
60002b84:	00f77733          	and	x14,x14,x15
60002b88:	00d74733          	xor	x14,x14,x13
60002b8c:	01071713          	slli	x14,x14,0x10
60002b90:	01075713          	srli	x14,x14,0x10
60002b94:	00e9c6b3          	xor	x13,x19,x14
60002b98:	0016f693          	andi	x13,x13,1
60002b9c:	40d006b3          	neg	x13,x13
60002ba0:	00175713          	srli	x14,x14,0x1
60002ba4:	00f6f6b3          	and	x13,x13,x15
60002ba8:	00e6c6b3          	xor	x13,x13,x14
60002bac:	01069693          	slli	x13,x13,0x10
60002bb0:	0106d693          	srli	x13,x13,0x10
60002bb4:	00d94733          	xor	x14,x18,x13
60002bb8:	00177713          	andi	x14,x14,1
60002bbc:	40e00733          	neg	x14,x14
60002bc0:	0016d693          	srli	x13,x13,0x1
60002bc4:	00f77733          	and	x14,x14,x15
60002bc8:	00d74733          	xor	x14,x14,x13
60002bcc:	01071713          	slli	x14,x14,0x10
60002bd0:	01075713          	srli	x14,x14,0x10
60002bd4:	00e446b3          	xor	x13,x8,x14
60002bd8:	0016f693          	andi	x13,x13,1
60002bdc:	40d006b3          	neg	x13,x13
60002be0:	00175713          	srli	x14,x14,0x1
60002be4:	00f6f6b3          	and	x13,x13,x15
60002be8:	00e6c6b3          	xor	x13,x13,x14
60002bec:	01069693          	slli	x13,x13,0x10
60002bf0:	0106d693          	srli	x13,x13,0x10
60002bf4:	00d3c733          	xor	x14,x7,x13
60002bf8:	00177713          	andi	x14,x14,1
60002bfc:	40e00733          	neg	x14,x14
60002c00:	0016d693          	srli	x13,x13,0x1
60002c04:	00f77733          	and	x14,x14,x15
60002c08:	00d74733          	xor	x14,x14,x13
60002c0c:	01071713          	slli	x14,x14,0x10
60002c10:	01075713          	srli	x14,x14,0x10
60002c14:	00e2c6b3          	xor	x13,x5,x14
60002c18:	0016f693          	andi	x13,x13,1
60002c1c:	40d006b3          	neg	x13,x13
60002c20:	00175713          	srli	x14,x14,0x1
60002c24:	00f6f6b3          	and	x13,x13,x15
60002c28:	00e6c6b3          	xor	x13,x13,x14
60002c2c:	01069693          	slli	x13,x13,0x10
60002c30:	0106d693          	srli	x13,x13,0x10
60002c34:	00dfc733          	xor	x14,x31,x13
60002c38:	00177713          	andi	x14,x14,1
60002c3c:	40e00733          	neg	x14,x14
60002c40:	0016d693          	srli	x13,x13,0x1
60002c44:	00f77733          	and	x14,x14,x15
60002c48:	00d74733          	xor	x14,x14,x13
60002c4c:	01071713          	slli	x14,x14,0x10
60002c50:	01075713          	srli	x14,x14,0x10
60002c54:	00ef46b3          	xor	x13,x30,x14
60002c58:	0016f693          	andi	x13,x13,1
60002c5c:	40d006b3          	neg	x13,x13
60002c60:	00175713          	srli	x14,x14,0x1
60002c64:	00f6f6b3          	and	x13,x13,x15
60002c68:	00e6c6b3          	xor	x13,x13,x14
60002c6c:	01069693          	slli	x13,x13,0x10
60002c70:	0106d693          	srli	x13,x13,0x10
60002c74:	00dec733          	xor	x14,x29,x13
60002c78:	00177713          	andi	x14,x14,1
60002c7c:	40e00733          	neg	x14,x14
60002c80:	0016d693          	srli	x13,x13,0x1
60002c84:	00f77733          	and	x14,x14,x15
60002c88:	00d74733          	xor	x14,x14,x13
60002c8c:	01071713          	slli	x14,x14,0x10
60002c90:	01075713          	srli	x14,x14,0x10
60002c94:	00ee46b3          	xor	x13,x28,x14
60002c98:	0016f693          	andi	x13,x13,1
60002c9c:	40d006b3          	neg	x13,x13
60002ca0:	00175713          	srli	x14,x14,0x1
60002ca4:	00f6f6b3          	and	x13,x13,x15
60002ca8:	00e6c6b3          	xor	x13,x13,x14
60002cac:	01069693          	slli	x13,x13,0x10
60002cb0:	0106d693          	srli	x13,x13,0x10
60002cb4:	00d34733          	xor	x14,x6,x13
60002cb8:	00177713          	andi	x14,x14,1
60002cbc:	40e00733          	neg	x14,x14
60002cc0:	0016d693          	srli	x13,x13,0x1
60002cc4:	00f77733          	and	x14,x14,x15
60002cc8:	00d74733          	xor	x14,x14,x13
60002ccc:	01071713          	slli	x14,x14,0x10
60002cd0:	01075713          	srli	x14,x14,0x10
60002cd4:	00e8c6b3          	xor	x13,x17,x14
60002cd8:	0016f693          	andi	x13,x13,1
60002cdc:	40d006b3          	neg	x13,x13
60002ce0:	00175713          	srli	x14,x14,0x1
60002ce4:	00f6f6b3          	and	x13,x13,x15
60002ce8:	00e6c6b3          	xor	x13,x13,x14
60002cec:	01069693          	slli	x13,x13,0x10
60002cf0:	0106d693          	srli	x13,x13,0x10
60002cf4:	00d84733          	xor	x14,x16,x13
60002cf8:	00177713          	andi	x14,x14,1
60002cfc:	40e00733          	neg	x14,x14
60002d00:	00f77733          	and	x14,x14,x15
60002d04:	0016d693          	srli	x13,x13,0x1
60002d08:	00d74733          	xor	x14,x14,x13
60002d0c:	01071713          	slli	x14,x14,0x10
60002d10:	01075713          	srli	x14,x14,0x10
60002d14:	00e5c4b3          	xor	x9,x11,x14
60002d18:	0014f493          	andi	x9,x9,1
60002d1c:	409004b3          	neg	x9,x9
60002d20:	00f4f4b3          	and	x9,x9,x15
60002d24:	00175713          	srli	x14,x14,0x1
60002d28:	00052503          	lw	x10,0(x10)
60002d2c:	00e4c4b3          	xor	x9,x9,x14
60002d30:	01049493          	slli	x9,x9,0x10
60002d34:	0104d493          	srli	x9,x9,0x10
60002d38:	de051ee3          	bnez	x10,60002b34 <core_bench_list+0x5dc>
60002d3c:	04c12083          	lw	x1,76(x2)
60002d40:	04812403          	lw	x8,72(x2)
60002d44:	04012903          	lw	x18,64(x2)
60002d48:	03c12983          	lw	x19,60(x2)
60002d4c:	03812a03          	lw	x20,56(x2)
60002d50:	03412a83          	lw	x21,52(x2)
60002d54:	03012b03          	lw	x22,48(x2)
60002d58:	02c12b83          	lw	x23,44(x2)
60002d5c:	02812c03          	lw	x24,40(x2)
60002d60:	02412c83          	lw	x25,36(x2)
60002d64:	02012d03          	lw	x26,32(x2)
60002d68:	01c12d83          	lw	x27,28(x2)
60002d6c:	00048513          	mv	x10,x9
60002d70:	04412483          	lw	x9,68(x2)
60002d74:	05010113          	addi	x2,x2,80
60002d78:	00008067          	ret
60002d7c:	00100a93          	li	x21,1
60002d80:	d40406e3          	beqz	x8,60002acc <core_bench_list+0x574>
60002d84:	00000993          	li	x19,0
60002d88:	00000b13          	li	x22,0
60002d8c:	00000c13          	li	x24,0
60002d90:	001c0c13          	addi	x24,x24,1
60002d94:	00040793          	mv	x15,x8
60002d98:	00000913          	li	x18,0
60002d9c:	01595863          	bge	x18,x21,60002dac <core_bench_list+0x854>
60002da0:	0007a783          	lw	x15,0(x15)
60002da4:	00190913          	addi	x18,x18,1 # fffff001 <_stack_top+0x7ffff001>
60002da8:	fe079ae3          	bnez	x15,60002d9c <core_bench_list+0x844>
60002dac:	00040c93          	mv	x25,x8
60002db0:	000a8d13          	mv	x26,x21
60002db4:	00078413          	mv	x8,x15
60002db8:	03205263          	blez	x18,60002ddc <core_bench_list+0x884>
60002dbc:	040d1463          	bnez	x26,60002e04 <core_bench_list+0x8ac>
60002dc0:	000c8793          	mv	x15,x25
60002dc4:	000cac83          	lw	x25,0(x25)
60002dc8:	fff90913          	addi	x18,x18,-1
60002dcc:	02098663          	beqz	x19,60002df8 <core_bench_list+0x8a0>
60002dd0:	00f9a023          	sw	x15,0(x19)
60002dd4:	00078993          	mv	x19,x15
60002dd8:	ff2042e3          	bgtz	x18,60002dbc <core_bench_list+0x864>
60002ddc:	07a05663          	blez	x26,60002e48 <core_bench_list+0x8f0>
60002de0:	06040663          	beqz	x8,60002e4c <core_bench_list+0x8f4>
60002de4:	02091263          	bnez	x18,60002e08 <core_bench_list+0x8b0>
60002de8:	00040793          	mv	x15,x8
60002dec:	fffd0d13          	addi	x26,x26,-1
60002df0:	00042403          	lw	x8,0(x8)
60002df4:	fc099ee3          	bnez	x19,60002dd0 <core_bench_list+0x878>
60002df8:	00078b13          	mv	x22,x15
60002dfc:	00078993          	mv	x19,x15
60002e00:	fd9ff06f          	j	60002dd8 <core_bench_list+0x880>
60002e04:	fa040ee3          	beqz	x8,60002dc0 <core_bench_list+0x868>
60002e08:	004ca503          	lw	x10,4(x25)
60002e0c:	00442d83          	lw	x27,4(x8)
60002e10:	000a0593          	mv	x11,x20
60002e14:	ffffe097          	auipc	x1,0xffffe
60002e18:	80c080e7          	jalr	-2036(x1) # 60000620 <calc_func>
60002e1c:	00050793          	mv	x15,x10
60002e20:	000a0593          	mv	x11,x20
60002e24:	000d8513          	mv	x10,x27
60002e28:	00078d93          	mv	x27,x15
60002e2c:	ffffd097          	auipc	x1,0xffffd
60002e30:	7f4080e7          	jalr	2036(x1) # 60000620 <calc_func>
60002e34:	f9b556e3          	bge	x10,x27,60002dc0 <core_bench_list+0x868>
60002e38:	00040793          	mv	x15,x8
60002e3c:	fffd0d13          	addi	x26,x26,-1
60002e40:	00042403          	lw	x8,0(x8)
60002e44:	f89ff06f          	j	60002dcc <core_bench_list+0x874>
60002e48:	f40414e3          	bnez	x8,60002d90 <core_bench_list+0x838>
60002e4c:	0009a023          	sw	x0,0(x19)
60002e50:	00100793          	li	x15,1
60002e54:	02fc0063          	beq	x24,x15,60002e74 <core_bench_list+0x91c>
60002e58:	001a9a93          	slli	x21,x21,0x1
60002e5c:	000b0413          	mv	x8,x22
60002e60:	f21ff06f          	j	60002d80 <core_bench_list+0x828>
60002e64:	00042503          	lw	x10,0(x8)
60002e68:	00050693          	mv	x13,x10
60002e6c:	86051ae3          	bnez	x10,600026e0 <core_bench_list+0x188>
60002e70:	ad1ff06f          	j	60002940 <core_bench_list+0x3e8>
60002e74:	000b0413          	mv	x8,x22
60002e78:	819ff06f          	j	60002690 <core_bench_list+0x138>
60002e7c:	00000493          	li	x9,0
60002e80:	809ff06f          	j	60002688 <core_bench_list+0x130>
60002e84:	00002783          	lw	x15,0(x0) # 0 <_start-0x60000000>
60002e88:	00100073          	ebreak

60002e8c <__mulsi3>:
60002e8c:	00050613          	mv	x12,x10
60002e90:	00000513          	li	x10,0
60002e94:	0015f693          	andi	x13,x11,1
60002e98:	00068463          	beqz	x13,60002ea0 <__mulsi3+0x14>
60002e9c:	00c50533          	add	x10,x10,x12
60002ea0:	0015d593          	srli	x11,x11,0x1
60002ea4:	00161613          	slli	x12,x12,0x1
60002ea8:	fe0596e3          	bnez	x11,60002e94 <__mulsi3+0x8>
60002eac:	00008067          	ret

60002eb0 <__divsi3>:
60002eb0:	06054063          	bltz	x10,60002f10 <__umodsi3+0x10>
60002eb4:	0605c663          	bltz	x11,60002f20 <__umodsi3+0x20>

60002eb8 <__hidden___udivsi3>:
60002eb8:	00058613          	mv	x12,x11
60002ebc:	00050593          	mv	x11,x10
60002ec0:	fff00513          	li	x10,-1
60002ec4:	02060c63          	beqz	x12,60002efc <__hidden___udivsi3+0x44>
60002ec8:	00100693          	li	x13,1
60002ecc:	00b67a63          	bgeu	x12,x11,60002ee0 <__hidden___udivsi3+0x28>
60002ed0:	00c05863          	blez	x12,60002ee0 <__hidden___udivsi3+0x28>
60002ed4:	00161613          	slli	x12,x12,0x1
60002ed8:	00169693          	slli	x13,x13,0x1
60002edc:	feb66ae3          	bltu	x12,x11,60002ed0 <__hidden___udivsi3+0x18>
60002ee0:	00000513          	li	x10,0
60002ee4:	00c5e663          	bltu	x11,x12,60002ef0 <__hidden___udivsi3+0x38>
60002ee8:	40c585b3          	sub	x11,x11,x12
60002eec:	00d56533          	or	x10,x10,x13
60002ef0:	0016d693          	srli	x13,x13,0x1
60002ef4:	00165613          	srli	x12,x12,0x1
60002ef8:	fe0696e3          	bnez	x13,60002ee4 <__hidden___udivsi3+0x2c>
60002efc:	00008067          	ret

60002f00 <__umodsi3>:
60002f00:	00008293          	mv	x5,x1
60002f04:	fb5ff0ef          	jal	60002eb8 <__hidden___udivsi3>
60002f08:	00058513          	mv	x10,x11
60002f0c:	00028067          	jr	x5
60002f10:	40a00533          	neg	x10,x10
60002f14:	00b04863          	bgtz	x11,60002f24 <__umodsi3+0x24>
60002f18:	40b005b3          	neg	x11,x11
60002f1c:	f9dff06f          	j	60002eb8 <__hidden___udivsi3>
60002f20:	40b005b3          	neg	x11,x11
60002f24:	00008293          	mv	x5,x1
60002f28:	f91ff0ef          	jal	60002eb8 <__hidden___udivsi3>
60002f2c:	40a00533          	neg	x10,x10
60002f30:	00028067          	jr	x5

60002f34 <__modsi3>:
60002f34:	00008293          	mv	x5,x1
60002f38:	0005ca63          	bltz	x11,60002f4c <__modsi3+0x18>
60002f3c:	00054c63          	bltz	x10,60002f54 <__modsi3+0x20>
60002f40:	f79ff0ef          	jal	60002eb8 <__hidden___udivsi3>
60002f44:	00058513          	mv	x10,x11
60002f48:	00028067          	jr	x5
60002f4c:	40b005b3          	neg	x11,x11
60002f50:	fe0558e3          	bgez	x10,60002f40 <__modsi3+0xc>
60002f54:	40a00533          	neg	x10,x10
60002f58:	f61ff0ef          	jal	60002eb8 <__hidden___udivsi3>
60002f5c:	40b00533          	neg	x10,x11
60002f60:	00028067          	jr	x5

60002f64 <main>:
60002f64:	00002697          	auipc	x13,0x2
60002f68:	b706a683          	lw	x13,-1168(x13) # 60004ad4 <seed1_volatile>
60002f6c:	00002717          	auipc	x14,0x2
60002f70:	b6472703          	lw	x14,-1180(x14) # 60004ad0 <seed2_volatile>
60002f74:	00001797          	auipc	x15,0x1
60002f78:	3847a783          	lw	x15,900(x15) # 600042f8 <seed3_volatile>
60002f7c:	01079793          	slli	x15,x15,0x10
60002f80:	f5010113          	addi	x2,x2,-176
60002f84:	00001597          	auipc	x11,0x1
60002f88:	3705a583          	lw	x11,880(x11) # 600042f4 <seed4_volatile>
60002f8c:	4107d793          	srai	x15,x15,0x10
60002f90:	00100613          	li	x12,1
60002f94:	09312e23          	sw	x19,156(x2)
60002f98:	0a112623          	sw	x1,172(x2)
60002f9c:	0a812423          	sw	x8,168(x2)
60002fa0:	0a912223          	sw	x9,164(x2)
60002fa4:	0b212023          	sw	x18,160(x2)
60002fa8:	09412c23          	sw	x20,152(x2)
60002fac:	09512a23          	sw	x21,148(x2)
60002fb0:	00b12a23          	sw	x11,20(x2)
60002fb4:	06c10723          	sb	x12,110(x2)
60002fb8:	02d11623          	sh	x13,44(x2)
60002fbc:	02e11723          	sh	x14,46(x2)
60002fc0:	02f11823          	sh	x15,48(x2)
60002fc4:	04b12423          	sw	x11,72(x2)
60002fc8:	00002997          	auipc	x19,0x2
60002fcc:	b049a983          	lw	x19,-1276(x19) # 60004acc <seed5_volatile>
60002fd0:	00099463          	bnez	x19,60002fd8 <main+0x74>
60002fd4:	00700993          	li	x19,7
60002fd8:	02c12703          	lw	x14,44(x2)
60002fdc:	05312623          	sw	x19,76(x2)
60002fe0:	32071e63          	bnez	x14,6000331c <main+0x3b8>
60002fe4:	34078863          	beqz	x15,60003334 <main+0x3d0>
60002fe8:	0029f413          	andi	x8,x19,2
60002fec:	0049f793          	andi	x15,x19,4
60002ff0:	00001a97          	auipc	x21,0x1
60002ff4:	30ca8a93          	addi	x21,x21,780 # 600042fc <static_memblk>
60002ff8:	0019f493          	andi	x9,x19,1
60002ffc:	00803933          	snez	x18,x8
60003000:	03512a23          	sw	x21,52(x2)
60003004:	06011623          	sh	x0,108(x2)
60003008:	00f12823          	sw	x15,16(x2)
6000300c:	00048993          	mv	x19,x9
60003010:	01248933          	add	x18,x9,x18
60003014:	04079e63          	bnez	x15,60003070 <main+0x10c>
60003018:	00090593          	mv	x11,x18
6000301c:	7d000513          	li	x10,2000
60003020:	00000097          	auipc	x1,0x0
60003024:	e98080e7          	jalr	-360(x1) # 60002eb8 <__hidden___udivsi3>
60003028:	04a12223          	sw	x10,68(x2)
6000302c:	00050a13          	mv	x20,x10
60003030:	00048463          	beqz	x9,60003038 <main+0xd4>
60003034:	18c0106f          	j	600041c0 <main+0x125c>
60003038:	54040263          	beqz	x8,6000357c <main+0x618>
6000303c:	09612823          	sw	x22,144(x2)
60003040:	09712623          	sw	x23,140(x2)
60003044:	09812423          	sw	x24,136(x2)
60003048:	09912223          	sw	x25,132(x2)
6000304c:	09a12023          	sw	x26,128(x2)
60003050:	07b12e23          	sw	x27,124(x2)
60003054:	409007b3          	neg	x15,x9
60003058:	0147f7b3          	and	x15,x15,x20
6000305c:	00fa87b3          	add	x15,x21,x15
60003060:	02f12e23          	sw	x15,60(x2)
60003064:	01012783          	lw	x15,16(x2)
60003068:	04078e63          	beqz	x15,600030c4 <main+0x160>
6000306c:	0400006f          	j	600030ac <main+0x148>
60003070:	00190593          	addi	x11,x18,1
60003074:	7d000513          	li	x10,2000
60003078:	09612823          	sw	x22,144(x2)
6000307c:	09712623          	sw	x23,140(x2)
60003080:	09812423          	sw	x24,136(x2)
60003084:	09912223          	sw	x25,132(x2)
60003088:	09a12023          	sw	x26,128(x2)
6000308c:	07b12e23          	sw	x27,124(x2)
60003090:	00000097          	auipc	x1,0x0
60003094:	e28080e7          	jalr	-472(x1) # 60002eb8 <__hidden___udivsi3>
60003098:	04a12223          	sw	x10,68(x2)
6000309c:	00050a13          	mv	x20,x10
600030a0:	00048463          	beqz	x9,600030a8 <main+0x144>
600030a4:	1340106f          	j	600041d8 <main+0x1274>
600030a8:	fa0416e3          	bnez	x8,60003054 <main+0xf0>
600030ac:	000a0593          	mv	x11,x20
600030b0:	00090513          	mv	x10,x18
600030b4:	00000097          	auipc	x1,0x0
600030b8:	dd8080e7          	jalr	-552(x1) # 60002e8c <__mulsi3>
600030bc:	00aa87b3          	add	x15,x21,x10
600030c0:	04f12023          	sw	x15,64(x2)
600030c4:	02c11783          	lh	x15,44(x2)
600030c8:	04012b03          	lw	x22,64(x2)
600030cc:	fffa0c93          	addi	x25,x20,-1
600030d0:	00f12223          	sw	x15,4(x2)
600030d4:	2a098a63          	beqz	x19,60003388 <main+0x424>
600030d8:	01400593          	li	x11,20
600030dc:	000a0513          	mv	x10,x20
600030e0:	00000097          	auipc	x1,0x0
600030e4:	dd8080e7          	jalr	-552(x1) # 60002eb8 <__hidden___udivsi3>
600030e8:	03812903          	lw	x18,56(x2)
600030ec:	ffe50513          	addi	x10,x10,-2
600030f0:	00351593          	slli	x11,x10,0x3
600030f4:	00b905b3          	add	x11,x18,x11
600030f8:	ffff87b7          	lui	x15,0xffff8
600030fc:	00092023          	sw	x0,0(x18)
60003100:	00b92223          	sw	x11,4(x18)
60003104:	08078793          	addi	x15,x15,128 # ffff8080 <_stack_top+0x7fff8080>
60003108:	00251e13          	slli	x28,x10,0x2
6000310c:	00f59023          	sh	x15,0(x11)
60003110:	00059123          	sh	x0,2(x11)
60003114:	01090713          	addi	x14,x18,16
60003118:	01c58e33          	add	x28,x11,x28
6000311c:	00890a93          	addi	x21,x18,8
60003120:	00458793          	addi	x15,x11,4
60003124:	36b772e3          	bgeu	x14,x11,60003c88 <main+0xd24>
60003128:	00858693          	addi	x13,x11,8
6000312c:	35c6fee3          	bgeu	x13,x28,60003c88 <main+0xd24>
60003130:	00f92623          	sw	x15,12(x18)
60003134:	ffff87b7          	lui	x15,0xffff8
60003138:	00092423          	sw	x0,8(x18)
6000313c:	01592023          	sw	x21,0(x18)
60003140:	fff00613          	li	x12,-1
60003144:	fff7c793          	not	x15,x15
60003148:	00c59223          	sh	x12,4(x11)
6000314c:	00f59323          	sh	x15,6(x11)
60003150:	ffff8eb7          	lui	x29,0xffff8
60003154:	00870893          	addi	x17,x14,8
60003158:	00415f03          	lhu	x30,4(x2)
6000315c:	00000613          	li	x12,0
60003160:	fffece93          	not	x29,x29
60003164:	06b8f263          	bgeu	x17,x11,600031c8 <main+0x264>
60003168:	00468313          	addi	x6,x13,4
6000316c:	01c36463          	bltu	x6,x28,60003174 <main+0x210>
60003170:	0780106f          	j	600041e8 <main+0x1284>
60003174:	01061813          	slli	x16,x12,0x10
60003178:	01085813          	srli	x16,x16,0x10
6000317c:	01e847b3          	xor	x15,x16,x30
60003180:	00379793          	slli	x15,x15,0x3
60003184:	00787813          	andi	x16,x16,7
60003188:	0787f793          	andi	x15,x15,120
6000318c:	01572023          	sw	x21,0(x14)
60003190:	0107e7b3          	or	x15,x15,x16
60003194:	00e92023          	sw	x14,0(x18)
60003198:	00879813          	slli	x16,x15,0x8
6000319c:	00d72223          	sw	x13,4(x14)
600031a0:	010787b3          	add	x15,x15,x16
600031a4:	00f69023          	sh	x15,0(x13)
600031a8:	01d69123          	sh	x29,2(x13)
600031ac:	00160613          	addi	x12,x12,1
600031b0:	2cc504e3          	beq	x10,x12,60003c78 <main+0xd14>
600031b4:	00070a93          	mv	x21,x14
600031b8:	00088713          	mv	x14,x17
600031bc:	00870893          	addi	x17,x14,8
600031c0:	00030693          	mv	x13,x6
600031c4:	fab8e2e3          	bltu	x17,x11,60003168 <main+0x204>
600031c8:	000aab83          	lw	x23,0(x21)
600031cc:	080b8063          	beqz	x23,6000324c <main+0x2e8>
600031d0:	00500593          	li	x11,5
600031d4:	00000097          	auipc	x1,0x0
600031d8:	ce4080e7          	jalr	-796(x1) # 60002eb8 <__hidden___udivsi3>
600031dc:	00050593          	mv	x11,x10
600031e0:	00004537          	lui	x10,0x4
600031e4:	20000793          	li	x15,512
600031e8:	fff50513          	addi	x10,x10,-1 # 3fff <_start-0x5fffc001>
600031ec:	0280006f          	j	60003214 <main+0x2b0>
600031f0:	000ba703          	lw	x14,0(x23)
600031f4:	10078793          	addi	x15,x15,256 # ffff8100 <_stack_top+0x7fff8100>
600031f8:	01361123          	sh	x19,2(x12)
600031fc:	01079793          	slli	x15,x15,0x10
60003200:	00198993          	addi	x19,x19,1
60003204:	0107d793          	srli	x15,x15,0x10
60003208:	04070263          	beqz	x14,6000324c <main+0x2e8>
6000320c:	000b8a93          	mv	x21,x23
60003210:	00070b93          	mv	x23,x14
60003214:	004aa603          	lw	x12,4(x21)
60003218:	fcb9ece3          	bltu	x19,x11,600031f0 <main+0x28c>
6000321c:	00412703          	lw	x14,4(x2)
60003220:	013746b3          	xor	x13,x14,x19
60003224:	7007f713          	andi	x14,x15,1792
60003228:	00e6e6b3          	or	x13,x13,x14
6000322c:	000ba703          	lw	x14,0(x23)
60003230:	00a6f6b3          	and	x13,x13,x10
60003234:	10078793          	addi	x15,x15,256
60003238:	01079793          	slli	x15,x15,0x10
6000323c:	00d61123          	sh	x13,2(x12)
60003240:	00198993          	addi	x19,x19,1
60003244:	0107d793          	srli	x15,x15,0x10
60003248:	fc0712e3          	bnez	x14,6000320c <main+0x2a8>
6000324c:	00100513          	li	x10,1
60003250:	00000593          	li	x11,0
60003254:	00000e13          	li	x28,0
60003258:	00000313          	li	x6,0
6000325c:	00100f13          	li	x30,1
60003260:	00130313          	addi	x6,x6,1
60003264:	00090793          	mv	x15,x18
60003268:	00000613          	li	x12,0
6000326c:	00a65863          	bge	x12,x10,6000327c <main+0x318>
60003270:	0007a783          	lw	x15,0(x15)
60003274:	00160613          	addi	x12,x12,1
60003278:	fe079ae3          	bnez	x15,6000326c <main+0x308>
6000327c:	00050713          	mv	x14,x10
60003280:	06c05a63          	blez	x12,600032f4 <main+0x390>
60003284:	0a070e63          	beqz	x14,60003340 <main+0x3dc>
60003288:	0a078c63          	beqz	x15,60003340 <main+0x3dc>
6000328c:	00492883          	lw	x17,4(x18)
60003290:	0047a803          	lw	x16,4(x15)
60003294:	00089683          	lh	x13,0(x17)
60003298:	00281e83          	lh	x29,2(x16)
6000329c:	00289f83          	lh	x31,2(x17)
600032a0:	01069293          	slli	x5,x13,0x10
600032a4:	0102d293          	srli	x5,x5,0x10
600032a8:	f006f693          	andi	x13,x13,-256
600032ac:	0082d293          	srli	x5,x5,0x8
600032b0:	0056e6b3          	or	x13,x13,x5
600032b4:	00d89023          	sh	x13,0(x17)
600032b8:	00081683          	lh	x13,0(x16)
600032bc:	01069893          	slli	x17,x13,0x10
600032c0:	0108d893          	srli	x17,x17,0x10
600032c4:	f006f693          	andi	x13,x13,-256
600032c8:	0088d893          	srli	x17,x17,0x8
600032cc:	0116e6b3          	or	x13,x13,x17
600032d0:	00d81023          	sh	x13,0(x16)
600032d4:	07fed663          	bge	x29,x31,60003340 <main+0x3dc>
600032d8:	00078693          	mv	x13,x15
600032dc:	0007a783          	lw	x15,0(x15)
600032e0:	fff70713          	addi	x14,x14,-1
600032e4:	02058663          	beqz	x11,60003310 <main+0x3ac>
600032e8:	00d5a023          	sw	x13,0(x11)
600032ec:	00068593          	mv	x11,x13
600032f0:	f8c04ae3          	bgtz	x12,60003284 <main+0x320>
600032f4:	04e05e63          	blez	x14,60003350 <main+0x3ec>
600032f8:	06078263          	beqz	x15,6000335c <main+0x3f8>
600032fc:	f80618e3          	bnez	x12,6000328c <main+0x328>
60003300:	00078693          	mv	x13,x15
60003304:	fff70713          	addi	x14,x14,-1
60003308:	0007a783          	lw	x15,0(x15)
6000330c:	fc059ee3          	bnez	x11,600032e8 <main+0x384>
60003310:	00068e13          	mv	x28,x13
60003314:	00068593          	mv	x11,x13
60003318:	fd9ff06f          	j	600032f0 <main+0x38c>
6000331c:	00100693          	li	x13,1
60003320:	ccd714e3          	bne	x14,x13,60002fe8 <main+0x84>
60003324:	cc0792e3          	bnez	x15,60002fe8 <main+0x84>
60003328:	341537b7          	lui	x15,0x34153
6000332c:	41578793          	addi	x15,x15,1045 # 34153415 <_start-0x2beacbeb>
60003330:	02f12623          	sw	x15,44(x2)
60003334:	06600793          	li	x15,102
60003338:	02f11823          	sh	x15,48(x2)
6000333c:	cadff06f          	j	60002fe8 <main+0x84>
60003340:	00090693          	mv	x13,x18
60003344:	fff60613          	addi	x12,x12,-1
60003348:	00092903          	lw	x18,0(x18)
6000334c:	f99ff06f          	j	600032e4 <main+0x380>
60003350:	00078663          	beqz	x15,6000335c <main+0x3f8>
60003354:	00078913          	mv	x18,x15
60003358:	f09ff06f          	j	60003260 <main+0x2fc>
6000335c:	0005a023          	sw	x0,0(x11)
60003360:	03e30263          	beq	x6,x30,60003384 <main+0x420>
60003364:	00151513          	slli	x10,x10,0x1
60003368:	0e0e0ae3          	beqz	x28,60003c5c <main+0xcf8>
6000336c:	000e0793          	mv	x15,x28
60003370:	00000593          	li	x11,0
60003374:	00000e13          	li	x28,0
60003378:	00000313          	li	x6,0
6000337c:	00078913          	mv	x18,x15
60003380:	ee1ff06f          	j	60003260 <main+0x2fc>
60003384:	05c12823          	sw	x28,80(x2)
60003388:	78041863          	bnez	x8,60003b18 <main+0xbb4>
6000338c:	01012783          	lw	x15,16(x2)
60003390:	1c078a63          	beqz	x15,60003564 <main+0x600>
60003394:	00412783          	lw	x15,4(x2)
60003398:	00700593          	li	x11,7
6000339c:	00000693          	li	x13,0
600033a0:	00178713          	addi	x14,x15,1
600033a4:	01071713          	slli	x14,x14,0x10
600033a8:	01075713          	srli	x14,x14,0x10
600033ac:	00375793          	srli	x15,x14,0x3
600033b0:	00777613          	andi	x12,x14,7
600033b4:	00001517          	auipc	x10,0x1
600033b8:	f0050513          	addi	x10,x10,-256 # 600042b4 <intpat>
600033bc:	00400813          	li	x16,4
600033c0:	00100893          	li	x17,1
600033c4:	02c00313          	li	x6,44
600033c8:	0037f793          	andi	x15,x15,3
600033cc:	08b60663          	beq	x12,x11,60003458 <main+0x4f4>
600033d0:	72c86263          	bltu	x16,x12,60003af4 <main+0xb90>
600033d4:	ffd60613          	addi	x12,x12,-3
600033d8:	01061613          	slli	x12,x12,0x10
600033dc:	00279793          	slli	x15,x15,0x2
600033e0:	01065613          	srli	x12,x12,0x10
600033e4:	00f507b3          	add	x15,x10,x15
600033e8:	68c8ec63          	bltu	x17,x12,60003a80 <main+0xb1c>
600033ec:	0107ae03          	lw	x28,16(x15)
600033f0:	00170713          	addi	x14,x14,1
600033f4:	01071713          	slli	x14,x14,0x10
600033f8:	00968e93          	addi	x29,x13,9
600033fc:	01075713          	srli	x14,x14,0x10
60003400:	079efc63          	bgeu	x29,x25,60003478 <main+0x514>
60003404:	00db07b3          	add	x15,x22,x13
60003408:	001e0613          	addi	x12,x28,1
6000340c:	40c78633          	sub	x12,x15,x12
60003410:	00363613          	sltiu	x12,x12,3
60003414:	040618e3          	bnez	x12,60003c64 <main+0xd00>
60003418:	00fe6633          	or	x12,x28,x15
6000341c:	00367613          	andi	x12,x12,3
60003420:	040612e3          	bnez	x12,60003c64 <main+0xd00>
60003424:	000e2f03          	lw	x30,0(x28)
60003428:	00800613          	li	x12,8
6000342c:	01e7a023          	sw	x30,0(x15)
60003430:	004e2e03          	lw	x28,4(x28)
60003434:	01c7a223          	sw	x28,4(x15)
60003438:	00cb07b3          	add	x15,x22,x12
6000343c:	00d787b3          	add	x15,x15,x13
60003440:	00678023          	sb	x6,0(x15)
60003444:	00777613          	andi	x12,x14,7
60003448:	00375793          	srli	x15,x14,0x3
6000344c:	000e8693          	mv	x13,x29
60003450:	0037f793          	andi	x15,x15,3
60003454:	f6b61ee3          	bne	x12,x11,600033d0 <main+0x46c>
60003458:	00279793          	slli	x15,x15,0x2
6000345c:	00170713          	addi	x14,x14,1
60003460:	00f507b3          	add	x15,x10,x15
60003464:	01071713          	slli	x14,x14,0x10
60003468:	00968e93          	addi	x29,x13,9
6000346c:	0307ae03          	lw	x28,48(x15)
60003470:	01075713          	srli	x14,x14,0x10
60003474:	f99ee8e3          	bltu	x29,x25,60003404 <main+0x4a0>
60003478:	0f46f663          	bgeu	x13,x20,60003564 <main+0x600>
6000347c:	00168613          	addi	x12,x13,1
60003480:	00060593          	mv	x11,x12
60003484:	40da0733          	sub	x14,x20,x13
60003488:	00ca3333          	sltu	x6,x20,x12
6000348c:	00100813          	li	x16,1
60003490:	00ca6463          	bltu	x20,x12,60003498 <main+0x534>
60003494:	00070813          	mv	x16,x14
60003498:	fff70713          	addi	x14,x14,-1
6000349c:	00db07b3          	add	x15,x22,x13
600034a0:	40f008b3          	neg	x17,x15
600034a4:	00673513          	sltiu	x10,x14,6
600034a8:	0038f713          	andi	x14,x17,3
600034ac:	06051463          	bnez	x10,60003514 <main+0x5b0>
600034b0:	06031263          	bnez	x6,60003514 <main+0x5b0>
600034b4:	7c070663          	beqz	x14,60003c80 <main+0xd1c>
600034b8:	00078023          	sb	x0,0(x15)
600034bc:	0028f893          	andi	x17,x17,2
600034c0:	02088263          	beqz	x17,600034e4 <main+0x580>
600034c4:	00cb0633          	add	x12,x22,x12
600034c8:	00060023          	sb	x0,0(x12)
600034cc:	00300793          	li	x15,3
600034d0:	00268593          	addi	x11,x13,2
600034d4:	00f71863          	bne	x14,x15,600034e4 <main+0x580>
600034d8:	00bb05b3          	add	x11,x22,x11
600034dc:	00058023          	sb	x0,0(x11)
600034e0:	00368593          	addi	x11,x13,3
600034e4:	40e80633          	sub	x12,x16,x14
600034e8:	00e687b3          	add	x15,x13,x14
600034ec:	00fb07b3          	add	x15,x22,x15
600034f0:	ffc67513          	andi	x10,x12,-4
600034f4:	00f50733          	add	x14,x10,x15
600034f8:	0007a023          	sw	x0,0(x15)
600034fc:	00478793          	addi	x15,x15,4
60003500:	fef71ce3          	bne	x14,x15,600034f8 <main+0x594>
60003504:	00b506b3          	add	x13,x10,x11
60003508:	04c50e63          	beq	x10,x12,60003564 <main+0x600>
6000350c:	00168613          	addi	x12,x13,1
60003510:	00db07b3          	add	x15,x22,x13
60003514:	00078023          	sb	x0,0(x15)
60003518:	05467663          	bgeu	x12,x20,60003564 <main+0x600>
6000351c:	00cb0633          	add	x12,x22,x12
60003520:	00060023          	sb	x0,0(x12)
60003524:	00268793          	addi	x15,x13,2
60003528:	0347fe63          	bgeu	x15,x20,60003564 <main+0x600>
6000352c:	00fb07b3          	add	x15,x22,x15
60003530:	00078023          	sb	x0,0(x15)
60003534:	00368793          	addi	x15,x13,3
60003538:	0347f663          	bgeu	x15,x20,60003564 <main+0x600>
6000353c:	00fb07b3          	add	x15,x22,x15
60003540:	00078023          	sb	x0,0(x15)
60003544:	00468793          	addi	x15,x13,4
60003548:	0147fe63          	bgeu	x15,x20,60003564 <main+0x600>
6000354c:	00fb07b3          	add	x15,x22,x15
60003550:	00078023          	sb	x0,0(x15)
60003554:	00568693          	addi	x13,x13,5
60003558:	0146f663          	bgeu	x13,x20,60003564 <main+0x600>
6000355c:	00db06b3          	add	x13,x22,x13
60003560:	00068023          	sb	x0,0(x13)
60003564:	09012b03          	lw	x22,144(x2)
60003568:	08c12b83          	lw	x23,140(x2)
6000356c:	08812c03          	lw	x24,136(x2)
60003570:	08412c83          	lw	x25,132(x2)
60003574:	08012d03          	lw	x26,128(x2)
60003578:	07c12d83          	lw	x27,124(x2)
6000357c:	01412783          	lw	x15,20(x2)
60003580:	72079063          	bnez	x15,60003ca0 <main+0xd3c>
60003584:	ffffa437          	lui	x8,0xffffa
60003588:	00100793          	li	x15,1
6000358c:	04f12423          	sw	x15,72(x2)
60003590:	02c10913          	addi	x18,x2,44
60003594:	00140413          	addi	x8,x8,1 # ffffa001 <_stack_top+0x7fffa001>
60003598:	04812703          	lw	x14,72(x2)
6000359c:	00271793          	slli	x15,x14,0x2
600035a0:	00e787b3          	add	x15,x15,x14
600035a4:	00179793          	slli	x15,x15,0x1
600035a8:	04f12423          	sw	x15,72(x2)
600035ac:	00102013          	slti	x0,x0,1
600035b0:	04812983          	lw	x19,72(x2)
600035b4:	06012223          	sw	x0,100(x2)
600035b8:	06012423          	sw	x0,104(x2)
600035bc:	00000493          	li	x9,0
600035c0:	4a098c63          	beqz	x19,60003a78 <main+0xb14>
600035c4:	00100593          	li	x11,1
600035c8:	00090513          	mv	x10,x18
600035cc:	fffff097          	auipc	x1,0xfffff
600035d0:	f8c080e7          	jalr	-116(x1) # 60002558 <core_bench_list>
600035d4:	06415603          	lhu	x12,100(x2)
600035d8:	0ff57793          	zext.b	x15,x10
600035dc:	0017d713          	srli	x14,x15,0x1
600035e0:	00c7c5b3          	xor	x11,x15,x12
600035e4:	0015f593          	andi	x11,x11,1
600035e8:	00165693          	srli	x13,x12,0x1
600035ec:	00058863          	beqz	x11,600035fc <main+0x698>
600035f0:	0086c6b3          	xor	x13,x13,x8
600035f4:	01069693          	slli	x13,x13,0x10
600035f8:	0106d693          	srli	x13,x13,0x10
600035fc:	00d74733          	xor	x14,x14,x13
60003600:	00177713          	andi	x14,x14,1
60003604:	40e00733          	neg	x14,x14
60003608:	0016d693          	srli	x13,x13,0x1
6000360c:	00877733          	and	x14,x14,x8
60003610:	00d74733          	xor	x14,x14,x13
60003614:	01071713          	slli	x14,x14,0x10
60003618:	01075713          	srli	x14,x14,0x10
6000361c:	0027d693          	srli	x13,x15,0x2
60003620:	00e6c6b3          	xor	x13,x13,x14
60003624:	0016f693          	andi	x13,x13,1
60003628:	40d006b3          	neg	x13,x13
6000362c:	00175713          	srli	x14,x14,0x1
60003630:	0086f6b3          	and	x13,x13,x8
60003634:	00e6c6b3          	xor	x13,x13,x14
60003638:	01069693          	slli	x13,x13,0x10
6000363c:	0106d693          	srli	x13,x13,0x10
60003640:	0037d713          	srli	x14,x15,0x3
60003644:	00d74733          	xor	x14,x14,x13
60003648:	00177713          	andi	x14,x14,1
6000364c:	40e00733          	neg	x14,x14
60003650:	0016d693          	srli	x13,x13,0x1
60003654:	00877733          	and	x14,x14,x8
60003658:	00d74733          	xor	x14,x14,x13
6000365c:	01071713          	slli	x14,x14,0x10
60003660:	01075713          	srli	x14,x14,0x10
60003664:	0047d693          	srli	x13,x15,0x4
60003668:	00e6c6b3          	xor	x13,x13,x14
6000366c:	0016f693          	andi	x13,x13,1
60003670:	40d006b3          	neg	x13,x13
60003674:	00175713          	srli	x14,x14,0x1
60003678:	0086f6b3          	and	x13,x13,x8
6000367c:	00e6c6b3          	xor	x13,x13,x14
60003680:	01069693          	slli	x13,x13,0x10
60003684:	0106d693          	srli	x13,x13,0x10
60003688:	0057d713          	srli	x14,x15,0x5
6000368c:	00d74733          	xor	x14,x14,x13
60003690:	00177713          	andi	x14,x14,1
60003694:	40e00733          	neg	x14,x14
60003698:	0016d693          	srli	x13,x13,0x1
6000369c:	00877733          	and	x14,x14,x8
600036a0:	00d74733          	xor	x14,x14,x13
600036a4:	01071713          	slli	x14,x14,0x10
600036a8:	01075713          	srli	x14,x14,0x10
600036ac:	0067d693          	srli	x13,x15,0x6
600036b0:	00e6c6b3          	xor	x13,x13,x14
600036b4:	0016f693          	andi	x13,x13,1
600036b8:	40d006b3          	neg	x13,x13
600036bc:	00175713          	srli	x14,x14,0x1
600036c0:	0086f6b3          	and	x13,x13,x8
600036c4:	00e6c6b3          	xor	x13,x13,x14
600036c8:	01069693          	slli	x13,x13,0x10
600036cc:	0106d693          	srli	x13,x13,0x10
600036d0:	0077d713          	srli	x14,x15,0x7
600036d4:	00d74733          	xor	x14,x14,x13
600036d8:	00177713          	andi	x14,x14,1
600036dc:	40e00733          	neg	x14,x14
600036e0:	0016d693          	srli	x13,x13,0x1
600036e4:	00877733          	and	x14,x14,x8
600036e8:	00d74733          	xor	x14,x14,x13
600036ec:	00855793          	srli	x15,x10,0x8
600036f0:	01071713          	slli	x14,x14,0x10
600036f4:	0ff7f793          	zext.b	x15,x15
600036f8:	01075713          	srli	x14,x14,0x10
600036fc:	00e7c6b3          	xor	x13,x15,x14
60003700:	0016f693          	andi	x13,x13,1
60003704:	40d006b3          	neg	x13,x13
60003708:	0086f6b3          	and	x13,x13,x8
6000370c:	00175713          	srli	x14,x14,0x1
60003710:	00e6c733          	xor	x14,x13,x14
60003714:	01071713          	slli	x14,x14,0x10
60003718:	01075713          	srli	x14,x14,0x10
6000371c:	0017d693          	srli	x13,x15,0x1
60003720:	00e6c6b3          	xor	x13,x13,x14
60003724:	0016f693          	andi	x13,x13,1
60003728:	40d006b3          	neg	x13,x13
6000372c:	00175713          	srli	x14,x14,0x1
60003730:	0086f6b3          	and	x13,x13,x8
60003734:	00e6c6b3          	xor	x13,x13,x14
60003738:	01069693          	slli	x13,x13,0x10
6000373c:	0106d693          	srli	x13,x13,0x10
60003740:	0027d713          	srli	x14,x15,0x2
60003744:	00d74733          	xor	x14,x14,x13
60003748:	00177713          	andi	x14,x14,1
6000374c:	40e00733          	neg	x14,x14
60003750:	0016d693          	srli	x13,x13,0x1
60003754:	00877733          	and	x14,x14,x8
60003758:	00d74733          	xor	x14,x14,x13
6000375c:	01071713          	slli	x14,x14,0x10
60003760:	01075713          	srli	x14,x14,0x10
60003764:	0037d693          	srli	x13,x15,0x3
60003768:	00e6c6b3          	xor	x13,x13,x14
6000376c:	0016f693          	andi	x13,x13,1
60003770:	40d006b3          	neg	x13,x13
60003774:	00175713          	srli	x14,x14,0x1
60003778:	0086f6b3          	and	x13,x13,x8
6000377c:	00e6c6b3          	xor	x13,x13,x14
60003780:	01069693          	slli	x13,x13,0x10
60003784:	0106d693          	srli	x13,x13,0x10
60003788:	0047d713          	srli	x14,x15,0x4
6000378c:	00d74733          	xor	x14,x14,x13
60003790:	00177713          	andi	x14,x14,1
60003794:	40e00733          	neg	x14,x14
60003798:	0016d693          	srli	x13,x13,0x1
6000379c:	00877733          	and	x14,x14,x8
600037a0:	00d74733          	xor	x14,x14,x13
600037a4:	01071713          	slli	x14,x14,0x10
600037a8:	01075713          	srli	x14,x14,0x10
600037ac:	0057d693          	srli	x13,x15,0x5
600037b0:	00e6c6b3          	xor	x13,x13,x14
600037b4:	0016f693          	andi	x13,x13,1
600037b8:	40d006b3          	neg	x13,x13
600037bc:	00175713          	srli	x14,x14,0x1
600037c0:	0086f6b3          	and	x13,x13,x8
600037c4:	00e6c6b3          	xor	x13,x13,x14
600037c8:	01069693          	slli	x13,x13,0x10
600037cc:	0106d693          	srli	x13,x13,0x10
600037d0:	0067d713          	srli	x14,x15,0x6
600037d4:	00d74733          	xor	x14,x14,x13
600037d8:	00177713          	andi	x14,x14,1
600037dc:	40e00733          	neg	x14,x14
600037e0:	0016d693          	srli	x13,x13,0x1
600037e4:	00877733          	and	x14,x14,x8
600037e8:	00d74733          	xor	x14,x14,x13
600037ec:	01071713          	slli	x14,x14,0x10
600037f0:	01075713          	srli	x14,x14,0x10
600037f4:	0077d793          	srli	x15,x15,0x7
600037f8:	00e7c7b3          	xor	x15,x15,x14
600037fc:	0017f793          	andi	x15,x15,1
60003800:	40f007b3          	neg	x15,x15
60003804:	00175713          	srli	x14,x14,0x1
60003808:	0087f7b3          	and	x15,x15,x8
6000380c:	00e7c7b3          	xor	x15,x15,x14
60003810:	fff00593          	li	x11,-1
60003814:	00090513          	mv	x10,x18
60003818:	06f11223          	sh	x15,100(x2)
6000381c:	fffff097          	auipc	x1,0xfffff
60003820:	d3c080e7          	jalr	-708(x1) # 60002558 <core_bench_list>
60003824:	06415603          	lhu	x12,100(x2)
60003828:	0ff57713          	zext.b	x14,x10
6000382c:	00175693          	srli	x13,x14,0x1
60003830:	00c745b3          	xor	x11,x14,x12
60003834:	0015f593          	andi	x11,x11,1
60003838:	00165793          	srli	x15,x12,0x1
6000383c:	00058863          	beqz	x11,6000384c <main+0x8e8>
60003840:	0087c7b3          	xor	x15,x15,x8
60003844:	01079793          	slli	x15,x15,0x10
60003848:	0107d793          	srli	x15,x15,0x10
6000384c:	00f6c6b3          	xor	x13,x13,x15
60003850:	0016f693          	andi	x13,x13,1
60003854:	40d006b3          	neg	x13,x13
60003858:	0017d793          	srli	x15,x15,0x1
6000385c:	0086f6b3          	and	x13,x13,x8
60003860:	00f6c6b3          	xor	x13,x13,x15
60003864:	01069693          	slli	x13,x13,0x10
60003868:	0106d693          	srli	x13,x13,0x10
6000386c:	00275793          	srli	x15,x14,0x2
60003870:	00d7c7b3          	xor	x15,x15,x13
60003874:	0017f793          	andi	x15,x15,1
60003878:	40f007b3          	neg	x15,x15
6000387c:	0016d693          	srli	x13,x13,0x1
60003880:	0087f7b3          	and	x15,x15,x8
60003884:	00d7c7b3          	xor	x15,x15,x13
60003888:	01079793          	slli	x15,x15,0x10
6000388c:	0107d793          	srli	x15,x15,0x10
60003890:	00375693          	srli	x13,x14,0x3
60003894:	00f6c6b3          	xor	x13,x13,x15
60003898:	0016f693          	andi	x13,x13,1
6000389c:	40d006b3          	neg	x13,x13
600038a0:	0017d793          	srli	x15,x15,0x1
600038a4:	0086f6b3          	and	x13,x13,x8
600038a8:	00f6c6b3          	xor	x13,x13,x15
600038ac:	01069693          	slli	x13,x13,0x10
600038b0:	0106d693          	srli	x13,x13,0x10
600038b4:	00475793          	srli	x15,x14,0x4
600038b8:	00d7c7b3          	xor	x15,x15,x13
600038bc:	0017f793          	andi	x15,x15,1
600038c0:	40f007b3          	neg	x15,x15
600038c4:	0016d693          	srli	x13,x13,0x1
600038c8:	0087f7b3          	and	x15,x15,x8
600038cc:	00d7c7b3          	xor	x15,x15,x13
600038d0:	01079793          	slli	x15,x15,0x10
600038d4:	0107d793          	srli	x15,x15,0x10
600038d8:	00575693          	srli	x13,x14,0x5
600038dc:	00f6c6b3          	xor	x13,x13,x15
600038e0:	0016f693          	andi	x13,x13,1
600038e4:	40d006b3          	neg	x13,x13
600038e8:	0017d793          	srli	x15,x15,0x1
600038ec:	0086f6b3          	and	x13,x13,x8
600038f0:	00f6c6b3          	xor	x13,x13,x15
600038f4:	01069693          	slli	x13,x13,0x10
600038f8:	0106d693          	srli	x13,x13,0x10
600038fc:	00675793          	srli	x15,x14,0x6
60003900:	00d7c7b3          	xor	x15,x15,x13
60003904:	0017f793          	andi	x15,x15,1
60003908:	40f007b3          	neg	x15,x15
6000390c:	0016d693          	srli	x13,x13,0x1
60003910:	0087f7b3          	and	x15,x15,x8
60003914:	00d7c7b3          	xor	x15,x15,x13
60003918:	01079793          	slli	x15,x15,0x10
6000391c:	0107d793          	srli	x15,x15,0x10
60003920:	00775713          	srli	x14,x14,0x7
60003924:	00f74733          	xor	x14,x14,x15
60003928:	00177713          	andi	x14,x14,1
6000392c:	40e00733          	neg	x14,x14
60003930:	0017d793          	srli	x15,x15,0x1
60003934:	00877733          	and	x14,x14,x8
60003938:	00f74733          	xor	x14,x14,x15
6000393c:	01071713          	slli	x14,x14,0x10
60003940:	00855793          	srli	x15,x10,0x8
60003944:	0ff7f793          	zext.b	x15,x15
60003948:	01075713          	srli	x14,x14,0x10
6000394c:	00e7c6b3          	xor	x13,x15,x14
60003950:	0016f693          	andi	x13,x13,1
60003954:	40d006b3          	neg	x13,x13
60003958:	0086f6b3          	and	x13,x13,x8
6000395c:	00175713          	srli	x14,x14,0x1
60003960:	00e6c733          	xor	x14,x13,x14
60003964:	01071713          	slli	x14,x14,0x10
60003968:	01075713          	srli	x14,x14,0x10
6000396c:	0017d693          	srli	x13,x15,0x1
60003970:	00e6c6b3          	xor	x13,x13,x14
60003974:	0016f693          	andi	x13,x13,1
60003978:	40d006b3          	neg	x13,x13
6000397c:	00175713          	srli	x14,x14,0x1
60003980:	0086f6b3          	and	x13,x13,x8
60003984:	00e6c6b3          	xor	x13,x13,x14
60003988:	01069693          	slli	x13,x13,0x10
6000398c:	0106d693          	srli	x13,x13,0x10
60003990:	0027d713          	srli	x14,x15,0x2
60003994:	00d74733          	xor	x14,x14,x13
60003998:	00177713          	andi	x14,x14,1
6000399c:	40e00733          	neg	x14,x14
600039a0:	0016d693          	srli	x13,x13,0x1
600039a4:	00877733          	and	x14,x14,x8
600039a8:	00d74733          	xor	x14,x14,x13
600039ac:	01071713          	slli	x14,x14,0x10
600039b0:	01075713          	srli	x14,x14,0x10
600039b4:	0037d693          	srli	x13,x15,0x3
600039b8:	00e6c6b3          	xor	x13,x13,x14
600039bc:	0016f693          	andi	x13,x13,1
600039c0:	40d006b3          	neg	x13,x13
600039c4:	00175713          	srli	x14,x14,0x1
600039c8:	0086f6b3          	and	x13,x13,x8
600039cc:	00e6c6b3          	xor	x13,x13,x14
600039d0:	01069693          	slli	x13,x13,0x10
600039d4:	0106d693          	srli	x13,x13,0x10
600039d8:	0047d713          	srli	x14,x15,0x4
600039dc:	00d74733          	xor	x14,x14,x13
600039e0:	00177713          	andi	x14,x14,1
600039e4:	40e00733          	neg	x14,x14
600039e8:	0016d693          	srli	x13,x13,0x1
600039ec:	00877733          	and	x14,x14,x8
600039f0:	00d74733          	xor	x14,x14,x13
600039f4:	01071713          	slli	x14,x14,0x10
600039f8:	01075713          	srli	x14,x14,0x10
600039fc:	0057d693          	srli	x13,x15,0x5
60003a00:	00e6c6b3          	xor	x13,x13,x14
60003a04:	0016f693          	andi	x13,x13,1
60003a08:	40d006b3          	neg	x13,x13
60003a0c:	00175713          	srli	x14,x14,0x1
60003a10:	0086f6b3          	and	x13,x13,x8
60003a14:	00e6c6b3          	xor	x13,x13,x14
60003a18:	01069693          	slli	x13,x13,0x10
60003a1c:	0106d693          	srli	x13,x13,0x10
60003a20:	0067d713          	srli	x14,x15,0x6
60003a24:	00d74733          	xor	x14,x14,x13
60003a28:	00177713          	andi	x14,x14,1
60003a2c:	40e00733          	neg	x14,x14
60003a30:	00877733          	and	x14,x14,x8
60003a34:	0016d693          	srli	x13,x13,0x1
60003a38:	00d74733          	xor	x14,x14,x13
60003a3c:	01071713          	slli	x14,x14,0x10
60003a40:	01075713          	srli	x14,x14,0x10
60003a44:	0077d793          	srli	x15,x15,0x7
60003a48:	00e7c7b3          	xor	x15,x15,x14
60003a4c:	0017f793          	andi	x15,x15,1
60003a50:	40f007b3          	neg	x15,x15
60003a54:	0087f7b3          	and	x15,x15,x8
60003a58:	00175713          	srli	x14,x14,0x1
60003a5c:	00e7c7b3          	xor	x15,x15,x14
60003a60:	01079793          	slli	x15,x15,0x10
60003a64:	0107d793          	srli	x15,x15,0x10
60003a68:	06f11223          	sh	x15,100(x2)
60003a6c:	08048c63          	beqz	x9,60003b04 <main+0xba0>
60003a70:	00148493          	addi	x9,x9,1
60003a74:	b49998e3          	bne	x19,x9,600035c4 <main+0x660>
60003a78:	00202013          	slti	x0,x0,2
60003a7c:	b1dff06f          	j	60003598 <main+0x634>
60003a80:	00170713          	addi	x14,x14,1
60003a84:	01071713          	slli	x14,x14,0x10
60003a88:	00568e93          	addi	x29,x13,5
60003a8c:	0007ae03          	lw	x28,0(x15)
60003a90:	00168f13          	addi	x30,x13,1
60003a94:	01075713          	srli	x14,x14,0x10
60003a98:	9f9ef0e3          	bgeu	x29,x25,60003478 <main+0x514>
60003a9c:	000e4f83          	lbu	x31,0(x28)
60003aa0:	00db07b3          	add	x15,x22,x13
60003aa4:	00400613          	li	x12,4
60003aa8:	01f78023          	sb	x31,0(x15)
60003aac:	001e4f83          	lbu	x31,1(x28)
60003ab0:	01eb0f33          	add	x30,x22,x30
60003ab4:	01ff0023          	sb	x31,0(x30)
60003ab8:	002e4f03          	lbu	x30,2(x28)
60003abc:	01e78123          	sb	x30,2(x15)
60003ac0:	003e4f03          	lbu	x30,3(x28)
60003ac4:	01e781a3          	sb	x30,3(x15)
60003ac8:	970608e3          	beq	x12,x16,60003438 <main+0x4d4>
60003acc:	004e4f03          	lbu	x30,4(x28)
60003ad0:	00800613          	li	x12,8
60003ad4:	01e78223          	sb	x30,4(x15)
60003ad8:	005e4f03          	lbu	x30,5(x28)
60003adc:	01e782a3          	sb	x30,5(x15)
60003ae0:	006e4f03          	lbu	x30,6(x28)
60003ae4:	01e78323          	sb	x30,6(x15)
60003ae8:	007e4e03          	lbu	x28,7(x28)
60003aec:	01c783a3          	sb	x28,7(x15)
60003af0:	949ff06f          	j	60003438 <main+0x4d4>
60003af4:	00279793          	slli	x15,x15,0x2
60003af8:	00f507b3          	add	x15,x10,x15
60003afc:	0207ae03          	lw	x28,32(x15)
60003b00:	8f1ff06f          	j	600033f0 <main+0x48c>
60003b04:	06f11323          	sh	x15,102(x2)
60003b08:	00100793          	li	x15,1
60003b0c:	f6f986e3          	beq	x19,x15,60003a78 <main+0xb14>
60003b10:	00100493          	li	x9,1
60003b14:	ab1ff06f          	j	600035c4 <main+0x660>
60003b18:	02e11783          	lh	x15,46(x2)
60003b1c:	00412703          	lw	x14,4(x2)
60003b20:	03c12903          	lw	x18,60(x2)
60003b24:	01079793          	slli	x15,x15,0x10
60003b28:	00e7e4b3          	or	x9,x15,x14
60003b2c:	00049463          	bnez	x9,60003b34 <main+0xbd0>
60003b30:	00100493          	li	x9,1
60003b34:	00000413          	li	x8,0
60003b38:	00040a93          	mv	x21,x8
60003b3c:	00140413          	addi	x8,x8,1
60003b40:	00040593          	mv	x11,x8
60003b44:	00040513          	mv	x10,x8
60003b48:	fffff097          	auipc	x1,0xfffff
60003b4c:	344080e7          	jalr	836(x1) # 60002e8c <__mulsi3>
60003b50:	00351713          	slli	x14,x10,0x3
60003b54:	ff4762e3          	bltu	x14,x20,60003b38 <main+0xbd4>
60003b58:	fff90713          	addi	x14,x18,-1
60003b5c:	ffc77713          	andi	x14,x14,-4
60003b60:	00470793          	addi	x15,x14,4
60003b64:	000a8593          	mv	x11,x21
60003b68:	000a8513          	mv	x10,x21
60003b6c:	00078913          	mv	x18,x15
60003b70:	00f12c23          	sw	x15,24(x2)
60003b74:	fffff097          	auipc	x1,0xfffff
60003b78:	318080e7          	jalr	792(x1) # 60002e8c <__mulsi3>
60003b7c:	00151713          	slli	x14,x10,0x1
60003b80:	00e12623          	sw	x14,12(x2)
60003b84:	00e90733          	add	x14,x18,x14
60003b88:	00e12e23          	sw	x14,28(x2)
60003b8c:	100a8663          	beqz	x21,60003c98 <main+0xd34>
60003b90:	001a9693          	slli	x13,x21,0x1
60003b94:	40e909b3          	sub	x19,x18,x14
60003b98:	00010937          	lui	x18,0x10
60003b9c:	00d12423          	sw	x13,8(x2)
60003ba0:	00070c13          	mv	x24,x14
60003ba4:	00100d93          	li	x27,1
60003ba8:	00000b93          	li	x23,0
60003bac:	fff90913          	addi	x18,x18,-1 # ffff <_start-0x5fff0001>
60003bb0:	01b12023          	sw	x27,0(x2)
60003bb4:	000c0d13          	mv	x26,x24
60003bb8:	000d8593          	mv	x11,x27
60003bbc:	00048513          	mv	x10,x9
60003bc0:	fffff097          	auipc	x1,0xfffff
60003bc4:	2cc080e7          	jalr	716(x1) # 60002e8c <__mulsi3>
60003bc8:	41f55693          	srai	x13,x10,0x1f
60003bcc:	0106d693          	srli	x13,x13,0x10
60003bd0:	00d507b3          	add	x15,x10,x13
60003bd4:	010d9713          	slli	x14,x27,0x10
60003bd8:	0127f7b3          	and	x15,x15,x18
60003bdc:	01075713          	srli	x14,x14,0x10
60003be0:	40d784b3          	sub	x9,x15,x13
60003be4:	009706b3          	add	x13,x14,x9
60003be8:	01069693          	slli	x13,x13,0x10
60003bec:	0106d693          	srli	x13,x13,0x10
60003bf0:	00d70733          	add	x14,x14,x13
60003bf4:	00dd1023          	sh	x13,0(x26)
60003bf8:	0ff77713          	zext.b	x14,x14
60003bfc:	01a986b3          	add	x13,x19,x26
60003c00:	00e69023          	sh	x14,0(x13)
60003c04:	001d8d93          	addi	x27,x27,1
60003c08:	002d0d13          	addi	x26,x26,2
60003c0c:	fa8d96e3          	bne	x27,x8,60003bb8 <main+0xc54>
60003c10:	00012783          	lw	x15,0(x2)
60003c14:	001b8b93          	addi	x23,x23,1
60003c18:	01540433          	add	x8,x8,x21
60003c1c:	00fa8db3          	add	x27,x21,x15
60003c20:	00812783          	lw	x15,8(x2)
60003c24:	00fc0c33          	add	x24,x24,x15
60003c28:	f95b94e3          	bne	x23,x21,60003bb0 <main+0xc4c>
60003c2c:	01c12703          	lw	x14,28(x2)
60003c30:	00c12783          	lw	x15,12(x2)
60003c34:	01812683          	lw	x13,24(x2)
60003c38:	04e12e23          	sw	x14,92(x2)
60003c3c:	00f707b3          	add	x15,x14,x15
60003c40:	fff78793          	addi	x15,x15,-1
60003c44:	ffc7f793          	andi	x15,x15,-4
60003c48:	00478793          	addi	x15,x15,4
60003c4c:	04d12c23          	sw	x13,88(x2)
60003c50:	06f12023          	sw	x15,96(x2)
60003c54:	05512a23          	sw	x21,84(x2)
60003c58:	f34ff06f          	j	6000338c <main+0x428>
60003c5c:	00002023          	sw	x0,0(x0) # 0 <_start-0x60000000>
60003c60:	00100073          	ebreak
60003c64:	000e4f83          	lbu	x31,0(x28)
60003c68:	00168f13          	addi	x30,x13,1
60003c6c:	00800613          	li	x12,8
60003c70:	01f78023          	sb	x31,0(x15)
60003c74:	e39ff06f          	j	60003aac <main+0xb48>
60003c78:	00070a93          	mv	x21,x14
60003c7c:	d4cff06f          	j	600031c8 <main+0x264>
60003c80:	00068593          	mv	x11,x13
60003c84:	861ff06f          	j	600034e4 <main+0x580>
60003c88:	000a8713          	mv	x14,x21
60003c8c:	00078693          	mv	x13,x15
60003c90:	00000a93          	li	x21,0
60003c94:	cbcff06f          	j	60003150 <main+0x1ec>
60003c98:	00012623          	sw	x0,12(x2)
60003c9c:	f91ff06f          	j	60003c2c <main+0xcc8>
60003ca0:	00102013          	slti	x0,x0,1
60003ca4:	04812983          	lw	x19,72(x2)
60003ca8:	ffffa437          	lui	x8,0xffffa
60003cac:	06012223          	sw	x0,100(x2)
60003cb0:	06012423          	sw	x0,104(x2)
60003cb4:	00000493          	li	x9,0
60003cb8:	02c10913          	addi	x18,x2,44
60003cbc:	00140413          	addi	x8,x8,1 # ffffa001 <_stack_top+0x7fffa001>
60003cc0:	4c098063          	beqz	x19,60004180 <main+0x121c>
60003cc4:	00100593          	li	x11,1
60003cc8:	00090513          	mv	x10,x18
60003ccc:	fffff097          	auipc	x1,0xfffff
60003cd0:	88c080e7          	jalr	-1908(x1) # 60002558 <core_bench_list>
60003cd4:	06415683          	lhu	x13,100(x2)
60003cd8:	0ff57793          	zext.b	x15,x10
60003cdc:	00050613          	mv	x12,x10
60003ce0:	00d7c533          	xor	x10,x15,x13
60003ce4:	00157513          	andi	x10,x10,1
60003ce8:	0017d713          	srli	x14,x15,0x1
60003cec:	0016d593          	srli	x11,x13,0x1
60003cf0:	00050863          	beqz	x10,60003d00 <main+0xd9c>
60003cf4:	0085c6b3          	xor	x13,x11,x8
60003cf8:	01069593          	slli	x11,x13,0x10
60003cfc:	0105d593          	srli	x11,x11,0x10
60003d00:	00b74733          	xor	x14,x14,x11
60003d04:	00177713          	andi	x14,x14,1
60003d08:	40e00733          	neg	x14,x14
60003d0c:	0015d593          	srli	x11,x11,0x1
60003d10:	00877733          	and	x14,x14,x8
60003d14:	00b74733          	xor	x14,x14,x11
60003d18:	01071713          	slli	x14,x14,0x10
60003d1c:	01075713          	srli	x14,x14,0x10
60003d20:	0027d693          	srli	x13,x15,0x2
60003d24:	00e6c6b3          	xor	x13,x13,x14
60003d28:	0016f693          	andi	x13,x13,1
60003d2c:	40d006b3          	neg	x13,x13
60003d30:	00175713          	srli	x14,x14,0x1
60003d34:	0086f6b3          	and	x13,x13,x8
60003d38:	00e6c6b3          	xor	x13,x13,x14
60003d3c:	01069693          	slli	x13,x13,0x10
60003d40:	0106d693          	srli	x13,x13,0x10
60003d44:	0037d713          	srli	x14,x15,0x3
60003d48:	00d74733          	xor	x14,x14,x13
60003d4c:	00177713          	andi	x14,x14,1
60003d50:	40e00733          	neg	x14,x14
60003d54:	0016d693          	srli	x13,x13,0x1
60003d58:	00877733          	and	x14,x14,x8
60003d5c:	00d74733          	xor	x14,x14,x13
60003d60:	01071713          	slli	x14,x14,0x10
60003d64:	01075713          	srli	x14,x14,0x10
60003d68:	0047d693          	srli	x13,x15,0x4
60003d6c:	00e6c6b3          	xor	x13,x13,x14
60003d70:	0016f693          	andi	x13,x13,1
60003d74:	40d006b3          	neg	x13,x13
60003d78:	00175713          	srli	x14,x14,0x1
60003d7c:	0086f6b3          	and	x13,x13,x8
60003d80:	00e6c6b3          	xor	x13,x13,x14
60003d84:	01069693          	slli	x13,x13,0x10
60003d88:	0106d693          	srli	x13,x13,0x10
60003d8c:	0057d713          	srli	x14,x15,0x5
60003d90:	00d74733          	xor	x14,x14,x13
60003d94:	00177713          	andi	x14,x14,1
60003d98:	40e00733          	neg	x14,x14
60003d9c:	0016d693          	srli	x13,x13,0x1
60003da0:	00877733          	and	x14,x14,x8
60003da4:	00d74733          	xor	x14,x14,x13
60003da8:	01071713          	slli	x14,x14,0x10
60003dac:	01075713          	srli	x14,x14,0x10
60003db0:	0067d693          	srli	x13,x15,0x6
60003db4:	00e6c6b3          	xor	x13,x13,x14
60003db8:	0016f693          	andi	x13,x13,1
60003dbc:	40d006b3          	neg	x13,x13
60003dc0:	00175713          	srli	x14,x14,0x1
60003dc4:	0086f6b3          	and	x13,x13,x8
60003dc8:	00e6c6b3          	xor	x13,x13,x14
60003dcc:	01069693          	slli	x13,x13,0x10
60003dd0:	0106d693          	srli	x13,x13,0x10
60003dd4:	0077d713          	srli	x14,x15,0x7
60003dd8:	00d74733          	xor	x14,x14,x13
60003ddc:	00177713          	andi	x14,x14,1
60003de0:	40e00733          	neg	x14,x14
60003de4:	0016d693          	srli	x13,x13,0x1
60003de8:	00877733          	and	x14,x14,x8
60003dec:	00d74733          	xor	x14,x14,x13
60003df0:	00865793          	srli	x15,x12,0x8
60003df4:	01071713          	slli	x14,x14,0x10
60003df8:	0ff7f793          	zext.b	x15,x15
60003dfc:	01075713          	srli	x14,x14,0x10
60003e00:	00e7c6b3          	xor	x13,x15,x14
60003e04:	0016f693          	andi	x13,x13,1
60003e08:	40d006b3          	neg	x13,x13
60003e0c:	0086f6b3          	and	x13,x13,x8
60003e10:	00175713          	srli	x14,x14,0x1
60003e14:	00e6c733          	xor	x14,x13,x14
60003e18:	01071713          	slli	x14,x14,0x10
60003e1c:	01075713          	srli	x14,x14,0x10
60003e20:	0017d693          	srli	x13,x15,0x1
60003e24:	00e6c6b3          	xor	x13,x13,x14
60003e28:	0016f693          	andi	x13,x13,1
60003e2c:	40d006b3          	neg	x13,x13
60003e30:	00175713          	srli	x14,x14,0x1
60003e34:	0086f6b3          	and	x13,x13,x8
60003e38:	00e6c6b3          	xor	x13,x13,x14
60003e3c:	01069693          	slli	x13,x13,0x10
60003e40:	0106d693          	srli	x13,x13,0x10
60003e44:	0027d713          	srli	x14,x15,0x2
60003e48:	00d74733          	xor	x14,x14,x13
60003e4c:	00177713          	andi	x14,x14,1
60003e50:	40e00733          	neg	x14,x14
60003e54:	0016d693          	srli	x13,x13,0x1
60003e58:	00877733          	and	x14,x14,x8
60003e5c:	00d74733          	xor	x14,x14,x13
60003e60:	01071713          	slli	x14,x14,0x10
60003e64:	01075713          	srli	x14,x14,0x10
60003e68:	0037d693          	srli	x13,x15,0x3
60003e6c:	00e6c6b3          	xor	x13,x13,x14
60003e70:	0016f693          	andi	x13,x13,1
60003e74:	40d006b3          	neg	x13,x13
60003e78:	00175713          	srli	x14,x14,0x1
60003e7c:	0086f6b3          	and	x13,x13,x8
60003e80:	00e6c6b3          	xor	x13,x13,x14
60003e84:	01069693          	slli	x13,x13,0x10
60003e88:	0106d693          	srli	x13,x13,0x10
60003e8c:	0047d713          	srli	x14,x15,0x4
60003e90:	00d74733          	xor	x14,x14,x13
60003e94:	00177713          	andi	x14,x14,1
60003e98:	40e00733          	neg	x14,x14
60003e9c:	0016d693          	srli	x13,x13,0x1
60003ea0:	00877733          	and	x14,x14,x8
60003ea4:	00d74733          	xor	x14,x14,x13
60003ea8:	01071713          	slli	x14,x14,0x10
60003eac:	01075713          	srli	x14,x14,0x10
60003eb0:	0057d693          	srli	x13,x15,0x5
60003eb4:	00e6c6b3          	xor	x13,x13,x14
60003eb8:	0016f693          	andi	x13,x13,1
60003ebc:	40d006b3          	neg	x13,x13
60003ec0:	00175713          	srli	x14,x14,0x1
60003ec4:	0086f6b3          	and	x13,x13,x8
60003ec8:	00e6c6b3          	xor	x13,x13,x14
60003ecc:	01069693          	slli	x13,x13,0x10
60003ed0:	0106d693          	srli	x13,x13,0x10
60003ed4:	0067d713          	srli	x14,x15,0x6
60003ed8:	00d74733          	xor	x14,x14,x13
60003edc:	00177713          	andi	x14,x14,1
60003ee0:	40e00733          	neg	x14,x14
60003ee4:	0016d693          	srli	x13,x13,0x1
60003ee8:	00877733          	and	x14,x14,x8
60003eec:	00d74733          	xor	x14,x14,x13
60003ef0:	01071713          	slli	x14,x14,0x10
60003ef4:	01075713          	srli	x14,x14,0x10
60003ef8:	0077d793          	srli	x15,x15,0x7
60003efc:	00e7c7b3          	xor	x15,x15,x14
60003f00:	0017f793          	andi	x15,x15,1
60003f04:	40f007b3          	neg	x15,x15
60003f08:	00175713          	srli	x14,x14,0x1
60003f0c:	0087f7b3          	and	x15,x15,x8
60003f10:	00e7c7b3          	xor	x15,x15,x14
60003f14:	fff00593          	li	x11,-1
60003f18:	00090513          	mv	x10,x18
60003f1c:	06f11223          	sh	x15,100(x2)
60003f20:	ffffe097          	auipc	x1,0xffffe
60003f24:	638080e7          	jalr	1592(x1) # 60002558 <core_bench_list>
60003f28:	06415783          	lhu	x15,100(x2)
60003f2c:	0ff57713          	zext.b	x14,x10
60003f30:	00050613          	mv	x12,x10
60003f34:	00f74533          	xor	x10,x14,x15
60003f38:	00157513          	andi	x10,x10,1
60003f3c:	00175693          	srli	x13,x14,0x1
60003f40:	0017d593          	srli	x11,x15,0x1
60003f44:	00050863          	beqz	x10,60003f54 <main+0xff0>
60003f48:	0085c7b3          	xor	x15,x11,x8
60003f4c:	01079593          	slli	x11,x15,0x10
60003f50:	0105d593          	srli	x11,x11,0x10
60003f54:	00b6c6b3          	xor	x13,x13,x11
60003f58:	0016f693          	andi	x13,x13,1
60003f5c:	40d006b3          	neg	x13,x13
60003f60:	0086f6b3          	and	x13,x13,x8
60003f64:	0015d593          	srli	x11,x11,0x1
60003f68:	00b6c6b3          	xor	x13,x13,x11
60003f6c:	01069693          	slli	x13,x13,0x10
60003f70:	0106d693          	srli	x13,x13,0x10
60003f74:	00275793          	srli	x15,x14,0x2
60003f78:	00d7c7b3          	xor	x15,x15,x13
60003f7c:	0017f793          	andi	x15,x15,1
60003f80:	40f007b3          	neg	x15,x15
60003f84:	0016d693          	srli	x13,x13,0x1
60003f88:	0087f7b3          	and	x15,x15,x8
60003f8c:	00d7c7b3          	xor	x15,x15,x13
60003f90:	01079793          	slli	x15,x15,0x10
60003f94:	0107d793          	srli	x15,x15,0x10
60003f98:	00375693          	srli	x13,x14,0x3
60003f9c:	00f6c6b3          	xor	x13,x13,x15
60003fa0:	0016f693          	andi	x13,x13,1
60003fa4:	40d006b3          	neg	x13,x13
60003fa8:	0017d793          	srli	x15,x15,0x1
60003fac:	0086f6b3          	and	x13,x13,x8
60003fb0:	00f6c6b3          	xor	x13,x13,x15
60003fb4:	01069693          	slli	x13,x13,0x10
60003fb8:	0106d693          	srli	x13,x13,0x10
60003fbc:	00475793          	srli	x15,x14,0x4
60003fc0:	00d7c7b3          	xor	x15,x15,x13
60003fc4:	0017f793          	andi	x15,x15,1
60003fc8:	40f007b3          	neg	x15,x15
60003fcc:	0016d693          	srli	x13,x13,0x1
60003fd0:	0087f7b3          	and	x15,x15,x8
60003fd4:	00d7c7b3          	xor	x15,x15,x13
60003fd8:	01079793          	slli	x15,x15,0x10
60003fdc:	0107d793          	srli	x15,x15,0x10
60003fe0:	00575693          	srli	x13,x14,0x5
60003fe4:	00f6c6b3          	xor	x13,x13,x15
60003fe8:	0016f693          	andi	x13,x13,1
60003fec:	40d006b3          	neg	x13,x13
60003ff0:	0017d793          	srli	x15,x15,0x1
60003ff4:	0086f6b3          	and	x13,x13,x8
60003ff8:	00f6c6b3          	xor	x13,x13,x15
60003ffc:	01069693          	slli	x13,x13,0x10
60004000:	0106d693          	srli	x13,x13,0x10
60004004:	00675793          	srli	x15,x14,0x6
60004008:	00d7c7b3          	xor	x15,x15,x13
6000400c:	0017f793          	andi	x15,x15,1
60004010:	40f007b3          	neg	x15,x15
60004014:	0016d693          	srli	x13,x13,0x1
60004018:	0087f7b3          	and	x15,x15,x8
6000401c:	00d7c7b3          	xor	x15,x15,x13
60004020:	01079793          	slli	x15,x15,0x10
60004024:	0107d793          	srli	x15,x15,0x10
60004028:	00775713          	srli	x14,x14,0x7
6000402c:	00f74733          	xor	x14,x14,x15
60004030:	00177713          	andi	x14,x14,1
60004034:	40e00733          	neg	x14,x14
60004038:	0017d793          	srli	x15,x15,0x1
6000403c:	00877733          	and	x14,x14,x8
60004040:	00f74733          	xor	x14,x14,x15
60004044:	01071713          	slli	x14,x14,0x10
60004048:	00865793          	srli	x15,x12,0x8
6000404c:	0ff7f793          	zext.b	x15,x15
60004050:	01075713          	srli	x14,x14,0x10
60004054:	00e7c6b3          	xor	x13,x15,x14
60004058:	0016f693          	andi	x13,x13,1
6000405c:	40d006b3          	neg	x13,x13
60004060:	0086f6b3          	and	x13,x13,x8
60004064:	00175713          	srli	x14,x14,0x1
60004068:	00e6c733          	xor	x14,x13,x14
6000406c:	01071713          	slli	x14,x14,0x10
60004070:	01075713          	srli	x14,x14,0x10
60004074:	0017d693          	srli	x13,x15,0x1
60004078:	00e6c6b3          	xor	x13,x13,x14
6000407c:	0016f693          	andi	x13,x13,1
60004080:	40d006b3          	neg	x13,x13
60004084:	00175713          	srli	x14,x14,0x1
60004088:	0086f6b3          	and	x13,x13,x8
6000408c:	00e6c6b3          	xor	x13,x13,x14
60004090:	01069693          	slli	x13,x13,0x10
60004094:	0106d693          	srli	x13,x13,0x10
60004098:	0027d713          	srli	x14,x15,0x2
6000409c:	00d74733          	xor	x14,x14,x13
600040a0:	00177713          	andi	x14,x14,1
600040a4:	40e00733          	neg	x14,x14
600040a8:	0016d693          	srli	x13,x13,0x1
600040ac:	00877733          	and	x14,x14,x8
600040b0:	00d74733          	xor	x14,x14,x13
600040b4:	01071713          	slli	x14,x14,0x10
600040b8:	01075713          	srli	x14,x14,0x10
600040bc:	0037d693          	srli	x13,x15,0x3
600040c0:	00e6c6b3          	xor	x13,x13,x14
600040c4:	0016f693          	andi	x13,x13,1
600040c8:	40d006b3          	neg	x13,x13
600040cc:	00175713          	srli	x14,x14,0x1
600040d0:	0086f6b3          	and	x13,x13,x8
600040d4:	00e6c6b3          	xor	x13,x13,x14
600040d8:	01069693          	slli	x13,x13,0x10
600040dc:	0106d693          	srli	x13,x13,0x10
600040e0:	0047d713          	srli	x14,x15,0x4
600040e4:	00d74733          	xor	x14,x14,x13
600040e8:	00177713          	andi	x14,x14,1
600040ec:	40e00733          	neg	x14,x14
600040f0:	0016d693          	srli	x13,x13,0x1
600040f4:	00877733          	and	x14,x14,x8
600040f8:	00d74733          	xor	x14,x14,x13
600040fc:	01071713          	slli	x14,x14,0x10
60004100:	01075713          	srli	x14,x14,0x10
60004104:	0057d693          	srli	x13,x15,0x5
60004108:	00e6c6b3          	xor	x13,x13,x14
6000410c:	0016f693          	andi	x13,x13,1
60004110:	40d006b3          	neg	x13,x13
60004114:	00175713          	srli	x14,x14,0x1
60004118:	0086f6b3          	and	x13,x13,x8
6000411c:	00e6c6b3          	xor	x13,x13,x14
60004120:	01069693          	slli	x13,x13,0x10
60004124:	0106d693          	srli	x13,x13,0x10
60004128:	0067d713          	srli	x14,x15,0x6
6000412c:	00d74733          	xor	x14,x14,x13
60004130:	00177713          	andi	x14,x14,1
60004134:	40e00733          	neg	x14,x14
60004138:	00877733          	and	x14,x14,x8
6000413c:	0016d693          	srli	x13,x13,0x1
60004140:	00d74733          	xor	x14,x14,x13
60004144:	01071713          	slli	x14,x14,0x10
60004148:	01075713          	srli	x14,x14,0x10
6000414c:	0077d793          	srli	x15,x15,0x7
60004150:	00e7c7b3          	xor	x15,x15,x14
60004154:	0017f793          	andi	x15,x15,1
60004158:	40f007b3          	neg	x15,x15
6000415c:	0087f7b3          	and	x15,x15,x8
60004160:	00175713          	srli	x14,x14,0x1
60004164:	00e7c7b3          	xor	x15,x15,x14
60004168:	01079793          	slli	x15,x15,0x10
6000416c:	0107d793          	srli	x15,x15,0x10
60004170:	06f11223          	sh	x15,100(x2)
60004174:	02048c63          	beqz	x9,600041ac <main+0x1248>
60004178:	00148493          	addi	x9,x9,1
6000417c:	b49994e3          	bne	x19,x9,60003cc4 <main+0xd60>
60004180:	00202013          	slti	x0,x0,2
60004184:	0ac12083          	lw	x1,172(x2)
60004188:	0a812403          	lw	x8,168(x2)
6000418c:	0a412483          	lw	x9,164(x2)
60004190:	0a012903          	lw	x18,160(x2)
60004194:	09c12983          	lw	x19,156(x2)
60004198:	09812a03          	lw	x20,152(x2)
6000419c:	09412a83          	lw	x21,148(x2)
600041a0:	00000513          	li	x10,0
600041a4:	0b010113          	addi	x2,x2,176
600041a8:	00008067          	ret
600041ac:	06f11323          	sh	x15,102(x2)
600041b0:	00100793          	li	x15,1
600041b4:	fcf986e3          	beq	x19,x15,60004180 <main+0x121c>
600041b8:	00100493          	li	x9,1
600041bc:	b09ff06f          	j	60003cc4 <main+0xd60>
600041c0:	09612823          	sw	x22,144(x2)
600041c4:	09712623          	sw	x23,140(x2)
600041c8:	09812423          	sw	x24,136(x2)
600041cc:	09912223          	sw	x25,132(x2)
600041d0:	09a12023          	sw	x26,128(x2)
600041d4:	07b12e23          	sw	x27,124(x2)
600041d8:	03512c23          	sw	x21,56(x2)
600041dc:	00041463          	bnez	x8,600041e4 <main+0x1280>
600041e0:	e85fe06f          	j	60003064 <main+0x100>
600041e4:	e71fe06f          	j	60003054 <main+0xf0>
600041e8:	00160613          	addi	x12,x12,1
600041ec:	00c51463          	bne	x10,x12,600041f4 <main+0x1290>
600041f0:	fd9fe06f          	j	600031c8 <main+0x264>
600041f4:	00070893          	mv	x17,x14
600041f8:	00068313          	mv	x6,x13
600041fc:	000a8713          	mv	x14,x21
60004200:	fb5fe06f          	j	600031b4 <main+0x250>

Disassembly of section .data:

60004204 <_data_vma_start>:
60004204:	3054                	.insn	2, 0x3054
60004206:	332e                	.insn	2, 0x332e
60004208:	2d65                	.insn	2, 0x2d65
6000420a:	4631                	.insn	2, 0x4631
6000420c:	0000                	.insn	2, 0x
6000420e:	0000                	.insn	2, 0x
60004210:	542d                	.insn	2, 0x542d
60004212:	542e                	.insn	2, 0x542e
60004214:	71542b2b          	.insn	4, 0x71542b2b
60004218:	0000                	.insn	2, 0x
6000421a:	0000                	.insn	2, 0x
6000421c:	5431                	.insn	2, 0x5431
6000421e:	65342e33          	.insn	4, 0x65342e33
60004222:	7a34                	.insn	2, 0x7a34
60004224:	0000                	.insn	2, 0x
60004226:	0000                	.insn	2, 0x
60004228:	302e3433          	.insn	4, 0x302e3433
6000422c:	2d65                	.insn	2, 0x2d65
6000422e:	5e54                	.insn	2, 0x5e54
60004230:	0000                	.insn	2, 0x
60004232:	0000                	.insn	2, 0x
60004234:	2e35                	.insn	2, 0x2e35
60004236:	3035                	.insn	2, 0x3035
60004238:	6530                	.insn	2, 0x6530
6000423a:	0000332b          	.insn	4, 0x332b
6000423e:	0000                	.insn	2, 0x
60004240:	2e2d                	.insn	2, 0x2e2d
60004242:	3231                	.insn	2, 0x3231
60004244:	322d6533          	.insn	4, 0x322d6533
60004248:	0000                	.insn	2, 0x
6000424a:	0000                	.insn	2, 0x
6000424c:	382d                	.insn	2, 0x382d
6000424e:	382b6537          	lui	x10,0x382b6
60004252:	00003233          	snez	x4,x0
60004256:	0000                	.insn	2, 0x
60004258:	362e302b          	.insn	4, 0x362e302b
6000425c:	2d65                	.insn	2, 0x2d65
6000425e:	3231                	.insn	2, 0x3231
60004260:	0000                	.insn	2, 0x
60004262:	0000                	.insn	2, 0x
60004264:	352e3533          	.insn	4, 0x352e3533
60004268:	3434                	.insn	2, 0x3434
6000426a:	3030                	.insn	2, 0x3030
6000426c:	0000                	.insn	2, 0x
6000426e:	0000                	.insn	2, 0x
60004270:	312e                	.insn	2, 0x312e
60004272:	3332                	.insn	2, 0x3332
60004274:	3534                	.insn	2, 0x3534
60004276:	3030                	.insn	2, 0x3030
60004278:	0000                	.insn	2, 0x
6000427a:	0000                	.insn	2, 0x
6000427c:	312d                	.insn	2, 0x312d
6000427e:	3031                	.insn	2, 0x3031
60004280:	372e                	.insn	2, 0x372e
60004282:	3030                	.insn	2, 0x3030
60004284:	0000                	.insn	2, 0x
60004286:	0000                	.insn	2, 0x
60004288:	362e302b          	.insn	4, 0x362e302b
6000428c:	3434                	.insn	2, 0x3434
6000428e:	3030                	.insn	2, 0x3030
60004290:	0000                	.insn	2, 0x
60004292:	0000                	.insn	2, 0x
60004294:	3035                	.insn	2, 0x3035
60004296:	3231                	.insn	2, 0x3231
60004298:	0000                	.insn	2, 0x
6000429a:	0000                	.insn	2, 0x
6000429c:	3231                	.insn	2, 0x3231
6000429e:	00003433          	snez	x8,x0
600042a2:	0000                	.insn	2, 0x
600042a4:	382d                	.insn	2, 0x382d
600042a6:	00003437          	lui	x8,0x3
600042aa:	0000                	.insn	2, 0x
600042ac:	3232312b          	.insn	4, 0x3232312b
600042b0:	0000                	.insn	2, 0x
	...

600042b4 <intpat>:
600042b4:	4294                	.insn	2, 0x4294
600042b6:	6000                	.insn	2, 0x6000
600042b8:	429c                	.insn	2, 0x429c
600042ba:	6000                	.insn	2, 0x6000
600042bc:	42a4                	.insn	2, 0x42a4
600042be:	6000                	.insn	2, 0x6000
600042c0:	42ac                	.insn	2, 0x42ac
600042c2:	6000                	.insn	2, 0x6000

600042c4 <floatpat>:
600042c4:	4264                	.insn	2, 0x4264
600042c6:	6000                	.insn	2, 0x6000
600042c8:	4270                	.insn	2, 0x4270
600042ca:	6000                	.insn	2, 0x6000
600042cc:	427c                	.insn	2, 0x427c
600042ce:	6000                	.insn	2, 0x6000
600042d0:	4288                	.insn	2, 0x4288
600042d2:	6000                	.insn	2, 0x6000

600042d4 <scipat>:
600042d4:	4234                	.insn	2, 0x4234
600042d6:	6000                	.insn	2, 0x6000
600042d8:	4240                	.insn	2, 0x4240
600042da:	6000                	.insn	2, 0x6000
600042dc:	424c                	.insn	2, 0x424c
600042de:	6000                	.insn	2, 0x6000
600042e0:	4258                	.insn	2, 0x4258
600042e2:	6000                	.insn	2, 0x6000

600042e4 <errpat>:
600042e4:	4204                	.insn	2, 0x4204
600042e6:	6000                	.insn	2, 0x6000
600042e8:	4210                	.insn	2, 0x4210
600042ea:	6000                	.insn	2, 0x6000
600042ec:	421c                	.insn	2, 0x421c
600042ee:	6000                	.insn	2, 0x6000
600042f0:	4228                	.insn	2, 0x4228
600042f2:	6000                	.insn	2, 0x6000

600042f4 <seed4_volatile>:
600042f4:	0001                	.insn	2, 0x0001
	...

600042f8 <seed3_volatile>:
600042f8:	0066                	.insn	2, 0x0066
	...

Disassembly of section .tohost:

60004ad8 <tohost>:
	...

Disassembly of section .fromhost:

60004ae0 <fromhost>:
	...
