
../testcode/coremark_rv32i.elf:     file format elf32-littleriscv


Disassembly of section .init:

aaaaa000 <_start>:
aaaaa000:	00000013          	nop
aaaaa004:	00000093          	li	x1,0
aaaaa008:	00000113          	li	x2,0
aaaaa00c:	00000193          	li	x3,0
aaaaa010:	00000213          	li	x4,0
aaaaa014:	00000293          	li	x5,0
aaaaa018:	00000313          	li	x6,0
aaaaa01c:	00000393          	li	x7,0
aaaaa020:	00000413          	li	x8,0
aaaaa024:	00000493          	li	x9,0
aaaaa028:	00000513          	li	x10,0
aaaaa02c:	00000593          	li	x11,0
aaaaa030:	00000613          	li	x12,0
aaaaa034:	00000693          	li	x13,0
aaaaa038:	00000713          	li	x14,0
aaaaa03c:	00000793          	li	x15,0
aaaaa040:	00000813          	li	x16,0
aaaaa044:	00000893          	li	x17,0
aaaaa048:	00000913          	li	x18,0
aaaaa04c:	00000993          	li	x19,0
aaaaa050:	00000a13          	li	x20,0
aaaaa054:	00000a93          	li	x21,0
aaaaa058:	00000b13          	li	x22,0
aaaaa05c:	00000b93          	li	x23,0
aaaaa060:	00000c13          	li	x24,0
aaaaa064:	00000c93          	li	x25,0
aaaaa068:	00000d13          	li	x26,0
aaaaa06c:	00000d93          	li	x27,0
aaaaa070:	00000e13          	li	x28,0
aaaaa074:	00000e93          	li	x29,0
aaaaa078:	00000f13          	li	x30,0
aaaaa07c:	00000f93          	li	x31,0

aaaaa080 <_initbss>:
aaaaa080:	00007317          	auipc	x6,0x7
aaaaa084:	f8030313          	addi	x6,x6,-128 # aaab1000 <static_memblk>
aaaaa088:	00007397          	auipc	x7,0x7
aaaaa08c:	75438393          	addi	x7,x7,1876 # aaab17dc <_bss_vma_end>
aaaaa090:	00730863          	beq	x6,x7,aaaaa0a0 <_setup>

aaaaa094 <_initbss_loop>:
aaaaa094:	00032023          	sw	x0,0(x6)
aaaaa098:	00430313          	addi	x6,x6,4
aaaaa09c:	fe736ce3          	bltu	x6,x7,aaaaa094 <_initbss_loop>

aaaaa0a0 <_setup>:
aaaaa0a0:	45556117          	auipc	x2,0x45556
aaaaa0a4:	f6010113          	addi	x2,x2,-160 # f0000000 <_stack_top>
aaaaa0a8:	00010433          	add	x8,x2,x0
aaaaa0ac:	00004097          	auipc	x1,0x4
aaaaa0b0:	f30080e7          	jalr	-208(x1) # aaaadfdc <main>
aaaaa0b4:	f0002013          	slti	x0,x0,-256

aaaaa0b8 <_fini>:
aaaaa0b8:	00000063          	beqz	x0,aaaaa0b8 <_fini>
aaaaa0bc:	00000013          	nop
aaaaa0c0:	00000013          	nop
aaaaa0c4:	00000013          	nop
aaaaa0c8:	00000013          	nop
aaaaa0cc:	00000013          	nop
aaaaa0d0:	00000013          	nop
aaaaa0d4:	00000013          	nop
aaaaa0d8:	00000013          	nop
aaaaa0dc:	00000013          	nop
aaaaa0e0:	00000013          	nop
aaaaa0e4:	00000013          	nop
aaaaa0e8:	00000013          	nop
aaaaa0ec:	00000013          	nop
aaaaa0f0:	00000013          	nop
aaaaa0f4:	00000013          	nop
aaaaa0f8:	00000013          	nop
aaaaa0fc:	00000013          	nop
aaaaa100:	00000013          	nop
aaaaa104:	00000013          	nop
aaaaa108:	00000013          	nop
aaaaa10c:	00000013          	nop
aaaaa110:	00000013          	nop
aaaaa114:	00000013          	nop
aaaaa118:	00000013          	nop
aaaaa11c:	00000013          	nop
aaaaa120:	00000013          	nop
aaaaa124:	00000013          	nop
aaaaa128:	00000013          	nop
aaaaa12c:	00000013          	nop
aaaaa130:	00000013          	nop
aaaaa134:	00000013          	nop
aaaaa138:	00000013          	nop
aaaaa13c:	00000013          	nop
aaaaa140:	00000013          	nop
aaaaa144:	00000013          	nop
aaaaa148:	00000013          	nop
aaaaa14c:	00000013          	nop
aaaaa150:	00000013          	nop
aaaaa154:	00000013          	nop
aaaaa158:	00000013          	nop
aaaaa15c:	00000013          	nop
aaaaa160:	00000013          	nop
aaaaa164:	00000013          	nop
aaaaa168:	00000013          	nop
aaaaa16c:	00000013          	nop
aaaaa170:	00000013          	nop
aaaaa174:	00000013          	nop
aaaaa178:	00000013          	nop
aaaaa17c:	00000013          	nop
aaaaa180:	00000013          	nop
aaaaa184:	00000013          	nop
aaaaa188:	00000013          	nop
aaaaa18c:	00000013          	nop
aaaaa190:	00000013          	nop
aaaaa194:	00000013          	nop
aaaaa198:	00000013          	nop
aaaaa19c:	00000013          	nop
aaaaa1a0:	00000013          	nop
aaaaa1a4:	00000013          	nop
aaaaa1a8:	00000013          	nop
aaaaa1ac:	00000013          	nop
aaaaa1b0:	00000013          	nop
aaaaa1b4:	00000013          	nop
aaaaa1b8:	00000013          	nop
aaaaa1bc:	00000013          	nop
aaaaa1c0:	00000013          	nop
aaaaa1c4:	00000013          	nop
aaaaa1c8:	00000013          	nop
aaaaa1cc:	00000013          	nop
aaaaa1d0:	00000013          	nop
aaaaa1d4:	00000013          	nop
aaaaa1d8:	00000013          	nop
aaaaa1dc:	00000013          	nop
aaaaa1e0:	00000013          	nop
aaaaa1e4:	00000013          	nop
aaaaa1e8:	00000013          	nop
aaaaa1ec:	00000013          	nop
aaaaa1f0:	00000013          	nop
aaaaa1f4:	00000013          	nop
aaaaa1f8:	00000013          	nop
aaaaa1fc:	00000013          	nop
aaaaa200:	00000013          	nop
aaaaa204:	00000013          	nop
aaaaa208:	00000013          	nop
aaaaa20c:	00000013          	nop
aaaaa210:	00000013          	nop
aaaaa214:	00000013          	nop
aaaaa218:	00000013          	nop
aaaaa21c:	00000013          	nop
aaaaa220:	00000013          	nop
aaaaa224:	00000013          	nop
aaaaa228:	00000013          	nop
aaaaa22c:	00000013          	nop
aaaaa230:	00000013          	nop
aaaaa234:	00000013          	nop
aaaaa238:	00000013          	nop
aaaaa23c:	00000013          	nop
aaaaa240:	00000013          	nop
aaaaa244:	00000013          	nop
aaaaa248:	00000013          	nop
aaaaa24c:	00000013          	nop
aaaaa250:	00000013          	nop
aaaaa254:	00000013          	nop
aaaaa258:	00000013          	nop
aaaaa25c:	00000013          	nop
aaaaa260:	00000013          	nop
aaaaa264:	00000013          	nop
aaaaa268:	00000013          	nop
aaaaa26c:	00000013          	nop
aaaaa270:	00000013          	nop
aaaaa274:	00000013          	nop
aaaaa278:	00000013          	nop
aaaaa27c:	00000013          	nop
aaaaa280:	00000013          	nop
aaaaa284:	00000013          	nop
aaaaa288:	00000013          	nop
aaaaa28c:	00000013          	nop
aaaaa290:	00000013          	nop
aaaaa294:	00000013          	nop
aaaaa298:	00000013          	nop
aaaaa29c:	00000013          	nop
aaaaa2a0:	00000013          	nop
aaaaa2a4:	00000013          	nop
aaaaa2a8:	00000013          	nop
aaaaa2ac:	00000013          	nop
aaaaa2b0:	00000013          	nop
aaaaa2b4:	00000013          	nop
aaaaa2b8:	00000013          	nop
aaaaa2bc:	00000013          	nop
aaaaa2c0:	00000013          	nop
aaaaa2c4:	00000013          	nop
aaaaa2c8:	00000013          	nop
aaaaa2cc:	00000013          	nop
aaaaa2d0:	00000013          	nop
aaaaa2d4:	00000013          	nop
aaaaa2d8:	00000013          	nop
aaaaa2dc:	00000013          	nop
aaaaa2e0:	00000013          	nop
aaaaa2e4:	00000013          	nop
aaaaa2e8:	00000013          	nop
aaaaa2ec:	00000013          	nop
aaaaa2f0:	00000013          	nop
aaaaa2f4:	00000013          	nop
aaaaa2f8:	00000013          	nop
aaaaa2fc:	00000013          	nop
aaaaa300:	00000013          	nop
aaaaa304:	00000013          	nop
aaaaa308:	00000013          	nop
aaaaa30c:	00000013          	nop
aaaaa310:	00000013          	nop
aaaaa314:	00000013          	nop
aaaaa318:	00000013          	nop
aaaaa31c:	00000013          	nop
aaaaa320:	00000013          	nop
aaaaa324:	00000013          	nop
aaaaa328:	00000013          	nop
aaaaa32c:	00000013          	nop
aaaaa330:	00000013          	nop
aaaaa334:	00000013          	nop
aaaaa338:	00000013          	nop
aaaaa33c:	00000013          	nop
aaaaa340:	00000013          	nop
aaaaa344:	00000013          	nop
aaaaa348:	00000013          	nop
aaaaa34c:	00000013          	nop
aaaaa350:	00000013          	nop
aaaaa354:	00000013          	nop
aaaaa358:	00000013          	nop
aaaaa35c:	00000013          	nop
aaaaa360:	00000013          	nop
aaaaa364:	00000013          	nop
aaaaa368:	00000013          	nop
aaaaa36c:	00000013          	nop
aaaaa370:	00000013          	nop
aaaaa374:	00000013          	nop
aaaaa378:	00000013          	nop
aaaaa37c:	00000013          	nop
aaaaa380:	00000013          	nop
aaaaa384:	00000013          	nop
aaaaa388:	00000013          	nop
aaaaa38c:	00000013          	nop
aaaaa390:	00000013          	nop
aaaaa394:	00000013          	nop
aaaaa398:	00000013          	nop
aaaaa39c:	00000013          	nop
aaaaa3a0:	00000013          	nop
aaaaa3a4:	00000013          	nop
aaaaa3a8:	00000013          	nop
aaaaa3ac:	00000013          	nop
aaaaa3b0:	00000013          	nop
aaaaa3b4:	00000013          	nop
aaaaa3b8:	00000013          	nop
aaaaa3bc:	00000013          	nop
aaaaa3c0:	00000013          	nop
aaaaa3c4:	00000013          	nop
aaaaa3c8:	00000013          	nop
aaaaa3cc:	00000013          	nop
aaaaa3d0:	00000013          	nop
aaaaa3d4:	00000013          	nop
aaaaa3d8:	00000013          	nop
aaaaa3dc:	00000013          	nop
aaaaa3e0:	00000013          	nop
aaaaa3e4:	00000013          	nop
aaaaa3e8:	00000013          	nop
aaaaa3ec:	00000013          	nop
aaaaa3f0:	00000013          	nop
aaaaa3f4:	00000013          	nop
aaaaa3f8:	00000013          	nop
aaaaa3fc:	00000013          	nop
aaaaa400:	00000013          	nop
aaaaa404:	00000013          	nop
aaaaa408:	00000013          	nop
aaaaa40c:	00000013          	nop
aaaaa410:	00000013          	nop
aaaaa414:	00000013          	nop
aaaaa418:	00000013          	nop
aaaaa41c:	00000013          	nop
aaaaa420:	00000013          	nop
aaaaa424:	00000013          	nop
aaaaa428:	00000013          	nop
aaaaa42c:	00000013          	nop
aaaaa430:	00000013          	nop
aaaaa434:	00000013          	nop
aaaaa438:	00000013          	nop
aaaaa43c:	00000013          	nop
aaaaa440:	00000013          	nop
aaaaa444:	00000013          	nop
aaaaa448:	00000013          	nop
aaaaa44c:	00000013          	nop
aaaaa450:	00000013          	nop
aaaaa454:	00000013          	nop
aaaaa458:	00000013          	nop
aaaaa45c:	00000013          	nop
aaaaa460:	00000013          	nop
aaaaa464:	00000013          	nop
aaaaa468:	00000013          	nop
aaaaa46c:	00000013          	nop
aaaaa470:	00000013          	nop
aaaaa474:	00000013          	nop
aaaaa478:	00000013          	nop
aaaaa47c:	00000013          	nop
aaaaa480:	00000013          	nop
aaaaa484:	00000013          	nop
aaaaa488:	00000013          	nop
aaaaa48c:	00000013          	nop
aaaaa490:	00000013          	nop
aaaaa494:	00000013          	nop
aaaaa498:	00000013          	nop
aaaaa49c:	00000013          	nop
aaaaa4a0:	00000013          	nop
aaaaa4a4:	00000013          	nop
aaaaa4a8:	00000013          	nop
aaaaa4ac:	00000013          	nop
aaaaa4b0:	00000013          	nop
aaaaa4b4:	00000013          	nop
aaaaa4b8:	00000013          	nop
aaaaa4bc:	00000013          	nop
aaaaa4c0:	00000013          	nop
aaaaa4c4:	00000013          	nop
aaaaa4c8:	00000013          	nop
aaaaa4cc:	00000013          	nop
aaaaa4d0:	00000013          	nop
aaaaa4d4:	00000013          	nop
aaaaa4d8:	00000013          	nop
aaaaa4dc:	00000013          	nop
aaaaa4e0:	00000013          	nop
aaaaa4e4:	00000013          	nop
aaaaa4e8:	00000013          	nop
aaaaa4ec:	00000013          	nop
aaaaa4f0:	00000013          	nop
aaaaa4f4:	00000013          	nop
aaaaa4f8:	00000013          	nop
aaaaa4fc:	00000013          	nop
aaaaa500:	00000013          	nop
aaaaa504:	00000013          	nop
aaaaa508:	00000013          	nop
aaaaa50c:	00000013          	nop
aaaaa510:	00000013          	nop
aaaaa514:	00000013          	nop
aaaaa518:	00000013          	nop
aaaaa51c:	00000013          	nop
aaaaa520:	00000013          	nop
aaaaa524:	00000013          	nop
aaaaa528:	00000013          	nop
aaaaa52c:	00000013          	nop
aaaaa530:	00000013          	nop
aaaaa534:	00000013          	nop
aaaaa538:	00000013          	nop
aaaaa53c:	00000013          	nop
aaaaa540:	00000013          	nop
aaaaa544:	00000013          	nop
aaaaa548:	00000013          	nop
aaaaa54c:	00000013          	nop
aaaaa550:	00000013          	nop
aaaaa554:	00000013          	nop
aaaaa558:	00000013          	nop
aaaaa55c:	00000013          	nop
aaaaa560:	00000013          	nop
aaaaa564:	00000013          	nop
aaaaa568:	00000013          	nop
aaaaa56c:	00000013          	nop
aaaaa570:	00000013          	nop
aaaaa574:	00000013          	nop
aaaaa578:	00000013          	nop
aaaaa57c:	00000013          	nop
aaaaa580:	00000013          	nop
aaaaa584:	00000013          	nop
aaaaa588:	00000013          	nop
aaaaa58c:	00000013          	nop
aaaaa590:	00000013          	nop
aaaaa594:	00000013          	nop
aaaaa598:	00000013          	nop
aaaaa59c:	00000013          	nop
aaaaa5a0:	00000013          	nop
aaaaa5a4:	00000013          	nop
aaaaa5a8:	00000013          	nop
aaaaa5ac:	00000013          	nop
aaaaa5b0:	00000013          	nop
aaaaa5b4:	00000013          	nop
aaaaa5b8:	00000013          	nop
aaaaa5bc:	00000013          	nop
aaaaa5c0:	00000013          	nop
aaaaa5c4:	00000013          	nop
aaaaa5c8:	00000013          	nop
aaaaa5cc:	00000013          	nop
aaaaa5d0:	00000013          	nop
aaaaa5d4:	00000013          	nop
aaaaa5d8:	00000013          	nop
aaaaa5dc:	00000013          	nop
aaaaa5e0:	00000013          	nop
aaaaa5e4:	00000013          	nop
aaaaa5e8:	00000013          	nop
aaaaa5ec:	00000013          	nop
aaaaa5f0:	00000013          	nop
aaaaa5f4:	00000013          	nop
aaaaa5f8:	00000013          	nop
aaaaa5fc:	00000013          	nop
aaaaa600:	00000013          	nop
aaaaa604:	00000013          	nop
aaaaa608:	00000013          	nop
aaaaa60c:	00000013          	nop
aaaaa610:	00000013          	nop
aaaaa614:	00000013          	nop
aaaaa618:	00000013          	nop
aaaaa61c:	00000013          	nop
aaaaa620:	00000013          	nop
aaaaa624:	00000013          	nop
aaaaa628:	00000013          	nop
aaaaa62c:	00000013          	nop
aaaaa630:	00000013          	nop
aaaaa634:	00000013          	nop
aaaaa638:	00000013          	nop
aaaaa63c:	00000013          	nop
aaaaa640:	00000013          	nop
aaaaa644:	00000013          	nop
aaaaa648:	00000013          	nop
aaaaa64c:	00000013          	nop
aaaaa650:	00000013          	nop
aaaaa654:	00000013          	nop
aaaaa658:	00000013          	nop
aaaaa65c:	00000013          	nop
aaaaa660:	00000013          	nop
aaaaa664:	00000013          	nop
aaaaa668:	00000013          	nop
aaaaa66c:	00000013          	nop
aaaaa670:	00000013          	nop
aaaaa674:	00000013          	nop
aaaaa678:	00000013          	nop
aaaaa67c:	00000013          	nop
aaaaa680:	00000013          	nop
aaaaa684:	00000013          	nop
aaaaa688:	00000013          	nop
aaaaa68c:	00000013          	nop
aaaaa690:	00000013          	nop
aaaaa694:	00000013          	nop
aaaaa698:	00000013          	nop
aaaaa69c:	00000013          	nop
aaaaa6a0:	00000013          	nop
aaaaa6a4:	00000013          	nop
aaaaa6a8:	00000013          	nop
aaaaa6ac:	00000013          	nop
aaaaa6b0:	00000013          	nop
aaaaa6b4:	00000013          	nop
aaaaa6b8:	00000013          	nop
aaaaa6bc:	00000013          	nop
aaaaa6c0:	00000013          	nop
aaaaa6c4:	00000013          	nop
aaaaa6c8:	00000013          	nop
aaaaa6cc:	00000013          	nop
aaaaa6d0:	00000013          	nop
aaaaa6d4:	00000013          	nop
aaaaa6d8:	00000013          	nop
aaaaa6dc:	00000013          	nop
aaaaa6e0:	00000013          	nop
aaaaa6e4:	00000013          	nop
aaaaa6e8:	00000013          	nop
aaaaa6ec:	00000013          	nop
aaaaa6f0:	00000013          	nop
aaaaa6f4:	00000013          	nop
aaaaa6f8:	00000013          	nop
aaaaa6fc:	00000013          	nop
aaaaa700:	00000013          	nop
aaaaa704:	00000013          	nop
aaaaa708:	00000013          	nop
aaaaa70c:	00000013          	nop
aaaaa710:	00000013          	nop
aaaaa714:	00000013          	nop
aaaaa718:	00000013          	nop
aaaaa71c:	00000013          	nop
aaaaa720:	00000013          	nop
aaaaa724:	00000013          	nop
aaaaa728:	00000013          	nop
aaaaa72c:	00000013          	nop
aaaaa730:	00000013          	nop
aaaaa734:	00000013          	nop
aaaaa738:	00000013          	nop
aaaaa73c:	00000013          	nop
aaaaa740:	00000013          	nop
aaaaa744:	00000013          	nop
aaaaa748:	00000013          	nop
aaaaa74c:	00000013          	nop
aaaaa750:	00000013          	nop
aaaaa754:	00000013          	nop
aaaaa758:	00000013          	nop
aaaaa75c:	00000013          	nop
aaaaa760:	00000013          	nop
aaaaa764:	00000013          	nop
aaaaa768:	00000013          	nop
aaaaa76c:	00000013          	nop
aaaaa770:	00000013          	nop
aaaaa774:	00000013          	nop
aaaaa778:	00000013          	nop
aaaaa77c:	00000013          	nop
aaaaa780:	00000013          	nop
aaaaa784:	00000013          	nop
aaaaa788:	00000013          	nop
aaaaa78c:	00000013          	nop
aaaaa790:	00000013          	nop
aaaaa794:	00000013          	nop
aaaaa798:	00000013          	nop
aaaaa79c:	00000013          	nop
aaaaa7a0:	00000013          	nop
aaaaa7a4:	00000013          	nop
aaaaa7a8:	00000013          	nop
aaaaa7ac:	00000013          	nop
aaaaa7b0:	00000013          	nop
aaaaa7b4:	00000013          	nop
aaaaa7b8:	00000013          	nop
aaaaa7bc:	00000013          	nop
aaaaa7c0:	00000013          	nop
aaaaa7c4:	00000013          	nop
aaaaa7c8:	00000013          	nop
aaaaa7cc:	00000013          	nop
aaaaa7d0:	00000013          	nop
aaaaa7d4:	00000013          	nop
aaaaa7d8:	00000013          	nop
aaaaa7dc:	00000013          	nop
aaaaa7e0:	00000013          	nop
aaaaa7e4:	00000013          	nop
aaaaa7e8:	00000013          	nop
aaaaa7ec:	00000013          	nop
aaaaa7f0:	00000013          	nop
aaaaa7f4:	00000013          	nop
aaaaa7f8:	00000013          	nop
aaaaa7fc:	00000013          	nop
aaaaa800:	00000013          	nop
aaaaa804:	00000013          	nop
aaaaa808:	00000013          	nop
aaaaa80c:	00000013          	nop
aaaaa810:	00000013          	nop
aaaaa814:	00000013          	nop
aaaaa818:	00000013          	nop
aaaaa81c:	00000013          	nop
aaaaa820:	00000013          	nop
aaaaa824:	00000013          	nop
aaaaa828:	00000013          	nop
aaaaa82c:	00000013          	nop
aaaaa830:	00000013          	nop
aaaaa834:	00000013          	nop
aaaaa838:	00000013          	nop
aaaaa83c:	00000013          	nop
aaaaa840:	00000013          	nop
aaaaa844:	00000013          	nop
aaaaa848:	00000013          	nop
aaaaa84c:	00000013          	nop
aaaaa850:	00000013          	nop
aaaaa854:	00000013          	nop
aaaaa858:	00000013          	nop
aaaaa85c:	00000013          	nop
aaaaa860:	00000013          	nop
aaaaa864:	00000013          	nop
aaaaa868:	00000013          	nop
aaaaa86c:	00000013          	nop
aaaaa870:	00000013          	nop
aaaaa874:	00000013          	nop
aaaaa878:	00000013          	nop
aaaaa87c:	00000013          	nop
aaaaa880:	00000013          	nop
aaaaa884:	00000013          	nop
aaaaa888:	00000013          	nop
aaaaa88c:	00000013          	nop
aaaaa890:	00000013          	nop
aaaaa894:	00000013          	nop
aaaaa898:	00000013          	nop
aaaaa89c:	00000013          	nop
aaaaa8a0:	00000013          	nop
aaaaa8a4:	00000013          	nop
aaaaa8a8:	00000013          	nop
aaaaa8ac:	00000013          	nop
aaaaa8b0:	00000013          	nop
aaaaa8b4:	00000013          	nop
aaaaa8b8:	00000013          	nop
aaaaa8bc:	00000013          	nop
aaaaa8c0:	00000013          	nop
aaaaa8c4:	00000013          	nop
aaaaa8c8:	00000013          	nop
aaaaa8cc:	00000013          	nop
aaaaa8d0:	00000013          	nop
aaaaa8d4:	00000013          	nop
aaaaa8d8:	00000013          	nop
aaaaa8dc:	00000013          	nop
aaaaa8e0:	00000013          	nop
aaaaa8e4:	00000013          	nop
aaaaa8e8:	00000013          	nop
aaaaa8ec:	00000013          	nop
aaaaa8f0:	00000013          	nop
aaaaa8f4:	00000013          	nop
aaaaa8f8:	00000013          	nop
aaaaa8fc:	00000013          	nop
aaaaa900:	00000013          	nop
aaaaa904:	00000013          	nop
aaaaa908:	00000013          	nop
aaaaa90c:	00000013          	nop
aaaaa910:	00000013          	nop
aaaaa914:	00000013          	nop
aaaaa918:	00000013          	nop
aaaaa91c:	00000013          	nop
aaaaa920:	00000013          	nop
aaaaa924:	00000013          	nop
aaaaa928:	00000013          	nop
aaaaa92c:	00000013          	nop
aaaaa930:	00000013          	nop
aaaaa934:	00000013          	nop
aaaaa938:	00000013          	nop
aaaaa93c:	00000013          	nop
aaaaa940:	00000013          	nop
aaaaa944:	00000013          	nop
aaaaa948:	00000013          	nop
aaaaa94c:	00000013          	nop
aaaaa950:	00000013          	nop
aaaaa954:	00000013          	nop
aaaaa958:	00000013          	nop
aaaaa95c:	00000013          	nop
aaaaa960:	00000013          	nop
aaaaa964:	00000013          	nop
aaaaa968:	00000013          	nop
aaaaa96c:	00000013          	nop
aaaaa970:	00000013          	nop
aaaaa974:	00000013          	nop
aaaaa978:	00000013          	nop
aaaaa97c:	00000013          	nop
aaaaa980:	00000013          	nop
aaaaa984:	00000013          	nop
aaaaa988:	00000013          	nop
aaaaa98c:	00000013          	nop
aaaaa990:	00000013          	nop
aaaaa994:	00000013          	nop
aaaaa998:	00000013          	nop
aaaaa99c:	00000013          	nop
aaaaa9a0:	00000013          	nop
aaaaa9a4:	00000013          	nop
aaaaa9a8:	00000013          	nop
aaaaa9ac:	00000013          	nop
aaaaa9b0:	00000013          	nop
aaaaa9b4:	00000013          	nop
aaaaa9b8:	00000013          	nop
aaaaa9bc:	00000013          	nop
aaaaa9c0:	00000013          	nop
aaaaa9c4:	00000013          	nop
aaaaa9c8:	00000013          	nop
aaaaa9cc:	00000013          	nop
aaaaa9d0:	00000013          	nop
aaaaa9d4:	00000013          	nop
aaaaa9d8:	00000013          	nop
aaaaa9dc:	00000013          	nop
aaaaa9e0:	00000013          	nop
aaaaa9e4:	00000013          	nop
aaaaa9e8:	00000013          	nop
aaaaa9ec:	00000013          	nop
aaaaa9f0:	00000013          	nop
aaaaa9f4:	00000013          	nop
aaaaa9f8:	00000013          	nop
aaaaa9fc:	00000013          	nop
aaaaaa00:	00000013          	nop
aaaaaa04:	00000013          	nop
aaaaaa08:	00000013          	nop
aaaaaa0c:	00000013          	nop
aaaaaa10:	00000013          	nop
aaaaaa14:	00000013          	nop
aaaaaa18:	00000013          	nop
aaaaaa1c:	00000013          	nop
aaaaaa20:	00000013          	nop
aaaaaa24:	00000013          	nop
aaaaaa28:	00000013          	nop
aaaaaa2c:	00000013          	nop
aaaaaa30:	00000013          	nop
aaaaaa34:	00000013          	nop
aaaaaa38:	00000013          	nop
aaaaaa3c:	00000013          	nop
aaaaaa40:	00000013          	nop
aaaaaa44:	00000013          	nop
aaaaaa48:	00000013          	nop
aaaaaa4c:	00000013          	nop
aaaaaa50:	00000013          	nop
aaaaaa54:	00000013          	nop
aaaaaa58:	00000013          	nop
aaaaaa5c:	00000013          	nop
aaaaaa60:	00000013          	nop
aaaaaa64:	00000013          	nop
aaaaaa68:	00000013          	nop
aaaaaa6c:	00000013          	nop
aaaaaa70:	00000013          	nop
aaaaaa74:	00000013          	nop
aaaaaa78:	00000013          	nop
aaaaaa7c:	00000013          	nop
aaaaaa80:	00000013          	nop
aaaaaa84:	00000013          	nop
aaaaaa88:	00000013          	nop
aaaaaa8c:	00000013          	nop
aaaaaa90:	00000013          	nop
aaaaaa94:	00000013          	nop
aaaaaa98:	00000013          	nop
aaaaaa9c:	00000013          	nop
aaaaaaa0:	00000013          	nop
aaaaaaa4:	00000013          	nop
aaaaaaa8:	00000013          	nop
aaaaaaac:	00000013          	nop
aaaaaab0:	00000013          	nop
aaaaaab4:	00000013          	nop
aaaaaab8:	00000013          	nop
aaaaaabc:	00000013          	nop
aaaaaac0:	00000013          	nop
aaaaaac4:	00000013          	nop
aaaaaac8:	00000013          	nop
aaaaaacc:	00000013          	nop
aaaaaad0:	00000013          	nop
aaaaaad4:	00000013          	nop
aaaaaad8:	00000013          	nop
aaaaaadc:	00000013          	nop
aaaaaae0:	00000013          	nop
aaaaaae4:	00000013          	nop
aaaaaae8:	00000013          	nop
aaaaaaec:	00000013          	nop
aaaaaaf0:	00000013          	nop
aaaaaaf4:	00000013          	nop
aaaaaaf8:	00000013          	nop
aaaaaafc:	00000013          	nop
aaaaab00:	00000013          	nop
aaaaab04:	00000013          	nop
aaaaab08:	00000013          	nop
aaaaab0c:	00000013          	nop
aaaaab10:	00000013          	nop
aaaaab14:	00000013          	nop
aaaaab18:	00000013          	nop
aaaaab1c:	00000013          	nop
aaaaab20:	00000013          	nop
aaaaab24:	00000013          	nop
aaaaab28:	00000013          	nop
aaaaab2c:	00000013          	nop
aaaaab30:	00000013          	nop
aaaaab34:	00000013          	nop
aaaaab38:	00000013          	nop
aaaaab3c:	00000013          	nop
aaaaab40:	00000013          	nop
aaaaab44:	00000013          	nop
aaaaab48:	00000013          	nop
aaaaab4c:	00000013          	nop
aaaaab50:	00000013          	nop
aaaaab54:	00000013          	nop
aaaaab58:	00000013          	nop
aaaaab5c:	00000013          	nop
aaaaab60:	00000013          	nop
aaaaab64:	00000013          	nop
aaaaab68:	00000013          	nop
aaaaab6c:	00000013          	nop
aaaaab70:	00000013          	nop
aaaaab74:	00000013          	nop
aaaaab78:	00000013          	nop
aaaaab7c:	00000013          	nop
aaaaab80:	00000013          	nop
aaaaab84:	00000013          	nop
aaaaab88:	00000013          	nop
aaaaab8c:	00000013          	nop
aaaaab90:	00000013          	nop
aaaaab94:	00000013          	nop
aaaaab98:	00000013          	nop
aaaaab9c:	00000013          	nop
aaaaaba0:	00000013          	nop
aaaaaba4:	00000013          	nop
aaaaaba8:	00000013          	nop
aaaaabac:	00000013          	nop
aaaaabb0:	00000013          	nop
aaaaabb4:	00000013          	nop
aaaaabb8:	00000013          	nop
aaaaabbc:	00000013          	nop
aaaaabc0:	00000013          	nop
aaaaabc4:	00000013          	nop
aaaaabc8:	00000013          	nop
aaaaabcc:	00000013          	nop
aaaaabd0:	00000013          	nop
aaaaabd4:	00000013          	nop
aaaaabd8:	00000013          	nop
aaaaabdc:	00000013          	nop
aaaaabe0:	00000013          	nop
aaaaabe4:	00000013          	nop
aaaaabe8:	00000013          	nop
aaaaabec:	00000013          	nop
aaaaabf0:	00000013          	nop
aaaaabf4:	00000013          	nop
aaaaabf8:	00000013          	nop
aaaaabfc:	00000013          	nop
aaaaac00:	00000013          	nop
aaaaac04:	00000013          	nop
aaaaac08:	00000013          	nop
aaaaac0c:	00000013          	nop
aaaaac10:	00000013          	nop
aaaaac14:	00000013          	nop
aaaaac18:	00000013          	nop
aaaaac1c:	00000013          	nop
aaaaac20:	00000013          	nop
aaaaac24:	00000013          	nop
aaaaac28:	00000013          	nop
aaaaac2c:	00000013          	nop
aaaaac30:	00000013          	nop
aaaaac34:	00000013          	nop
aaaaac38:	00000013          	nop
aaaaac3c:	00000013          	nop
aaaaac40:	00000013          	nop
aaaaac44:	00000013          	nop
aaaaac48:	00000013          	nop
aaaaac4c:	00000013          	nop
aaaaac50:	00000013          	nop
aaaaac54:	00000013          	nop
aaaaac58:	00000013          	nop
aaaaac5c:	00000013          	nop
aaaaac60:	00000013          	nop
aaaaac64:	00000013          	nop
aaaaac68:	00000013          	nop
aaaaac6c:	00000013          	nop
aaaaac70:	00000013          	nop
aaaaac74:	00000013          	nop
aaaaac78:	00000013          	nop
aaaaac7c:	00000013          	nop
aaaaac80:	00000013          	nop
aaaaac84:	00000013          	nop
aaaaac88:	00000013          	nop
aaaaac8c:	00000013          	nop
aaaaac90:	00000013          	nop
aaaaac94:	00000013          	nop
aaaaac98:	00000013          	nop
aaaaac9c:	00000013          	nop
aaaaaca0:	00000013          	nop
aaaaaca4:	00000013          	nop
aaaaaca8:	00000013          	nop
aaaaacac:	00000013          	nop
aaaaacb0:	00000013          	nop
aaaaacb4:	00000013          	nop
aaaaacb8:	00000013          	nop
aaaaacbc:	00000013          	nop
aaaaacc0:	00000013          	nop
aaaaacc4:	00000013          	nop
aaaaacc8:	00000013          	nop
aaaaaccc:	00000013          	nop
aaaaacd0:	00000013          	nop
aaaaacd4:	00000013          	nop
aaaaacd8:	00000013          	nop
aaaaacdc:	00000013          	nop
aaaaace0:	00000013          	nop
aaaaace4:	00000013          	nop
aaaaace8:	00000013          	nop
aaaaacec:	00000013          	nop
aaaaacf0:	00000013          	nop
aaaaacf4:	00000013          	nop
aaaaacf8:	00000013          	nop
aaaaacfc:	00000013          	nop
aaaaad00:	00000013          	nop
aaaaad04:	00000013          	nop
aaaaad08:	00000013          	nop
aaaaad0c:	00000013          	nop
aaaaad10:	00000013          	nop
aaaaad14:	00000013          	nop
aaaaad18:	00000013          	nop
aaaaad1c:	00000013          	nop
aaaaad20:	00000013          	nop
aaaaad24:	00000013          	nop
aaaaad28:	00000013          	nop
aaaaad2c:	00000013          	nop
aaaaad30:	00000013          	nop
aaaaad34:	00000013          	nop
aaaaad38:	00000013          	nop
aaaaad3c:	00000013          	nop
aaaaad40:	00000013          	nop
aaaaad44:	00000013          	nop
aaaaad48:	00000013          	nop
aaaaad4c:	00000013          	nop
aaaaad50:	00000013          	nop
aaaaad54:	00000013          	nop
aaaaad58:	00000013          	nop
aaaaad5c:	00000013          	nop
aaaaad60:	00000013          	nop
aaaaad64:	00000013          	nop
aaaaad68:	00000013          	nop
aaaaad6c:	00000013          	nop
aaaaad70:	00000013          	nop
aaaaad74:	00000013          	nop
aaaaad78:	00000013          	nop
aaaaad7c:	00000013          	nop
aaaaad80:	00000013          	nop
aaaaad84:	00000013          	nop
aaaaad88:	00000013          	nop
aaaaad8c:	00000013          	nop
aaaaad90:	00000013          	nop
aaaaad94:	00000013          	nop
aaaaad98:	00000013          	nop
aaaaad9c:	00000013          	nop
aaaaada0:	00000013          	nop
aaaaada4:	00000013          	nop
aaaaada8:	00000013          	nop
aaaaadac:	00000013          	nop
aaaaadb0:	00000013          	nop
aaaaadb4:	00000013          	nop
aaaaadb8:	00000013          	nop
aaaaadbc:	00000013          	nop
aaaaadc0:	00000013          	nop
aaaaadc4:	00000013          	nop
aaaaadc8:	00000013          	nop
aaaaadcc:	00000013          	nop
aaaaadd0:	00000013          	nop
aaaaadd4:	00000013          	nop
aaaaadd8:	00000013          	nop
aaaaaddc:	00000013          	nop
aaaaade0:	00000013          	nop
aaaaade4:	00000013          	nop
aaaaade8:	00000013          	nop
aaaaadec:	00000013          	nop
aaaaadf0:	00000013          	nop
aaaaadf4:	00000013          	nop
aaaaadf8:	00000013          	nop
aaaaadfc:	00000013          	nop
aaaaae00:	00000013          	nop
aaaaae04:	00000013          	nop
aaaaae08:	00000013          	nop
aaaaae0c:	00000013          	nop
aaaaae10:	00000013          	nop
aaaaae14:	00000013          	nop
aaaaae18:	00000013          	nop
aaaaae1c:	00000013          	nop
aaaaae20:	00000013          	nop
aaaaae24:	00000013          	nop
aaaaae28:	00000013          	nop
aaaaae2c:	00000013          	nop
aaaaae30:	00000013          	nop
aaaaae34:	00000013          	nop
aaaaae38:	00000013          	nop
aaaaae3c:	00000013          	nop
aaaaae40:	00000013          	nop
aaaaae44:	00000013          	nop
aaaaae48:	00000013          	nop
aaaaae4c:	00000013          	nop
aaaaae50:	00000013          	nop
aaaaae54:	00000013          	nop
aaaaae58:	00000013          	nop
aaaaae5c:	00000013          	nop
aaaaae60:	00000013          	nop
aaaaae64:	00000013          	nop
aaaaae68:	00000013          	nop
aaaaae6c:	00000013          	nop
aaaaae70:	00000013          	nop
aaaaae74:	00000013          	nop
aaaaae78:	00000013          	nop
aaaaae7c:	00000013          	nop
aaaaae80:	00000013          	nop
aaaaae84:	00000013          	nop
aaaaae88:	00000013          	nop
aaaaae8c:	00000013          	nop
aaaaae90:	00000013          	nop
aaaaae94:	00000013          	nop
aaaaae98:	00000013          	nop
aaaaae9c:	00000013          	nop
aaaaaea0:	00000013          	nop
aaaaaea4:	00000013          	nop
aaaaaea8:	00000013          	nop
aaaaaeac:	00000013          	nop
aaaaaeb0:	00000013          	nop
aaaaaeb4:	00000013          	nop
aaaaaeb8:	00000013          	nop
aaaaaebc:	00000013          	nop
aaaaaec0:	00000013          	nop
aaaaaec4:	00000013          	nop
aaaaaec8:	00000013          	nop
aaaaaecc:	00000013          	nop
aaaaaed0:	00000013          	nop
aaaaaed4:	00000013          	nop
aaaaaed8:	00000013          	nop
aaaaaedc:	00000013          	nop
aaaaaee0:	00000013          	nop
aaaaaee4:	00000013          	nop
aaaaaee8:	00000013          	nop
aaaaaeec:	00000013          	nop
aaaaaef0:	00000013          	nop
aaaaaef4:	00000013          	nop
aaaaaef8:	00000013          	nop
aaaaaefc:	00000013          	nop
aaaaaf00:	00000013          	nop
aaaaaf04:	00000013          	nop
aaaaaf08:	00000013          	nop
aaaaaf0c:	00000013          	nop
aaaaaf10:	00000013          	nop
aaaaaf14:	00000013          	nop
aaaaaf18:	00000013          	nop
aaaaaf1c:	00000013          	nop
aaaaaf20:	00000013          	nop
aaaaaf24:	00000013          	nop
aaaaaf28:	00000013          	nop
aaaaaf2c:	00000013          	nop
aaaaaf30:	00000013          	nop
aaaaaf34:	00000013          	nop
aaaaaf38:	00000013          	nop
aaaaaf3c:	00000013          	nop
aaaaaf40:	00000013          	nop
aaaaaf44:	00000013          	nop
aaaaaf48:	00000013          	nop
aaaaaf4c:	00000013          	nop
aaaaaf50:	00000013          	nop
aaaaaf54:	00000013          	nop
aaaaaf58:	00000013          	nop
aaaaaf5c:	00000013          	nop
aaaaaf60:	00000013          	nop
aaaaaf64:	00000013          	nop
aaaaaf68:	00000013          	nop
aaaaaf6c:	00000013          	nop
aaaaaf70:	00000013          	nop
aaaaaf74:	00000013          	nop
aaaaaf78:	00000013          	nop
aaaaaf7c:	00000013          	nop
aaaaaf80:	00000013          	nop
aaaaaf84:	00000013          	nop
aaaaaf88:	00000013          	nop
aaaaaf8c:	00000013          	nop
aaaaaf90:	00000013          	nop
aaaaaf94:	00000013          	nop
aaaaaf98:	00000013          	nop
aaaaaf9c:	00000013          	nop
aaaaafa0:	00000013          	nop
aaaaafa4:	00000013          	nop
aaaaafa8:	00000013          	nop
aaaaafac:	00000013          	nop
aaaaafb0:	00000013          	nop
aaaaafb4:	00000013          	nop
aaaaafb8:	00000013          	nop
aaaaafbc:	00000013          	nop
aaaaafc0:	00000013          	nop
aaaaafc4:	00000013          	nop
aaaaafc8:	00000013          	nop
aaaaafcc:	00000013          	nop
aaaaafd0:	00000013          	nop
aaaaafd4:	00000013          	nop
aaaaafd8:	00000013          	nop
aaaaafdc:	00000013          	nop
aaaaafe0:	00000013          	nop
aaaaafe4:	00000013          	nop
aaaaafe8:	00000013          	nop
aaaaafec:	00000013          	nop
aaaaaff0:	00000013          	nop
aaaaaff4:	00000013          	nop
aaaaaff8:	00000013          	nop
aaaaaffc:	00000013          	nop

Disassembly of section .text:

aaaab000 <crcu16>:
aaaab000:	0ff57313          	zext.b	x6,x10
aaaab004:	00b346b3          	xor	x13,x6,x11
aaaab008:	0016f693          	andi	x13,x13,1
aaaab00c:	ffffa737          	lui	x14,0xffffa
aaaab010:	00170713          	addi	x14,x14,1 # ffffa001 <_stack_top+0xfffa001>
aaaab014:	40d006b3          	neg	x13,x13
aaaab018:	0015d593          	srli	x11,x11,0x1
aaaab01c:	00e6f6b3          	and	x13,x13,x14
aaaab020:	00b6c6b3          	xor	x13,x13,x11
aaaab024:	01069693          	slli	x13,x13,0x10
aaaab028:	0106d693          	srli	x13,x13,0x10
aaaab02c:	00135793          	srli	x15,x6,0x1
aaaab030:	00d7c7b3          	xor	x15,x15,x13
aaaab034:	0017f793          	andi	x15,x15,1
aaaab038:	40f007b3          	neg	x15,x15
aaaab03c:	00e7f7b3          	and	x15,x15,x14
aaaab040:	0016d693          	srli	x13,x13,0x1
aaaab044:	00d7c7b3          	xor	x15,x15,x13
aaaab048:	01079793          	slli	x15,x15,0x10
aaaab04c:	00235813          	srli	x16,x6,0x2
aaaab050:	0107d793          	srli	x15,x15,0x10
aaaab054:	00f84833          	xor	x16,x16,x15
aaaab058:	00187813          	andi	x16,x16,1
aaaab05c:	41000833          	neg	x16,x16
aaaab060:	00e87833          	and	x16,x16,x14
aaaab064:	0017d793          	srli	x15,x15,0x1
aaaab068:	00f84833          	xor	x16,x16,x15
aaaab06c:	01081813          	slli	x16,x16,0x10
aaaab070:	00335593          	srli	x11,x6,0x3
aaaab074:	01085813          	srli	x16,x16,0x10
aaaab078:	0105c5b3          	xor	x11,x11,x16
aaaab07c:	0015f593          	andi	x11,x11,1
aaaab080:	40b005b3          	neg	x11,x11
aaaab084:	00e5f5b3          	and	x11,x11,x14
aaaab088:	00185813          	srli	x16,x16,0x1
aaaab08c:	0105c5b3          	xor	x11,x11,x16
aaaab090:	01059593          	slli	x11,x11,0x10
aaaab094:	00435613          	srli	x12,x6,0x4
aaaab098:	0105d593          	srli	x11,x11,0x10
aaaab09c:	00b64633          	xor	x12,x12,x11
aaaab0a0:	00167613          	andi	x12,x12,1
aaaab0a4:	40c00633          	neg	x12,x12
aaaab0a8:	00e67633          	and	x12,x12,x14
aaaab0ac:	0015d593          	srli	x11,x11,0x1
aaaab0b0:	00b64633          	xor	x12,x12,x11
aaaab0b4:	01061613          	slli	x12,x12,0x10
aaaab0b8:	00535693          	srli	x13,x6,0x5
aaaab0bc:	01065613          	srli	x12,x12,0x10
aaaab0c0:	00c6c6b3          	xor	x13,x13,x12
aaaab0c4:	0016f693          	andi	x13,x13,1
aaaab0c8:	40d006b3          	neg	x13,x13
aaaab0cc:	00e6f6b3          	and	x13,x13,x14
aaaab0d0:	00165613          	srli	x12,x12,0x1
aaaab0d4:	00c6c6b3          	xor	x13,x13,x12
aaaab0d8:	01069693          	slli	x13,x13,0x10
aaaab0dc:	00635793          	srli	x15,x6,0x6
aaaab0e0:	0106d693          	srli	x13,x13,0x10
aaaab0e4:	00d7c7b3          	xor	x15,x15,x13
aaaab0e8:	0017f793          	andi	x15,x15,1
aaaab0ec:	40f007b3          	neg	x15,x15
aaaab0f0:	00e7f7b3          	and	x15,x15,x14
aaaab0f4:	0016d693          	srli	x13,x13,0x1
aaaab0f8:	00d7c7b3          	xor	x15,x15,x13
aaaab0fc:	01079793          	slli	x15,x15,0x10
aaaab100:	0107d793          	srli	x15,x15,0x10
aaaab104:	00735313          	srli	x6,x6,0x7
aaaab108:	00f34333          	xor	x6,x6,x15
aaaab10c:	00137313          	andi	x6,x6,1
aaaab110:	40600333          	neg	x6,x6
aaaab114:	00e37333          	and	x6,x6,x14
aaaab118:	0017d793          	srli	x15,x15,0x1
aaaab11c:	00f34333          	xor	x6,x6,x15
aaaab120:	01031313          	slli	x6,x6,0x10
aaaab124:	00855513          	srli	x10,x10,0x8
aaaab128:	01035313          	srli	x6,x6,0x10
aaaab12c:	006547b3          	xor	x15,x10,x6
aaaab130:	0017f793          	andi	x15,x15,1
aaaab134:	40f007b3          	neg	x15,x15
aaaab138:	00e7f7b3          	and	x15,x15,x14
aaaab13c:	00135313          	srli	x6,x6,0x1
aaaab140:	0067c7b3          	xor	x15,x15,x6
aaaab144:	01079793          	slli	x15,x15,0x10
aaaab148:	00155e93          	srli	x29,x10,0x1
aaaab14c:	0107d793          	srli	x15,x15,0x10
aaaab150:	00255e13          	srli	x28,x10,0x2
aaaab154:	00355893          	srli	x17,x10,0x3
aaaab158:	00455813          	srli	x16,x10,0x4
aaaab15c:	00655693          	srli	x13,x10,0x6
aaaab160:	00755593          	srli	x11,x10,0x7
aaaab164:	00555613          	srli	x12,x10,0x5
aaaab168:	00fec533          	xor	x10,x29,x15
aaaab16c:	00157513          	andi	x10,x10,1
aaaab170:	40a00533          	neg	x10,x10
aaaab174:	00e57533          	and	x10,x10,x14
aaaab178:	0017d793          	srli	x15,x15,0x1
aaaab17c:	00f54533          	xor	x10,x10,x15
aaaab180:	01051513          	slli	x10,x10,0x10
aaaab184:	01055513          	srli	x10,x10,0x10
aaaab188:	00ae47b3          	xor	x15,x28,x10
aaaab18c:	0017f793          	andi	x15,x15,1
aaaab190:	40f007b3          	neg	x15,x15
aaaab194:	00e7f7b3          	and	x15,x15,x14
aaaab198:	00155513          	srli	x10,x10,0x1
aaaab19c:	00a7c7b3          	xor	x15,x15,x10
aaaab1a0:	01079793          	slli	x15,x15,0x10
aaaab1a4:	0107d793          	srli	x15,x15,0x10
aaaab1a8:	00f8c533          	xor	x10,x17,x15
aaaab1ac:	00157513          	andi	x10,x10,1
aaaab1b0:	40a00533          	neg	x10,x10
aaaab1b4:	00e57533          	and	x10,x10,x14
aaaab1b8:	0017d793          	srli	x15,x15,0x1
aaaab1bc:	00f54533          	xor	x10,x10,x15
aaaab1c0:	01051513          	slli	x10,x10,0x10
aaaab1c4:	01055513          	srli	x10,x10,0x10
aaaab1c8:	00a847b3          	xor	x15,x16,x10
aaaab1cc:	0017f793          	andi	x15,x15,1
aaaab1d0:	40f007b3          	neg	x15,x15
aaaab1d4:	00e7f7b3          	and	x15,x15,x14
aaaab1d8:	00155513          	srli	x10,x10,0x1
aaaab1dc:	00a7c7b3          	xor	x15,x15,x10
aaaab1e0:	01079793          	slli	x15,x15,0x10
aaaab1e4:	0107d793          	srli	x15,x15,0x10
aaaab1e8:	00f64633          	xor	x12,x12,x15
aaaab1ec:	00167613          	andi	x12,x12,1
aaaab1f0:	40c00633          	neg	x12,x12
aaaab1f4:	00e67633          	and	x12,x12,x14
aaaab1f8:	0017d793          	srli	x15,x15,0x1
aaaab1fc:	00f64633          	xor	x12,x12,x15
aaaab200:	01061613          	slli	x12,x12,0x10
aaaab204:	01065613          	srli	x12,x12,0x10
aaaab208:	00c6c7b3          	xor	x15,x13,x12
aaaab20c:	0017f793          	andi	x15,x15,1
aaaab210:	40f007b3          	neg	x15,x15
aaaab214:	00e7f7b3          	and	x15,x15,x14
aaaab218:	00165613          	srli	x12,x12,0x1
aaaab21c:	00c7c7b3          	xor	x15,x15,x12
aaaab220:	01079793          	slli	x15,x15,0x10
aaaab224:	0107d793          	srli	x15,x15,0x10
aaaab228:	00f5c533          	xor	x10,x11,x15
aaaab22c:	00157513          	andi	x10,x10,1
aaaab230:	40a00533          	neg	x10,x10
aaaab234:	00e57533          	and	x10,x10,x14
aaaab238:	0017d793          	srli	x15,x15,0x1
aaaab23c:	00f54533          	xor	x10,x10,x15
aaaab240:	01051513          	slli	x10,x10,0x10
aaaab244:	01055513          	srli	x10,x10,0x10
aaaab248:	00008067          	ret

aaaab24c <core_state_transition>:
aaaab24c:	00052683          	lw	x13,0(x10)
aaaab250:	00050613          	mv	x12,x10
aaaab254:	0006c783          	lbu	x15,0(x13)
aaaab258:	28078063          	beqz	x15,aaaab4d8 <core_state_transition+0x28c>
aaaab25c:	02c00713          	li	x14,44
aaaab260:	00000513          	li	x10,0
aaaab264:	1ee78e63          	beq	x15,x14,aaaab460 <core_state_transition+0x214>
aaaab268:	02e00813          	li	x16,46
aaaab26c:	23078863          	beq	x15,x16,aaaab49c <core_state_transition+0x250>
aaaab270:	1ef86c63          	bltu	x16,x15,aaaab468 <core_state_transition+0x21c>
aaaab274:	fd578793          	addi	x15,x15,-43
aaaab278:	0fd7f793          	andi	x15,x15,253
aaaab27c:	02078663          	beqz	x15,aaaab2a8 <core_state_transition+0x5c>
aaaab280:	0045a703          	lw	x14,4(x11)
aaaab284:	0005a783          	lw	x15,0(x11)
aaaab288:	00168693          	addi	x13,x13,1
aaaab28c:	00170713          	addi	x14,x14,1
aaaab290:	00178793          	addi	x15,x15,1
aaaab294:	00e5a223          	sw	x14,4(x11)
aaaab298:	00f5a023          	sw	x15,0(x11)
aaaab29c:	00100513          	li	x10,1
aaaab2a0:	00d62023          	sw	x13,0(x12)
aaaab2a4:	00008067          	ret
aaaab2a8:	0005a503          	lw	x10,0(x11)
aaaab2ac:	00168793          	addi	x15,x13,1
aaaab2b0:	00150513          	addi	x10,x10,1
aaaab2b4:	00a5a023          	sw	x10,0(x11)
aaaab2b8:	0016c883          	lbu	x17,1(x13)
aaaab2bc:	26088463          	beqz	x17,aaaab524 <core_state_transition+0x2d8>
aaaab2c0:	20e88463          	beq	x17,x14,aaaab4c8 <core_state_transition+0x27c>
aaaab2c4:	0085a503          	lw	x10,8(x11)
aaaab2c8:	fd088713          	addi	x14,x17,-48
aaaab2cc:	0ff77713          	zext.b	x14,x14
aaaab2d0:	00900313          	li	x6,9
aaaab2d4:	00150513          	addi	x10,x10,1
aaaab2d8:	00e37e63          	bgeu	x6,x14,aaaab2f4 <core_state_transition+0xa8>
aaaab2dc:	1f088263          	beq	x17,x16,aaaab4c0 <core_state_transition+0x274>
aaaab2e0:	00a5a423          	sw	x10,8(x11)
aaaab2e4:	00268693          	addi	x13,x13,2
aaaab2e8:	00100513          	li	x10,1
aaaab2ec:	00d62023          	sw	x13,0(x12)
aaaab2f0:	00008067          	ret
aaaab2f4:	00a5a423          	sw	x10,8(x11)
aaaab2f8:	0017c683          	lbu	x13,1(x15)
aaaab2fc:	00178793          	addi	x15,x15,1
aaaab300:	18068863          	beqz	x13,aaaab490 <core_state_transition+0x244>
aaaab304:	02c00713          	li	x14,44
aaaab308:	14e68863          	beq	x13,x14,aaaab458 <core_state_transition+0x20c>
aaaab30c:	02e00713          	li	x14,46
aaaab310:	02e68863          	beq	x13,x14,aaaab340 <core_state_transition+0xf4>
aaaab314:	fd068693          	addi	x13,x13,-48
aaaab318:	0ff6f693          	zext.b	x13,x13
aaaab31c:	00900713          	li	x14,9
aaaab320:	fcd77ce3          	bgeu	x14,x13,aaaab2f8 <core_state_transition+0xac>
aaaab324:	0105a703          	lw	x14,16(x11)
aaaab328:	00100513          	li	x10,1
aaaab32c:	00178693          	addi	x13,x15,1
aaaab330:	00a707b3          	add	x15,x14,x10
aaaab334:	00f5a823          	sw	x15,16(x11)
aaaab338:	00d62023          	sw	x13,0(x12)
aaaab33c:	00008067          	ret
aaaab340:	0105a703          	lw	x14,16(x11)
aaaab344:	00170713          	addi	x14,x14,1
aaaab348:	00e5a823          	sw	x14,16(x11)
aaaab34c:	0017c683          	lbu	x13,1(x15)
aaaab350:	00178793          	addi	x15,x15,1
aaaab354:	02c00713          	li	x14,44
aaaab358:	14068e63          	beqz	x13,aaaab4b4 <core_state_transition+0x268>
aaaab35c:	18e68263          	beq	x13,x14,aaaab4e0 <core_state_transition+0x294>
aaaab360:	0df6f713          	andi	x14,x13,223
aaaab364:	04500513          	li	x10,69
aaaab368:	02a70863          	beq	x14,x10,aaaab398 <core_state_transition+0x14c>
aaaab36c:	fd068693          	addi	x13,x13,-48
aaaab370:	0ff6f693          	zext.b	x13,x13
aaaab374:	00900713          	li	x14,9
aaaab378:	fcd77ae3          	bgeu	x14,x13,aaaab34c <core_state_transition+0x100>
aaaab37c:	0145a703          	lw	x14,20(x11)
aaaab380:	00100513          	li	x10,1
aaaab384:	00178693          	addi	x13,x15,1
aaaab388:	00a707b3          	add	x15,x14,x10
aaaab38c:	00f5aa23          	sw	x15,20(x11)
aaaab390:	00d62023          	sw	x13,0(x12)
aaaab394:	00008067          	ret
aaaab398:	0145a703          	lw	x14,20(x11)
aaaab39c:	00178693          	addi	x13,x15,1
aaaab3a0:	00300513          	li	x10,3
aaaab3a4:	00170713          	addi	x14,x14,1
aaaab3a8:	00e5aa23          	sw	x14,20(x11)
aaaab3ac:	0017c703          	lbu	x14,1(x15)
aaaab3b0:	ee0708e3          	beqz	x14,aaaab2a0 <core_state_transition+0x54>
aaaab3b4:	02c00513          	li	x10,44
aaaab3b8:	14a70663          	beq	x14,x10,aaaab504 <core_state_transition+0x2b8>
aaaab3bc:	00c5a683          	lw	x13,12(x11)
aaaab3c0:	fd570713          	addi	x14,x14,-43
aaaab3c4:	0fd77713          	andi	x14,x14,253
aaaab3c8:	00168693          	addi	x13,x13,1
aaaab3cc:	00d5a623          	sw	x13,12(x11)
aaaab3d0:	00070a63          	beqz	x14,aaaab3e4 <core_state_transition+0x198>
aaaab3d4:	00278693          	addi	x13,x15,2
aaaab3d8:	00100513          	li	x10,1
aaaab3dc:	00d62023          	sw	x13,0(x12)
aaaab3e0:	00008067          	ret
aaaab3e4:	0027c703          	lbu	x14,2(x15)
aaaab3e8:	00278693          	addi	x13,x15,2
aaaab3ec:	10070263          	beqz	x14,aaaab4f0 <core_state_transition+0x2a4>
aaaab3f0:	10a70463          	beq	x14,x10,aaaab4f8 <core_state_transition+0x2ac>
aaaab3f4:	0185a803          	lw	x16,24(x11)
aaaab3f8:	fd070713          	addi	x14,x14,-48
aaaab3fc:	0ff77713          	zext.b	x14,x14
aaaab400:	00180813          	addi	x16,x16,1
aaaab404:	00900513          	li	x10,9
aaaab408:	0105ac23          	sw	x16,24(x11)
aaaab40c:	00e57863          	bgeu	x10,x14,aaaab41c <core_state_transition+0x1d0>
aaaab410:	00378693          	addi	x13,x15,3
aaaab414:	00100513          	li	x10,1
aaaab418:	e89ff06f          	j	aaaab2a0 <core_state_transition+0x54>
aaaab41c:	00068813          	mv	x16,x13
aaaab420:	0016c703          	lbu	x14,1(x13)
aaaab424:	00168693          	addi	x13,x13,1
aaaab428:	02c00893          	li	x17,44
aaaab42c:	fd070793          	addi	x15,x14,-48
aaaab430:	0ff7f793          	zext.b	x15,x15
aaaab434:	0c070e63          	beqz	x14,aaaab510 <core_state_transition+0x2c4>
aaaab438:	0f170063          	beq	x14,x17,aaaab518 <core_state_transition+0x2cc>
aaaab43c:	fef570e3          	bgeu	x10,x15,aaaab41c <core_state_transition+0x1d0>
aaaab440:	0045a783          	lw	x15,4(x11)
aaaab444:	00100513          	li	x10,1
aaaab448:	00280693          	addi	x13,x16,2
aaaab44c:	00a787b3          	add	x15,x15,x10
aaaab450:	00f5a223          	sw	x15,4(x11)
aaaab454:	e4dff06f          	j	aaaab2a0 <core_state_transition+0x54>
aaaab458:	00078693          	mv	x13,x15
aaaab45c:	00400513          	li	x10,4
aaaab460:	00168693          	addi	x13,x13,1
aaaab464:	e3dff06f          	j	aaaab2a0 <core_state_transition+0x54>
aaaab468:	fd078793          	addi	x15,x15,-48
aaaab46c:	0ff7f793          	zext.b	x15,x15
aaaab470:	00900513          	li	x10,9
aaaab474:	e0f566e3          	bltu	x10,x15,aaaab280 <core_state_transition+0x34>
aaaab478:	0005a503          	lw	x10,0(x11)
aaaab47c:	00168793          	addi	x15,x13,1
aaaab480:	00150513          	addi	x10,x10,1
aaaab484:	00a5a023          	sw	x10,0(x11)
aaaab488:	0016c683          	lbu	x13,1(x13)
aaaab48c:	e6069ee3          	bnez	x13,aaaab308 <core_state_transition+0xbc>
aaaab490:	00078693          	mv	x13,x15
aaaab494:	00400513          	li	x10,4
aaaab498:	e09ff06f          	j	aaaab2a0 <core_state_transition+0x54>
aaaab49c:	0005a503          	lw	x10,0(x11)
aaaab4a0:	00168793          	addi	x15,x13,1
aaaab4a4:	00150513          	addi	x10,x10,1
aaaab4a8:	00a5a023          	sw	x10,0(x11)
aaaab4ac:	0016c683          	lbu	x13,1(x13)
aaaab4b0:	ea0696e3          	bnez	x13,aaaab35c <core_state_transition+0x110>
aaaab4b4:	00078693          	mv	x13,x15
aaaab4b8:	00500513          	li	x10,5
aaaab4bc:	de5ff06f          	j	aaaab2a0 <core_state_transition+0x54>
aaaab4c0:	00a5a423          	sw	x10,8(x11)
aaaab4c4:	e89ff06f          	j	aaaab34c <core_state_transition+0x100>
aaaab4c8:	00078693          	mv	x13,x15
aaaab4cc:	00200513          	li	x10,2
aaaab4d0:	00168693          	addi	x13,x13,1
aaaab4d4:	dcdff06f          	j	aaaab2a0 <core_state_transition+0x54>
aaaab4d8:	00000513          	li	x10,0
aaaab4dc:	dc5ff06f          	j	aaaab2a0 <core_state_transition+0x54>
aaaab4e0:	00078693          	mv	x13,x15
aaaab4e4:	00500513          	li	x10,5
aaaab4e8:	00168693          	addi	x13,x13,1
aaaab4ec:	db5ff06f          	j	aaaab2a0 <core_state_transition+0x54>
aaaab4f0:	00600513          	li	x10,6
aaaab4f4:	dadff06f          	j	aaaab2a0 <core_state_transition+0x54>
aaaab4f8:	00600513          	li	x10,6
aaaab4fc:	00168693          	addi	x13,x13,1
aaaab500:	da1ff06f          	j	aaaab2a0 <core_state_transition+0x54>
aaaab504:	00300513          	li	x10,3
aaaab508:	00168693          	addi	x13,x13,1
aaaab50c:	d95ff06f          	j	aaaab2a0 <core_state_transition+0x54>
aaaab510:	00700513          	li	x10,7
aaaab514:	d8dff06f          	j	aaaab2a0 <core_state_transition+0x54>
aaaab518:	00700513          	li	x10,7
aaaab51c:	00168693          	addi	x13,x13,1
aaaab520:	d81ff06f          	j	aaaab2a0 <core_state_transition+0x54>
aaaab524:	00078693          	mv	x13,x15
aaaab528:	00200513          	li	x10,2
aaaab52c:	d75ff06f          	j	aaaab2a0 <core_state_transition+0x54>

aaaab530 <calc_func>:
aaaab530:	00051703          	lh	x14,0(x10)
aaaab534:	f4010113          	addi	x2,x2,-192
aaaab538:	02a12223          	sw	x10,36(x2)
aaaab53c:	40775793          	srai	x15,x14,0x7
aaaab540:	0017f793          	andi	x15,x15,1
aaaab544:	0a112e23          	sw	x1,188(x2)
aaaab548:	00e12e23          	sw	x14,28(x2)
aaaab54c:	00b12c23          	sw	x11,24(x2)
aaaab550:	02f12423          	sw	x15,40(x2)
aaaab554:	07f77513          	andi	x10,x14,127
aaaab558:	36079263          	bnez	x15,aaaab8bc <calc_func+0x38c>
aaaab55c:	0b512223          	sw	x21,164(x2)
aaaab560:	40375a93          	srai	x21,x14,0x3
aaaab564:	00fafa93          	andi	x21,x21,15
aaaab568:	00070693          	mv	x13,x14
aaaab56c:	004a9713          	slli	x14,x21,0x4
aaaab570:	00ea8ab3          	add	x21,x21,x14
aaaab574:	01812703          	lw	x14,24(x2)
aaaab578:	0b312623          	sw	x19,172(x2)
aaaab57c:	09712e23          	sw	x23,156(x2)
aaaab580:	03875703          	lhu	x14,56(x14)
aaaab584:	0076f793          	andi	x15,x13,7
aaaab588:	00e12423          	sw	x14,8(x2)
aaaab58c:	32078e63          	beqz	x15,aaaab8c8 <calc_func+0x398>
aaaab590:	00100713          	li	x14,1
aaaab594:	0ae79263          	bne	x15,x14,aaaab638 <calc_func+0x108>
aaaab598:	01812783          	lw	x15,24(x2)
aaaab59c:	0b612023          	sw	x22,160(x2)
aaaab5a0:	0b212823          	sw	x18,176(x2)
aaaab5a4:	0347a703          	lw	x14,52(x15)
aaaab5a8:	0287ab03          	lw	x22,40(x15)
aaaab5ac:	fffff937          	lui	x18,0xfffff
aaaab5b0:	00e12223          	sw	x14,4(x2)
aaaab5b4:	02c7a703          	lw	x14,44(x15)
aaaab5b8:	0307a783          	lw	x15,48(x15)
aaaab5bc:	0a812c23          	sw	x8,184(x2)
aaaab5c0:	0a912a23          	sw	x9,180(x2)
aaaab5c4:	0b412423          	sw	x20,168(x2)
aaaab5c8:	09812c23          	sw	x24,152(x2)
aaaab5cc:	09912a23          	sw	x25,148(x2)
aaaab5d0:	09a12823          	sw	x26,144(x2)
aaaab5d4:	09b12623          	sw	x27,140(x2)
aaaab5d8:	02e12023          	sw	x14,32(x2)
aaaab5dc:	00f12623          	sw	x15,12(x2)
aaaab5e0:	012ae933          	or	x18,x21,x18
aaaab5e4:	000b1463          	bnez	x22,aaaab5ec <calc_func+0xbc>
aaaab5e8:	6450106f          	j	aaaad42c <calc_func+0x1efc>
aaaab5ec:	001b1793          	slli	x15,x22,0x1
aaaab5f0:	00f70433          	add	x8,x14,x15
aaaab5f4:	416008b3          	neg	x17,x22
aaaab5f8:	00078c13          	mv	x24,x15
aaaab5fc:	00040693          	mv	x13,x8
aaaab600:	00289493          	slli	x9,x17,0x2
aaaab604:	00000c93          	li	x25,0
aaaab608:	41868633          	sub	x12,x13,x24
aaaab60c:	00060793          	mv	x15,x12
aaaab610:	0007d703          	lhu	x14,0(x15)
aaaab614:	00278793          	addi	x15,x15,2
aaaab618:	00ea8733          	add	x14,x21,x14
aaaab61c:	fee79f23          	sh	x14,-2(x15)
aaaab620:	fed798e3          	bne	x15,x13,aaaab610 <calc_func+0xe0>
aaaab624:	001c8a13          	addi	x20,x25,1
aaaab628:	409606b3          	sub	x13,x12,x9
aaaab62c:	594b06e3          	beq	x22,x20,aaaac3b8 <calc_func+0xe88>
aaaab630:	000a0c93          	mv	x25,x20
aaaab634:	fd5ff06f          	j	aaaab608 <calc_func+0xd8>
aaaab638:	01069313          	slli	x6,x13,0x10
aaaab63c:	01035313          	srli	x6,x6,0x10
aaaab640:	00068513          	mv	x10,x13
aaaab644:	00812783          	lw	x15,8(x2)
aaaab648:	0ff57813          	zext.b	x16,x10
aaaab64c:	ffffa737          	lui	x14,0xffffa
aaaab650:	00f84633          	xor	x12,x16,x15
aaaab654:	00167613          	andi	x12,x12,1
aaaab658:	00170713          	addi	x14,x14,1 # ffffa001 <_stack_top+0xfffa001>
aaaab65c:	40c00633          	neg	x12,x12
aaaab660:	0017d993          	srli	x19,x15,0x1
aaaab664:	00e67633          	and	x12,x12,x14
aaaab668:	01364633          	xor	x12,x12,x19
aaaab66c:	01061613          	slli	x12,x12,0x10
aaaab670:	01065613          	srli	x12,x12,0x10
aaaab674:	00185693          	srli	x13,x16,0x1
aaaab678:	00c6c6b3          	xor	x13,x13,x12
aaaab67c:	0016f693          	andi	x13,x13,1
aaaab680:	40d006b3          	neg	x13,x13
aaaab684:	00e6f6b3          	and	x13,x13,x14
aaaab688:	00165613          	srli	x12,x12,0x1
aaaab68c:	00c6c6b3          	xor	x13,x13,x12
aaaab690:	01069693          	slli	x13,x13,0x10
aaaab694:	00285793          	srli	x15,x16,0x2
aaaab698:	0106d693          	srli	x13,x13,0x10
aaaab69c:	00d7c7b3          	xor	x15,x15,x13
aaaab6a0:	0017f793          	andi	x15,x15,1
aaaab6a4:	40f007b3          	neg	x15,x15
aaaab6a8:	00e7f7b3          	and	x15,x15,x14
aaaab6ac:	0016d693          	srli	x13,x13,0x1
aaaab6b0:	00d7c7b3          	xor	x15,x15,x13
aaaab6b4:	01079793          	slli	x15,x15,0x10
aaaab6b8:	00385893          	srli	x17,x16,0x3
aaaab6bc:	0107d793          	srli	x15,x15,0x10
aaaab6c0:	00f8c8b3          	xor	x17,x17,x15
aaaab6c4:	0018f893          	andi	x17,x17,1
aaaab6c8:	411008b3          	neg	x17,x17
aaaab6cc:	00e8f8b3          	and	x17,x17,x14
aaaab6d0:	0017d793          	srli	x15,x15,0x1
aaaab6d4:	00f8c8b3          	xor	x17,x17,x15
aaaab6d8:	01089893          	slli	x17,x17,0x10
aaaab6dc:	00485593          	srli	x11,x16,0x4
aaaab6e0:	0108d893          	srli	x17,x17,0x10
aaaab6e4:	0115c5b3          	xor	x11,x11,x17
aaaab6e8:	0015f593          	andi	x11,x11,1
aaaab6ec:	40b005b3          	neg	x11,x11
aaaab6f0:	00e5f5b3          	and	x11,x11,x14
aaaab6f4:	0018d893          	srli	x17,x17,0x1
aaaab6f8:	0115c5b3          	xor	x11,x11,x17
aaaab6fc:	01059593          	slli	x11,x11,0x10
aaaab700:	00585613          	srli	x12,x16,0x5
aaaab704:	0105d593          	srli	x11,x11,0x10
aaaab708:	00b64633          	xor	x12,x12,x11
aaaab70c:	00167613          	andi	x12,x12,1
aaaab710:	40c00633          	neg	x12,x12
aaaab714:	00e67633          	and	x12,x12,x14
aaaab718:	0015d593          	srli	x11,x11,0x1
aaaab71c:	00b64633          	xor	x12,x12,x11
aaaab720:	01061613          	slli	x12,x12,0x10
aaaab724:	00685693          	srli	x13,x16,0x6
aaaab728:	01065613          	srli	x12,x12,0x10
aaaab72c:	00c6c6b3          	xor	x13,x13,x12
aaaab730:	0016f693          	andi	x13,x13,1
aaaab734:	40d006b3          	neg	x13,x13
aaaab738:	00e6f6b3          	and	x13,x13,x14
aaaab73c:	00165613          	srli	x12,x12,0x1
aaaab740:	00c6c6b3          	xor	x13,x13,x12
aaaab744:	01069693          	slli	x13,x13,0x10
aaaab748:	0106d693          	srli	x13,x13,0x10
aaaab74c:	00785813          	srli	x16,x16,0x7
aaaab750:	00d84833          	xor	x16,x16,x13
aaaab754:	00187813          	andi	x16,x16,1
aaaab758:	41000833          	neg	x16,x16
aaaab75c:	00e87833          	and	x16,x16,x14
aaaab760:	0016d693          	srli	x13,x13,0x1
aaaab764:	01c12e83          	lw	x29,28(x2)
aaaab768:	00d84833          	xor	x16,x16,x13
aaaab76c:	00835793          	srli	x15,x6,0x8
aaaab770:	01081813          	slli	x16,x16,0x10
aaaab774:	0ff7f793          	zext.b	x15,x15
aaaab778:	01085813          	srli	x16,x16,0x10
aaaab77c:	f00efb93          	andi	x23,x29,-256
aaaab780:	0107ceb3          	xor	x29,x15,x16
aaaab784:	001efe93          	andi	x29,x29,1
aaaab788:	41d00eb3          	neg	x29,x29
aaaab78c:	00eefeb3          	and	x29,x29,x14
aaaab790:	00185813          	srli	x16,x16,0x1
aaaab794:	010ec833          	xor	x16,x29,x16
aaaab798:	01081813          	slli	x16,x16,0x10
aaaab79c:	0017de13          	srli	x28,x15,0x1
aaaab7a0:	01085813          	srli	x16,x16,0x10
aaaab7a4:	010e4e33          	xor	x28,x28,x16
aaaab7a8:	001e7e13          	andi	x28,x28,1
aaaab7ac:	41c00e33          	neg	x28,x28
aaaab7b0:	00ee7e33          	and	x28,x28,x14
aaaab7b4:	00185813          	srli	x16,x16,0x1
aaaab7b8:	010e4e33          	xor	x28,x28,x16
aaaab7bc:	010e1e13          	slli	x28,x28,0x10
aaaab7c0:	0027d313          	srli	x6,x15,0x2
aaaab7c4:	010e5e13          	srli	x28,x28,0x10
aaaab7c8:	01c34333          	xor	x6,x6,x28
aaaab7cc:	00137313          	andi	x6,x6,1
aaaab7d0:	40600333          	neg	x6,x6
aaaab7d4:	00e37333          	and	x6,x6,x14
aaaab7d8:	001e5e13          	srli	x28,x28,0x1
aaaab7dc:	01c34333          	xor	x6,x6,x28
aaaab7e0:	01031313          	slli	x6,x6,0x10
aaaab7e4:	0037d893          	srli	x17,x15,0x3
aaaab7e8:	01035313          	srli	x6,x6,0x10
aaaab7ec:	0068c8b3          	xor	x17,x17,x6
aaaab7f0:	0018f893          	andi	x17,x17,1
aaaab7f4:	411008b3          	neg	x17,x17
aaaab7f8:	00e8f8b3          	and	x17,x17,x14
aaaab7fc:	00135313          	srli	x6,x6,0x1
aaaab800:	0068c8b3          	xor	x17,x17,x6
aaaab804:	01089893          	slli	x17,x17,0x10
aaaab808:	0047d593          	srli	x11,x15,0x4
aaaab80c:	0108d893          	srli	x17,x17,0x10
aaaab810:	0115c5b3          	xor	x11,x11,x17
aaaab814:	0015f593          	andi	x11,x11,1
aaaab818:	40b005b3          	neg	x11,x11
aaaab81c:	00e5f5b3          	and	x11,x11,x14
aaaab820:	0018d893          	srli	x17,x17,0x1
aaaab824:	0115c5b3          	xor	x11,x11,x17
aaaab828:	01059593          	slli	x11,x11,0x10
aaaab82c:	0057d613          	srli	x12,x15,0x5
aaaab830:	0105d593          	srli	x11,x11,0x10
aaaab834:	00b64633          	xor	x12,x12,x11
aaaab838:	00167613          	andi	x12,x12,1
aaaab83c:	40c00633          	neg	x12,x12
aaaab840:	00e67633          	and	x12,x12,x14
aaaab844:	0015d593          	srli	x11,x11,0x1
aaaab848:	00b64633          	xor	x12,x12,x11
aaaab84c:	01061613          	slli	x12,x12,0x10
aaaab850:	0067d693          	srli	x13,x15,0x6
aaaab854:	01065613          	srli	x12,x12,0x10
aaaab858:	00c6c6b3          	xor	x13,x13,x12
aaaab85c:	0016f693          	andi	x13,x13,1
aaaab860:	40d006b3          	neg	x13,x13
aaaab864:	00e6f6b3          	and	x13,x13,x14
aaaab868:	00165613          	srli	x12,x12,0x1
aaaab86c:	00c6c6b3          	xor	x13,x13,x12
aaaab870:	01069693          	slli	x13,x13,0x10
aaaab874:	0106d693          	srli	x13,x13,0x10
aaaab878:	0077d793          	srli	x15,x15,0x7
aaaab87c:	00d7c7b3          	xor	x15,x15,x13
aaaab880:	0017f793          	andi	x15,x15,1
aaaab884:	40f007b3          	neg	x15,x15
aaaab888:	00e7f7b3          	and	x15,x15,x14
aaaab88c:	01812703          	lw	x14,24(x2)
aaaab890:	0016d693          	srli	x13,x13,0x1
aaaab894:	00d7c7b3          	xor	x15,x15,x13
aaaab898:	07f57513          	andi	x10,x10,127
aaaab89c:	01756bb3          	or	x23,x10,x23
aaaab8a0:	02f71c23          	sh	x15,56(x14)
aaaab8a4:	02412783          	lw	x15,36(x2)
aaaab8a8:	080be813          	ori	x16,x23,128
aaaab8ac:	0ac12983          	lw	x19,172(x2)
aaaab8b0:	0a412a83          	lw	x21,164(x2)
aaaab8b4:	09c12b83          	lw	x23,156(x2)
aaaab8b8:	01079023          	sh	x16,0(x15)
aaaab8bc:	0bc12083          	lw	x1,188(x2)
aaaab8c0:	0c010113          	addi	x2,x2,192
aaaab8c4:	00008067          	ret
aaaab8c8:	0b212823          	sw	x18,176(x2)
aaaab8cc:	0a812c23          	sw	x8,184(x2)
aaaab8d0:	0a912a23          	sw	x9,180(x2)
aaaab8d4:	0b412423          	sw	x20,168(x2)
aaaab8d8:	0b612023          	sw	x22,160(x2)
aaaab8dc:	09812c23          	sw	x24,152(x2)
aaaab8e0:	09912a23          	sw	x25,148(x2)
aaaab8e4:	02200793          	li	x15,34
aaaab8e8:	000a8913          	mv	x18,x21
aaaab8ec:	00faf463          	bgeu	x21,x15,aaaab8f4 <calc_func+0x3c4>
aaaab8f0:	00078913          	mv	x18,x15
aaaab8f4:	01812703          	lw	x14,24(x2)
aaaab8f8:	01091913          	slli	x18,x18,0x10
aaaab8fc:	06012023          	sw	x0,96(x2)
aaaab900:	01472483          	lw	x9,20(x14)
aaaab904:	04012023          	sw	x0,64(x2)
aaaab908:	06012223          	sw	x0,100(x2)
aaaab90c:	0004c783          	lbu	x15,0(x9)
aaaab910:	04012223          	sw	x0,68(x2)
aaaab914:	06012423          	sw	x0,104(x2)
aaaab918:	04012423          	sw	x0,72(x2)
aaaab91c:	06012623          	sw	x0,108(x2)
aaaab920:	04012623          	sw	x0,76(x2)
aaaab924:	06012823          	sw	x0,112(x2)
aaaab928:	04012823          	sw	x0,80(x2)
aaaab92c:	06012a23          	sw	x0,116(x2)
aaaab930:	04012a23          	sw	x0,84(x2)
aaaab934:	06012c23          	sw	x0,120(x2)
aaaab938:	04012c23          	sw	x0,88(x2)
aaaab93c:	06012e23          	sw	x0,124(x2)
aaaab940:	04012e23          	sw	x0,92(x2)
aaaab944:	02912e23          	sw	x9,60(x2)
aaaab948:	01872c03          	lw	x24,24(x14)
aaaab94c:	00071c83          	lh	x25,0(x14)
aaaab950:	00271b03          	lh	x22,2(x14)
aaaab954:	41095913          	srai	x18,x18,0x10
aaaab958:	06010413          	addi	x8,x2,96
aaaab95c:	03c10a93          	addi	x21,x2,60
aaaab960:	04010a13          	addi	x20,x2,64
aaaab964:	00079463          	bnez	x15,aaaab96c <calc_func+0x43c>
aaaab968:	2e10106f          	j	aaaad448 <calc_func+0x1f18>
aaaab96c:	00040593          	mv	x11,x8
aaaab970:	000a8513          	mv	x10,x21
aaaab974:	00000097          	auipc	x1,0x0
aaaab978:	8d8080e7          	jalr	-1832(x1) # aaaab24c <core_state_transition>
aaaab97c:	00251793          	slli	x15,x10,0x2
aaaab980:	014787b3          	add	x15,x15,x20
aaaab984:	03c12683          	lw	x13,60(x2)
aaaab988:	0007a703          	lw	x14,0(x15)
aaaab98c:	0006c683          	lbu	x13,0(x13)
aaaab990:	00170713          	addi	x14,x14,1
aaaab994:	00e7a023          	sw	x14,0(x15)
aaaab998:	fc069ae3          	bnez	x13,aaaab96c <calc_func+0x43c>
aaaab99c:	02912e23          	sw	x9,60(x2)
aaaab9a0:	01848c33          	add	x24,x9,x24
aaaab9a4:	0384f863          	bgeu	x9,x24,aaaab9d4 <calc_func+0x4a4>
aaaab9a8:	00048793          	mv	x15,x9
aaaab9ac:	02c00613          	li	x12,44
aaaab9b0:	0007c703          	lbu	x14,0(x15)
aaaab9b4:	019746b3          	xor	x13,x14,x25
aaaab9b8:	00c70463          	beq	x14,x12,aaaab9c0 <calc_func+0x490>
aaaab9bc:	00d78023          	sb	x13,0(x15)
aaaab9c0:	012787b3          	add	x15,x15,x18
aaaab9c4:	ff87e6e3          	bltu	x15,x24,aaaab9b0 <calc_func+0x480>
aaaab9c8:	0004c783          	lbu	x15,0(x9)
aaaab9cc:	03c10a93          	addi	x21,x2,60
aaaab9d0:	02078a63          	beqz	x15,aaaaba04 <calc_func+0x4d4>
aaaab9d4:	00040593          	mv	x11,x8
aaaab9d8:	000a8513          	mv	x10,x21
aaaab9dc:	00000097          	auipc	x1,0x0
aaaab9e0:	870080e7          	jalr	-1936(x1) # aaaab24c <core_state_transition>
aaaab9e4:	00251793          	slli	x15,x10,0x2
aaaab9e8:	014787b3          	add	x15,x15,x20
aaaab9ec:	03c12683          	lw	x13,60(x2)
aaaab9f0:	0007a703          	lw	x14,0(x15)
aaaab9f4:	0006c683          	lbu	x13,0(x13)
aaaab9f8:	00170713          	addi	x14,x14,1
aaaab9fc:	00e7a023          	sw	x14,0(x15)
aaaaba00:	fc069ae3          	bnez	x13,aaaab9d4 <calc_func+0x4a4>
aaaaba04:	02912e23          	sw	x9,60(x2)
aaaaba08:	02c00693          	li	x13,44
aaaaba0c:	0184fe63          	bgeu	x9,x24,aaaaba28 <calc_func+0x4f8>
aaaaba10:	0004c783          	lbu	x15,0(x9)
aaaaba14:	0167c733          	xor	x14,x15,x22
aaaaba18:	00d78463          	beq	x15,x13,aaaaba20 <calc_func+0x4f0>
aaaaba1c:	00e48023          	sb	x14,0(x9)
aaaaba20:	012484b3          	add	x9,x9,x18
aaaaba24:	ff84e6e3          	bltu	x9,x24,aaaaba10 <calc_func+0x4e0>
aaaaba28:	01812783          	lw	x15,24(x2)
aaaaba2c:	0387d803          	lhu	x16,56(x15)
aaaaba30:	ffffa7b7          	lui	x15,0xffffa
aaaaba34:	000a0593          	mv	x11,x20
aaaaba38:	00178793          	addi	x15,x15,1 # ffffa001 <_stack_top+0xfffa001>
aaaaba3c:	00040513          	mv	x10,x8
aaaaba40:	0005a683          	lw	x13,0(x11)
aaaaba44:	00812883          	lw	x17,8(x2)
aaaaba48:	00052703          	lw	x14,0(x10)
aaaaba4c:	0ff6f613          	zext.b	x12,x13
aaaaba50:	0018d313          	srli	x6,x17,0x1
aaaaba54:	011648b3          	xor	x17,x12,x17
aaaaba58:	0018f893          	andi	x17,x17,1
aaaaba5c:	411008b3          	neg	x17,x17
aaaaba60:	00f8f8b3          	and	x17,x17,x15
aaaaba64:	0068c8b3          	xor	x17,x17,x6
aaaaba68:	01089893          	slli	x17,x17,0x10
aaaaba6c:	0108d893          	srli	x17,x17,0x10
aaaaba70:	00165e13          	srli	x28,x12,0x1
aaaaba74:	011e4e33          	xor	x28,x28,x17
aaaaba78:	001e7e13          	andi	x28,x28,1
aaaaba7c:	41c00e33          	neg	x28,x28
aaaaba80:	0018d893          	srli	x17,x17,0x1
aaaaba84:	00fe7e33          	and	x28,x28,x15
aaaaba88:	011e4e33          	xor	x28,x28,x17
aaaaba8c:	010e1e13          	slli	x28,x28,0x10
aaaaba90:	00265313          	srli	x6,x12,0x2
aaaaba94:	010e5e13          	srli	x28,x28,0x10
aaaaba98:	01c34333          	xor	x6,x6,x28
aaaaba9c:	00137313          	andi	x6,x6,1
aaaabaa0:	40600333          	neg	x6,x6
aaaabaa4:	001e5e13          	srli	x28,x28,0x1
aaaabaa8:	00f37333          	and	x6,x6,x15
aaaabaac:	01c34333          	xor	x6,x6,x28
aaaabab0:	01031313          	slli	x6,x6,0x10
aaaabab4:	00365f13          	srli	x30,x12,0x3
aaaabab8:	01035313          	srli	x6,x6,0x10
aaaababc:	006f4f33          	xor	x30,x30,x6
aaaabac0:	001f7f13          	andi	x30,x30,1
aaaabac4:	41e00f33          	neg	x30,x30
aaaabac8:	00135313          	srli	x6,x6,0x1
aaaabacc:	00ff7f33          	and	x30,x30,x15
aaaabad0:	006f4f33          	xor	x30,x30,x6
aaaabad4:	010f1f13          	slli	x30,x30,0x10
aaaabad8:	00465893          	srli	x17,x12,0x4
aaaabadc:	010f5f13          	srli	x30,x30,0x10
aaaabae0:	01e8c8b3          	xor	x17,x17,x30
aaaabae4:	0018f893          	andi	x17,x17,1
aaaabae8:	411008b3          	neg	x17,x17
aaaabaec:	001f5f13          	srli	x30,x30,0x1
aaaabaf0:	00f8f8b3          	and	x17,x17,x15
aaaabaf4:	01e8c8b3          	xor	x17,x17,x30
aaaabaf8:	01089893          	slli	x17,x17,0x10
aaaabafc:	00565e93          	srli	x29,x12,0x5
aaaabb00:	0108d893          	srli	x17,x17,0x10
aaaabb04:	011eceb3          	xor	x29,x29,x17
aaaabb08:	001efe93          	andi	x29,x29,1
aaaabb0c:	41d00eb3          	neg	x29,x29
aaaabb10:	0018d893          	srli	x17,x17,0x1
aaaabb14:	00fefeb3          	and	x29,x29,x15
aaaabb18:	011eceb3          	xor	x29,x29,x17
aaaabb1c:	010e9e93          	slli	x29,x29,0x10
aaaabb20:	00665e13          	srli	x28,x12,0x6
aaaabb24:	010ede93          	srli	x29,x29,0x10
aaaabb28:	01de4e33          	xor	x28,x28,x29
aaaabb2c:	001e7e13          	andi	x28,x28,1
aaaabb30:	41c00e33          	neg	x28,x28
aaaabb34:	001ede93          	srli	x29,x29,0x1
aaaabb38:	00fe7e33          	and	x28,x28,x15
aaaabb3c:	01de4e33          	xor	x28,x28,x29
aaaabb40:	010e1e13          	slli	x28,x28,0x10
aaaabb44:	010e5e13          	srli	x28,x28,0x10
aaaabb48:	00765613          	srli	x12,x12,0x7
aaaabb4c:	01c64633          	xor	x12,x12,x28
aaaabb50:	00167613          	andi	x12,x12,1
aaaabb54:	40c00633          	neg	x12,x12
aaaabb58:	001e5e13          	srli	x28,x28,0x1
aaaabb5c:	00f67633          	and	x12,x12,x15
aaaabb60:	01069313          	slli	x6,x13,0x10
aaaabb64:	01c64633          	xor	x12,x12,x28
aaaabb68:	01035313          	srli	x6,x6,0x10
aaaabb6c:	01061613          	slli	x12,x12,0x10
aaaabb70:	00835313          	srli	x6,x6,0x8
aaaabb74:	01065613          	srli	x12,x12,0x10
aaaabb78:	00c342b3          	xor	x5,x6,x12
aaaabb7c:	0012f293          	andi	x5,x5,1
aaaabb80:	405002b3          	neg	x5,x5
aaaabb84:	00165613          	srli	x12,x12,0x1
aaaabb88:	00f2f2b3          	and	x5,x5,x15
aaaabb8c:	00c2c2b3          	xor	x5,x5,x12
aaaabb90:	01029293          	slli	x5,x5,0x10
aaaabb94:	00135f93          	srli	x31,x6,0x1
aaaabb98:	0102d293          	srli	x5,x5,0x10
aaaabb9c:	005fcfb3          	xor	x31,x31,x5
aaaabba0:	001fff93          	andi	x31,x31,1
aaaabba4:	41f00fb3          	neg	x31,x31
aaaabba8:	0012d293          	srli	x5,x5,0x1
aaaabbac:	00ffffb3          	and	x31,x31,x15
aaaabbb0:	005fcfb3          	xor	x31,x31,x5
aaaabbb4:	010f9f93          	slli	x31,x31,0x10
aaaabbb8:	00235893          	srli	x17,x6,0x2
aaaabbbc:	010fdf93          	srli	x31,x31,0x10
aaaabbc0:	01f8c8b3          	xor	x17,x17,x31
aaaabbc4:	0018f893          	andi	x17,x17,1
aaaabbc8:	411008b3          	neg	x17,x17
aaaabbcc:	001fdf93          	srli	x31,x31,0x1
aaaabbd0:	00f8f8b3          	and	x17,x17,x15
aaaabbd4:	01f8c8b3          	xor	x17,x17,x31
aaaabbd8:	01089893          	slli	x17,x17,0x10
aaaabbdc:	00335f13          	srli	x30,x6,0x3
aaaabbe0:	0108d893          	srli	x17,x17,0x10
aaaabbe4:	011f4f33          	xor	x30,x30,x17
aaaabbe8:	001f7f13          	andi	x30,x30,1
aaaabbec:	41e00f33          	neg	x30,x30
aaaabbf0:	0018d893          	srli	x17,x17,0x1
aaaabbf4:	00ff7f33          	and	x30,x30,x15
aaaabbf8:	011f4f33          	xor	x30,x30,x17
aaaabbfc:	010f1f13          	slli	x30,x30,0x10
aaaabc00:	00435e93          	srli	x29,x6,0x4
aaaabc04:	010f5f13          	srli	x30,x30,0x10
aaaabc08:	01eeceb3          	xor	x29,x29,x30
aaaabc0c:	001efe93          	andi	x29,x29,1
aaaabc10:	41d00eb3          	neg	x29,x29
aaaabc14:	001f5f13          	srli	x30,x30,0x1
aaaabc18:	00fefeb3          	and	x29,x29,x15
aaaabc1c:	01eeceb3          	xor	x29,x29,x30
aaaabc20:	010e9e93          	slli	x29,x29,0x10
aaaabc24:	00535e13          	srli	x28,x6,0x5
aaaabc28:	010ede93          	srli	x29,x29,0x10
aaaabc2c:	01de4e33          	xor	x28,x28,x29
aaaabc30:	001e7e13          	andi	x28,x28,1
aaaabc34:	41c00e33          	neg	x28,x28
aaaabc38:	001ede93          	srli	x29,x29,0x1
aaaabc3c:	00fe7e33          	and	x28,x28,x15
aaaabc40:	01de4e33          	xor	x28,x28,x29
aaaabc44:	010e1e13          	slli	x28,x28,0x10
aaaabc48:	00635613          	srli	x12,x6,0x6
aaaabc4c:	010e5e13          	srli	x28,x28,0x10
aaaabc50:	01c64633          	xor	x12,x12,x28
aaaabc54:	00167613          	andi	x12,x12,1
aaaabc58:	40c00633          	neg	x12,x12
aaaabc5c:	001e5e13          	srli	x28,x28,0x1
aaaabc60:	00f67633          	and	x12,x12,x15
aaaabc64:	01c64633          	xor	x12,x12,x28
aaaabc68:	01061613          	slli	x12,x12,0x10
aaaabc6c:	01065613          	srli	x12,x12,0x10
aaaabc70:	00735313          	srli	x6,x6,0x7
aaaabc74:	00c34333          	xor	x6,x6,x12
aaaabc78:	00137313          	andi	x6,x6,1
aaaabc7c:	40600333          	neg	x6,x6
aaaabc80:	00165613          	srli	x12,x12,0x1
aaaabc84:	00f37333          	and	x6,x6,x15
aaaabc88:	00c34333          	xor	x6,x6,x12
aaaabc8c:	0106d293          	srli	x5,x13,0x10
aaaabc90:	01031313          	slli	x6,x6,0x10
aaaabc94:	0ff2f293          	zext.b	x5,x5
aaaabc98:	01035313          	srli	x6,x6,0x10
aaaabc9c:	0062c3b3          	xor	x7,x5,x6
aaaabca0:	0013f393          	andi	x7,x7,1
aaaabca4:	407003b3          	neg	x7,x7
aaaabca8:	00f3f3b3          	and	x7,x7,x15
aaaabcac:	00135313          	srli	x6,x6,0x1
aaaabcb0:	0063c333          	xor	x6,x7,x6
aaaabcb4:	01031313          	slli	x6,x6,0x10
aaaabcb8:	0012df93          	srli	x31,x5,0x1
aaaabcbc:	01035313          	srli	x6,x6,0x10
aaaabcc0:	006fcfb3          	xor	x31,x31,x6
aaaabcc4:	001fff93          	andi	x31,x31,1
aaaabcc8:	41f00fb3          	neg	x31,x31
aaaabccc:	00135313          	srli	x6,x6,0x1
aaaabcd0:	00ffffb3          	and	x31,x31,x15
aaaabcd4:	006fcfb3          	xor	x31,x31,x6
aaaabcd8:	010f9f93          	slli	x31,x31,0x10
aaaabcdc:	0022d893          	srli	x17,x5,0x2
aaaabce0:	010fdf93          	srli	x31,x31,0x10
aaaabce4:	01f8c8b3          	xor	x17,x17,x31
aaaabce8:	0018f893          	andi	x17,x17,1
aaaabcec:	411008b3          	neg	x17,x17
aaaabcf0:	001fdf93          	srli	x31,x31,0x1
aaaabcf4:	00f8f8b3          	and	x17,x17,x15
aaaabcf8:	01f8c8b3          	xor	x17,x17,x31
aaaabcfc:	01089893          	slli	x17,x17,0x10
aaaabd00:	0032df13          	srli	x30,x5,0x3
aaaabd04:	0108d893          	srli	x17,x17,0x10
aaaabd08:	011f4f33          	xor	x30,x30,x17
aaaabd0c:	001f7f13          	andi	x30,x30,1
aaaabd10:	41e00f33          	neg	x30,x30
aaaabd14:	0018d893          	srli	x17,x17,0x1
aaaabd18:	00ff7f33          	and	x30,x30,x15
aaaabd1c:	011f4f33          	xor	x30,x30,x17
aaaabd20:	010f1f13          	slli	x30,x30,0x10
aaaabd24:	0042de93          	srli	x29,x5,0x4
aaaabd28:	010f5f13          	srli	x30,x30,0x10
aaaabd2c:	01eeceb3          	xor	x29,x29,x30
aaaabd30:	001efe93          	andi	x29,x29,1
aaaabd34:	41d00eb3          	neg	x29,x29
aaaabd38:	001f5f13          	srli	x30,x30,0x1
aaaabd3c:	00fefeb3          	and	x29,x29,x15
aaaabd40:	01eeceb3          	xor	x29,x29,x30
aaaabd44:	010e9e93          	slli	x29,x29,0x10
aaaabd48:	0052de13          	srli	x28,x5,0x5
aaaabd4c:	010ede93          	srli	x29,x29,0x10
aaaabd50:	01de4e33          	xor	x28,x28,x29
aaaabd54:	001e7e13          	andi	x28,x28,1
aaaabd58:	41c00e33          	neg	x28,x28
aaaabd5c:	001ede93          	srli	x29,x29,0x1
aaaabd60:	00fe7e33          	and	x28,x28,x15
aaaabd64:	01de4e33          	xor	x28,x28,x29
aaaabd68:	010e1e13          	slli	x28,x28,0x10
aaaabd6c:	0062d613          	srli	x12,x5,0x6
aaaabd70:	010e5e13          	srli	x28,x28,0x10
aaaabd74:	01c64633          	xor	x12,x12,x28
aaaabd78:	00167613          	andi	x12,x12,1
aaaabd7c:	40c00633          	neg	x12,x12
aaaabd80:	001e5e13          	srli	x28,x28,0x1
aaaabd84:	00f67633          	and	x12,x12,x15
aaaabd88:	01c64633          	xor	x12,x12,x28
aaaabd8c:	01061613          	slli	x12,x12,0x10
aaaabd90:	01065613          	srli	x12,x12,0x10
aaaabd94:	0072d293          	srli	x5,x5,0x7
aaaabd98:	00c2c2b3          	xor	x5,x5,x12
aaaabd9c:	0012f293          	andi	x5,x5,1
aaaabda0:	405002b3          	neg	x5,x5
aaaabda4:	00165613          	srli	x12,x12,0x1
aaaabda8:	00f2f2b3          	and	x5,x5,x15
aaaabdac:	00c2c2b3          	xor	x5,x5,x12
aaaabdb0:	01029293          	slli	x5,x5,0x10
aaaabdb4:	0186d693          	srli	x13,x13,0x18
aaaabdb8:	0102d293          	srli	x5,x5,0x10
aaaabdbc:	0056c633          	xor	x12,x13,x5
aaaabdc0:	00167613          	andi	x12,x12,1
aaaabdc4:	40c00633          	neg	x12,x12
aaaabdc8:	0012d293          	srli	x5,x5,0x1
aaaabdcc:	00f67633          	and	x12,x12,x15
aaaabdd0:	00564633          	xor	x12,x12,x5
aaaabdd4:	01061613          	slli	x12,x12,0x10
aaaabdd8:	0016d313          	srli	x6,x13,0x1
aaaabddc:	01065613          	srli	x12,x12,0x10
aaaabde0:	00c34333          	xor	x6,x6,x12
aaaabde4:	00137313          	andi	x6,x6,1
aaaabde8:	40600333          	neg	x6,x6
aaaabdec:	00f37333          	and	x6,x6,x15
aaaabdf0:	00165613          	srli	x12,x12,0x1
aaaabdf4:	00c34633          	xor	x12,x6,x12
aaaabdf8:	01061613          	slli	x12,x12,0x10
aaaabdfc:	0026df93          	srli	x31,x13,0x2
aaaabe00:	01065613          	srli	x12,x12,0x10
aaaabe04:	00cfcfb3          	xor	x31,x31,x12
aaaabe08:	001fff93          	andi	x31,x31,1
aaaabe0c:	41f00fb3          	neg	x31,x31
aaaabe10:	00165613          	srli	x12,x12,0x1
aaaabe14:	00ffffb3          	and	x31,x31,x15
aaaabe18:	00cfcfb3          	xor	x31,x31,x12
aaaabe1c:	010f9f93          	slli	x31,x31,0x10
aaaabe20:	0036d893          	srli	x17,x13,0x3
aaaabe24:	010fdf93          	srli	x31,x31,0x10
aaaabe28:	01f8c633          	xor	x12,x17,x31
aaaabe2c:	00167613          	andi	x12,x12,1
aaaabe30:	40c00633          	neg	x12,x12
aaaabe34:	001fdf93          	srli	x31,x31,0x1
aaaabe38:	00f67633          	and	x12,x12,x15
aaaabe3c:	01f64633          	xor	x12,x12,x31
aaaabe40:	01061613          	slli	x12,x12,0x10
aaaabe44:	0046df13          	srli	x30,x13,0x4
aaaabe48:	01065613          	srli	x12,x12,0x10
aaaabe4c:	00cf4f33          	xor	x30,x30,x12
aaaabe50:	001f7f13          	andi	x30,x30,1
aaaabe54:	41e00f33          	neg	x30,x30
aaaabe58:	00165613          	srli	x12,x12,0x1
aaaabe5c:	00ff7f33          	and	x30,x30,x15
aaaabe60:	00cf4f33          	xor	x30,x30,x12
aaaabe64:	010f1f13          	slli	x30,x30,0x10
aaaabe68:	0056de93          	srli	x29,x13,0x5
aaaabe6c:	010f5f13          	srli	x30,x30,0x10
aaaabe70:	01eec633          	xor	x12,x29,x30
aaaabe74:	00167613          	andi	x12,x12,1
aaaabe78:	40c00633          	neg	x12,x12
aaaabe7c:	001f5f13          	srli	x30,x30,0x1
aaaabe80:	00f67633          	and	x12,x12,x15
aaaabe84:	01e64633          	xor	x12,x12,x30
aaaabe88:	01061613          	slli	x12,x12,0x10
aaaabe8c:	0066d393          	srli	x7,x13,0x6
aaaabe90:	01065613          	srli	x12,x12,0x10
aaaabe94:	00c3c3b3          	xor	x7,x7,x12
aaaabe98:	0013f393          	andi	x7,x7,1
aaaabe9c:	407003b3          	neg	x7,x7
aaaabea0:	00165613          	srli	x12,x12,0x1
aaaabea4:	00f3f3b3          	and	x7,x7,x15
aaaabea8:	00c3c3b3          	xor	x7,x7,x12
aaaabeac:	01039393          	slli	x7,x7,0x10
aaaabeb0:	0076de13          	srli	x28,x13,0x7
aaaabeb4:	0103d393          	srli	x7,x7,0x10
aaaabeb8:	007e4633          	xor	x12,x28,x7
aaaabebc:	00167613          	andi	x12,x12,1
aaaabec0:	40c00633          	neg	x12,x12
aaaabec4:	0013d393          	srli	x7,x7,0x1
aaaabec8:	00f67633          	and	x12,x12,x15
aaaabecc:	00764633          	xor	x12,x12,x7
aaaabed0:	01061613          	slli	x12,x12,0x10
aaaabed4:	0ff77693          	zext.b	x13,x14
aaaabed8:	01065613          	srli	x12,x12,0x10
aaaabedc:	0036d893          	srli	x17,x13,0x3
aaaabee0:	0056df13          	srli	x30,x13,0x5
aaaabee4:	0076de13          	srli	x28,x13,0x7
aaaabee8:	0016d313          	srli	x6,x13,0x1
aaaabeec:	0026d293          	srli	x5,x13,0x2
aaaabef0:	0046df93          	srli	x31,x13,0x4
aaaabef4:	0066de93          	srli	x29,x13,0x6
aaaabef8:	00c6c6b3          	xor	x13,x13,x12
aaaabefc:	0016f693          	andi	x13,x13,1
aaaabf00:	40d006b3          	neg	x13,x13
aaaabf04:	00165613          	srli	x12,x12,0x1
aaaabf08:	00f6f6b3          	and	x13,x13,x15
aaaabf0c:	00c6c6b3          	xor	x13,x13,x12
aaaabf10:	01069693          	slli	x13,x13,0x10
aaaabf14:	0106d693          	srli	x13,x13,0x10
aaaabf18:	00d34333          	xor	x6,x6,x13
aaaabf1c:	00137313          	andi	x6,x6,1
aaaabf20:	40600333          	neg	x6,x6
aaaabf24:	00f37333          	and	x6,x6,x15
aaaabf28:	0016d693          	srli	x13,x13,0x1
aaaabf2c:	00d346b3          	xor	x13,x6,x13
aaaabf30:	01069693          	slli	x13,x13,0x10
aaaabf34:	0106d693          	srli	x13,x13,0x10
aaaabf38:	00d2c2b3          	xor	x5,x5,x13
aaaabf3c:	0012f293          	andi	x5,x5,1
aaaabf40:	405002b3          	neg	x5,x5
aaaabf44:	0016d693          	srli	x13,x13,0x1
aaaabf48:	00f2f2b3          	and	x5,x5,x15
aaaabf4c:	00d2c2b3          	xor	x5,x5,x13
aaaabf50:	01029293          	slli	x5,x5,0x10
aaaabf54:	0102d293          	srli	x5,x5,0x10
aaaabf58:	0058c6b3          	xor	x13,x17,x5
aaaabf5c:	0016f693          	andi	x13,x13,1
aaaabf60:	40d006b3          	neg	x13,x13
aaaabf64:	0012d293          	srli	x5,x5,0x1
aaaabf68:	00f6f6b3          	and	x13,x13,x15
aaaabf6c:	0056c6b3          	xor	x13,x13,x5
aaaabf70:	01069693          	slli	x13,x13,0x10
aaaabf74:	0106d693          	srli	x13,x13,0x10
aaaabf78:	00dfcfb3          	xor	x31,x31,x13
aaaabf7c:	001fff93          	andi	x31,x31,1
aaaabf80:	41f00fb3          	neg	x31,x31
aaaabf84:	0016d693          	srli	x13,x13,0x1
aaaabf88:	00ffffb3          	and	x31,x31,x15
aaaabf8c:	00dfcfb3          	xor	x31,x31,x13
aaaabf90:	010f9f93          	slli	x31,x31,0x10
aaaabf94:	010fdf93          	srli	x31,x31,0x10
aaaabf98:	01ff46b3          	xor	x13,x30,x31
aaaabf9c:	0016f693          	andi	x13,x13,1
aaaabfa0:	40d006b3          	neg	x13,x13
aaaabfa4:	001fdf93          	srli	x31,x31,0x1
aaaabfa8:	00f6f6b3          	and	x13,x13,x15
aaaabfac:	01f6c6b3          	xor	x13,x13,x31
aaaabfb0:	01069693          	slli	x13,x13,0x10
aaaabfb4:	0106d693          	srli	x13,x13,0x10
aaaabfb8:	00deceb3          	xor	x29,x29,x13
aaaabfbc:	001efe93          	andi	x29,x29,1
aaaabfc0:	41d00eb3          	neg	x29,x29
aaaabfc4:	0016d693          	srli	x13,x13,0x1
aaaabfc8:	00fefeb3          	and	x29,x29,x15
aaaabfcc:	00deceb3          	xor	x29,x29,x13
aaaabfd0:	010e9e93          	slli	x29,x29,0x10
aaaabfd4:	010ede93          	srli	x29,x29,0x10
aaaabfd8:	01de46b3          	xor	x13,x28,x29
aaaabfdc:	0016f693          	andi	x13,x13,1
aaaabfe0:	40d006b3          	neg	x13,x13
aaaabfe4:	001ede93          	srli	x29,x29,0x1
aaaabfe8:	00f6f6b3          	and	x13,x13,x15
aaaabfec:	01071613          	slli	x12,x14,0x10
aaaabff0:	01d6c6b3          	xor	x13,x13,x29
aaaabff4:	01065613          	srli	x12,x12,0x10
aaaabff8:	01069693          	slli	x13,x13,0x10
aaaabffc:	00865613          	srli	x12,x12,0x8
aaaac000:	0106d693          	srli	x13,x13,0x10
aaaac004:	00365293          	srli	x5,x12,0x3
aaaac008:	00165313          	srli	x6,x12,0x1
aaaac00c:	00265393          	srli	x7,x12,0x2
aaaac010:	00465893          	srli	x17,x12,0x4
aaaac014:	00565f93          	srli	x31,x12,0x5
aaaac018:	00665f13          	srli	x30,x12,0x6
aaaac01c:	00765e93          	srli	x29,x12,0x7
aaaac020:	00d64633          	xor	x12,x12,x13
aaaac024:	00167613          	andi	x12,x12,1
aaaac028:	40c00633          	neg	x12,x12
aaaac02c:	0016d693          	srli	x13,x13,0x1
aaaac030:	00f67633          	and	x12,x12,x15
aaaac034:	00d64633          	xor	x12,x12,x13
aaaac038:	01061613          	slli	x12,x12,0x10
aaaac03c:	01065613          	srli	x12,x12,0x10
aaaac040:	00c34333          	xor	x6,x6,x12
aaaac044:	00137313          	andi	x6,x6,1
aaaac048:	40600333          	neg	x6,x6
aaaac04c:	00f37333          	and	x6,x6,x15
aaaac050:	00165613          	srli	x12,x12,0x1
aaaac054:	00c34633          	xor	x12,x6,x12
aaaac058:	01061613          	slli	x12,x12,0x10
aaaac05c:	01065613          	srli	x12,x12,0x10
aaaac060:	00c3c3b3          	xor	x7,x7,x12
aaaac064:	0013f393          	andi	x7,x7,1
aaaac068:	407003b3          	neg	x7,x7
aaaac06c:	00165613          	srli	x12,x12,0x1
aaaac070:	00f3f3b3          	and	x7,x7,x15
aaaac074:	00c3c3b3          	xor	x7,x7,x12
aaaac078:	01039393          	slli	x7,x7,0x10
aaaac07c:	0103d393          	srli	x7,x7,0x10
aaaac080:	0072c633          	xor	x12,x5,x7
aaaac084:	00167613          	andi	x12,x12,1
aaaac088:	40c00633          	neg	x12,x12
aaaac08c:	0013d393          	srli	x7,x7,0x1
aaaac090:	00f67633          	and	x12,x12,x15
aaaac094:	00764633          	xor	x12,x12,x7
aaaac098:	01061613          	slli	x12,x12,0x10
aaaac09c:	01065613          	srli	x12,x12,0x10
aaaac0a0:	00c8c8b3          	xor	x17,x17,x12
aaaac0a4:	0018f893          	andi	x17,x17,1
aaaac0a8:	411008b3          	neg	x17,x17
aaaac0ac:	00165613          	srli	x12,x12,0x1
aaaac0b0:	00f8f8b3          	and	x17,x17,x15
aaaac0b4:	00c8c8b3          	xor	x17,x17,x12
aaaac0b8:	01089893          	slli	x17,x17,0x10
aaaac0bc:	0108d893          	srli	x17,x17,0x10
aaaac0c0:	011fcfb3          	xor	x31,x31,x17
aaaac0c4:	001fff93          	andi	x31,x31,1
aaaac0c8:	41f00fb3          	neg	x31,x31
aaaac0cc:	0018d893          	srli	x17,x17,0x1
aaaac0d0:	00ffffb3          	and	x31,x31,x15
aaaac0d4:	011fcfb3          	xor	x31,x31,x17
aaaac0d8:	010f9f93          	slli	x31,x31,0x10
aaaac0dc:	010fdf93          	srli	x31,x31,0x10
aaaac0e0:	01ff4f33          	xor	x30,x30,x31
aaaac0e4:	001f7f13          	andi	x30,x30,1
aaaac0e8:	41e00f33          	neg	x30,x30
aaaac0ec:	001fdf93          	srli	x31,x31,0x1
aaaac0f0:	00ff7f33          	and	x30,x30,x15
aaaac0f4:	01ff4f33          	xor	x30,x30,x31
aaaac0f8:	010f1f13          	slli	x30,x30,0x10
aaaac0fc:	010f5f13          	srli	x30,x30,0x10
aaaac100:	01eeceb3          	xor	x29,x29,x30
aaaac104:	001efe93          	andi	x29,x29,1
aaaac108:	41d00eb3          	neg	x29,x29
aaaac10c:	001f5f13          	srli	x30,x30,0x1
aaaac110:	00fefeb3          	and	x29,x29,x15
aaaac114:	01eeceb3          	xor	x29,x29,x30
aaaac118:	01075693          	srli	x13,x14,0x10
aaaac11c:	010e9e93          	slli	x29,x29,0x10
aaaac120:	0ff6f693          	zext.b	x13,x13
aaaac124:	010ede93          	srli	x29,x29,0x10
aaaac128:	0026d313          	srli	x6,x13,0x2
aaaac12c:	0046d613          	srli	x12,x13,0x4
aaaac130:	0016de13          	srli	x28,x13,0x1
aaaac134:	0036d393          	srli	x7,x13,0x3
aaaac138:	0056d893          	srli	x17,x13,0x5
aaaac13c:	0066d293          	srli	x5,x13,0x6
aaaac140:	0076df93          	srli	x31,x13,0x7
aaaac144:	01d6c6b3          	xor	x13,x13,x29
aaaac148:	0016f693          	andi	x13,x13,1
aaaac14c:	40d006b3          	neg	x13,x13
aaaac150:	001ede93          	srli	x29,x29,0x1
aaaac154:	00f6f6b3          	and	x13,x13,x15
aaaac158:	01d6c6b3          	xor	x13,x13,x29
aaaac15c:	01069693          	slli	x13,x13,0x10
aaaac160:	0106d693          	srli	x13,x13,0x10
aaaac164:	00de4e33          	xor	x28,x28,x13
aaaac168:	001e7e13          	andi	x28,x28,1
aaaac16c:	41c00e33          	neg	x28,x28
aaaac170:	0016d693          	srli	x13,x13,0x1
aaaac174:	00fe7e33          	and	x28,x28,x15
aaaac178:	00de4e33          	xor	x28,x28,x13
aaaac17c:	010e1e13          	slli	x28,x28,0x10
aaaac180:	010e5e13          	srli	x28,x28,0x10
aaaac184:	01c346b3          	xor	x13,x6,x28
aaaac188:	0016f693          	andi	x13,x13,1
aaaac18c:	40d006b3          	neg	x13,x13
aaaac190:	001e5e13          	srli	x28,x28,0x1
aaaac194:	00f6f6b3          	and	x13,x13,x15
aaaac198:	01c6c6b3          	xor	x13,x13,x28
aaaac19c:	01069693          	slli	x13,x13,0x10
aaaac1a0:	0106d693          	srli	x13,x13,0x10
aaaac1a4:	00d3c3b3          	xor	x7,x7,x13
aaaac1a8:	0013f393          	andi	x7,x7,1
aaaac1ac:	407003b3          	neg	x7,x7
aaaac1b0:	0016d693          	srli	x13,x13,0x1
aaaac1b4:	00f3f3b3          	and	x7,x7,x15
aaaac1b8:	00d3c3b3          	xor	x7,x7,x13
aaaac1bc:	01039393          	slli	x7,x7,0x10
aaaac1c0:	0103d393          	srli	x7,x7,0x10
aaaac1c4:	007646b3          	xor	x13,x12,x7
aaaac1c8:	0016f693          	andi	x13,x13,1
aaaac1cc:	40d006b3          	neg	x13,x13
aaaac1d0:	00f6f6b3          	and	x13,x13,x15
aaaac1d4:	0013d393          	srli	x7,x7,0x1
aaaac1d8:	0076c6b3          	xor	x13,x13,x7
aaaac1dc:	01069693          	slli	x13,x13,0x10
aaaac1e0:	0106d693          	srli	x13,x13,0x10
aaaac1e4:	00d8c8b3          	xor	x17,x17,x13
aaaac1e8:	0018f893          	andi	x17,x17,1
aaaac1ec:	411008b3          	neg	x17,x17
aaaac1f0:	0016d693          	srli	x13,x13,0x1
aaaac1f4:	00f8f8b3          	and	x17,x17,x15
aaaac1f8:	00d8c8b3          	xor	x17,x17,x13
aaaac1fc:	01089893          	slli	x17,x17,0x10
aaaac200:	0108d893          	srli	x17,x17,0x10
aaaac204:	0112c2b3          	xor	x5,x5,x17
aaaac208:	0012f293          	andi	x5,x5,1
aaaac20c:	405002b3          	neg	x5,x5
aaaac210:	0018d893          	srli	x17,x17,0x1
aaaac214:	00f2f2b3          	and	x5,x5,x15
aaaac218:	0112c2b3          	xor	x5,x5,x17
aaaac21c:	01029293          	slli	x5,x5,0x10
aaaac220:	0102d293          	srli	x5,x5,0x10
aaaac224:	005fcfb3          	xor	x31,x31,x5
aaaac228:	001fff93          	andi	x31,x31,1
aaaac22c:	41f00fb3          	neg	x31,x31
aaaac230:	00ffffb3          	and	x31,x31,x15
aaaac234:	0012d293          	srli	x5,x5,0x1
aaaac238:	005fcfb3          	xor	x31,x31,x5
aaaac23c:	010f9f93          	slli	x31,x31,0x10
aaaac240:	01875713          	srli	x14,x14,0x18
aaaac244:	010fdf93          	srli	x31,x31,0x10
aaaac248:	00175f13          	srli	x30,x14,0x1
aaaac24c:	00275e93          	srli	x29,x14,0x2
aaaac250:	00375e13          	srli	x28,x14,0x3
aaaac254:	00475313          	srli	x6,x14,0x4
aaaac258:	00575613          	srli	x12,x14,0x5
aaaac25c:	00675693          	srli	x13,x14,0x6
aaaac260:	00775893          	srli	x17,x14,0x7
aaaac264:	01f74733          	xor	x14,x14,x31
aaaac268:	00177713          	andi	x14,x14,1
aaaac26c:	40e00733          	neg	x14,x14
aaaac270:	00f77733          	and	x14,x14,x15
aaaac274:	001fdf93          	srli	x31,x31,0x1
aaaac278:	01f74733          	xor	x14,x14,x31
aaaac27c:	01071713          	slli	x14,x14,0x10
aaaac280:	01075713          	srli	x14,x14,0x10
aaaac284:	00ef4f33          	xor	x30,x30,x14
aaaac288:	001f7f13          	andi	x30,x30,1
aaaac28c:	41e00f33          	neg	x30,x30
aaaac290:	00175713          	srli	x14,x14,0x1
aaaac294:	00ff7f33          	and	x30,x30,x15
aaaac298:	00ef4f33          	xor	x30,x30,x14
aaaac29c:	010f1f13          	slli	x30,x30,0x10
aaaac2a0:	010f5f13          	srli	x30,x30,0x10
aaaac2a4:	01eec733          	xor	x14,x29,x30
aaaac2a8:	00177713          	andi	x14,x14,1
aaaac2ac:	40e00733          	neg	x14,x14
aaaac2b0:	00f77733          	and	x14,x14,x15
aaaac2b4:	001f5f13          	srli	x30,x30,0x1
aaaac2b8:	01e74733          	xor	x14,x14,x30
aaaac2bc:	01071713          	slli	x14,x14,0x10
aaaac2c0:	01075713          	srli	x14,x14,0x10
aaaac2c4:	00ee4e33          	xor	x28,x28,x14
aaaac2c8:	001e7e13          	andi	x28,x28,1
aaaac2cc:	41c00e33          	neg	x28,x28
aaaac2d0:	00175713          	srli	x14,x14,0x1
aaaac2d4:	00fe7e33          	and	x28,x28,x15
aaaac2d8:	00ee4e33          	xor	x28,x28,x14
aaaac2dc:	010e1e13          	slli	x28,x28,0x10
aaaac2e0:	010e5e13          	srli	x28,x28,0x10
aaaac2e4:	01c34733          	xor	x14,x6,x28
aaaac2e8:	00177713          	andi	x14,x14,1
aaaac2ec:	40e00733          	neg	x14,x14
aaaac2f0:	00f77733          	and	x14,x14,x15
aaaac2f4:	001e5e13          	srli	x28,x28,0x1
aaaac2f8:	01c74733          	xor	x14,x14,x28
aaaac2fc:	01071713          	slli	x14,x14,0x10
aaaac300:	01075713          	srli	x14,x14,0x10
aaaac304:	00e64633          	xor	x12,x12,x14
aaaac308:	00167613          	andi	x12,x12,1
aaaac30c:	40c00633          	neg	x12,x12
aaaac310:	00175713          	srli	x14,x14,0x1
aaaac314:	00f67633          	and	x12,x12,x15
aaaac318:	00e64633          	xor	x12,x12,x14
aaaac31c:	01061613          	slli	x12,x12,0x10
aaaac320:	01065613          	srli	x12,x12,0x10
aaaac324:	00c6c733          	xor	x14,x13,x12
aaaac328:	00177713          	andi	x14,x14,1
aaaac32c:	40e00733          	neg	x14,x14
aaaac330:	00f77733          	and	x14,x14,x15
aaaac334:	00165613          	srli	x12,x12,0x1
aaaac338:	00c74733          	xor	x14,x14,x12
aaaac33c:	01071713          	slli	x14,x14,0x10
aaaac340:	01075713          	srli	x14,x14,0x10
aaaac344:	00e8c9b3          	xor	x19,x17,x14
aaaac348:	0019f993          	andi	x19,x19,1
aaaac34c:	413009b3          	neg	x19,x19
aaaac350:	00175713          	srli	x14,x14,0x1
aaaac354:	00f9f9b3          	and	x19,x19,x15
aaaac358:	00e9c9b3          	xor	x19,x19,x14
aaaac35c:	01099713          	slli	x14,x19,0x10
aaaac360:	01075713          	srli	x14,x14,0x10
aaaac364:	00458593          	addi	x11,x11,4
aaaac368:	00e12423          	sw	x14,8(x2)
aaaac36c:	00450513          	addi	x10,x10,4
aaaac370:	ecb41863          	bne	x8,x11,aaaaba40 <calc_func+0x510>
aaaac374:	01812703          	lw	x14,24(x2)
aaaac378:	03e75783          	lhu	x15,62(x14)
aaaac37c:	00079663          	bnez	x15,aaaac388 <calc_func+0xe58>
aaaac380:	00812783          	lw	x15,8(x2)
aaaac384:	02f71f23          	sh	x15,62(x14)
aaaac388:	00812303          	lw	x6,8(x2)
aaaac38c:	0b812403          	lw	x8,184(x2)
aaaac390:	0b412483          	lw	x9,180(x2)
aaaac394:	01031513          	slli	x10,x6,0x10
aaaac398:	0b012903          	lw	x18,176(x2)
aaaac39c:	0a812a03          	lw	x20,168(x2)
aaaac3a0:	0a012b03          	lw	x22,160(x2)
aaaac3a4:	09812c03          	lw	x24,152(x2)
aaaac3a8:	09412c83          	lw	x25,148(x2)
aaaac3ac:	41055513          	srai	x10,x10,0x10
aaaac3b0:	01012423          	sw	x16,8(x2)
aaaac3b4:	a90ff06f          	j	aaaab644 <calc_func+0x114>
aaaac3b8:	00000d13          	li	x26,0
aaaac3bc:	00012823          	sw	x0,16(x2)
aaaac3c0:	00412783          	lw	x15,4(x2)
aaaac3c4:	41840db3          	sub	x27,x8,x24
aaaac3c8:	002d1713          	slli	x14,x26,0x2
aaaac3cc:	000d8b93          	mv	x23,x27
aaaac3d0:	00f709b3          	add	x19,x14,x15
aaaac3d4:	000b9503          	lh	x10,0(x23)
aaaac3d8:	000a8593          	mv	x11,x21
aaaac3dc:	002b8b93          	addi	x23,x23,2
aaaac3e0:	00002097          	auipc	x1,0x2
aaaac3e4:	b24080e7          	jalr	-1244(x1) # aaaadf04 <__mulsi3>
aaaac3e8:	00a9a023          	sw	x10,0(x19)
aaaac3ec:	00498993          	addi	x19,x19,4
aaaac3f0:	fe8b92e3          	bne	x23,x8,aaaac3d4 <calc_func+0xea4>
aaaac3f4:	01012703          	lw	x14,16(x2)
aaaac3f8:	014d0d33          	add	x26,x26,x20
aaaac3fc:	409d8433          	sub	x8,x27,x9
aaaac400:	00170793          	addi	x15,x14,1
aaaac404:	00ec8663          	beq	x25,x14,aaaac410 <calc_func+0xee0>
aaaac408:	00f12823          	sw	x15,16(x2)
aaaac40c:	fb5ff06f          	j	aaaac3c0 <calc_func+0xe90>
aaaac410:	00412783          	lw	x15,4(x2)
aaaac414:	414008b3          	neg	x17,x20
aaaac418:	00389893          	slli	x17,x17,0x3
aaaac41c:	40978833          	sub	x16,x15,x9
aaaac420:	00000613          	li	x12,0
aaaac424:	00000513          	li	x10,0
aaaac428:	00000793          	li	x15,0
aaaac42c:	00000313          	li	x6,0
aaaac430:	00980e33          	add	x28,x16,x9
aaaac434:	000e0693          	mv	x13,x28
aaaac438:	0140006f          	j	aaaac44c <calc_func+0xf1c>
aaaac43c:	01071793          	slli	x15,x14,0x10
aaaac440:	00468693          	addi	x13,x13,4
aaaac444:	4107d793          	srai	x15,x15,0x10
aaaac448:	02d80e63          	beq	x16,x13,aaaac484 <calc_func+0xf54>
aaaac44c:	00060593          	mv	x11,x12
aaaac450:	01079713          	slli	x14,x15,0x10
aaaac454:	0006a603          	lw	x12,0(x13)
aaaac458:	01075713          	srli	x14,x14,0x10
aaaac45c:	00a70793          	addi	x15,x14,10
aaaac460:	00c5a5b3          	slt	x11,x11,x12
aaaac464:	01079793          	slli	x15,x15,0x10
aaaac468:	00c50533          	add	x10,x10,x12
aaaac46c:	4107d793          	srai	x15,x15,0x10
aaaac470:	00b70733          	add	x14,x14,x11
aaaac474:	fca954e3          	bge	x18,x10,aaaac43c <calc_func+0xf0c>
aaaac478:	00468693          	addi	x13,x13,4
aaaac47c:	00000513          	li	x10,0
aaaac480:	fcd816e3          	bne	x16,x13,aaaac44c <calc_func+0xf1c>
aaaac484:	411e0833          	sub	x16,x28,x17
aaaac488:	00130713          	addi	x14,x6,1
aaaac48c:	006c8663          	beq	x25,x6,aaaac498 <calc_func+0xf68>
aaaac490:	00070313          	mv	x6,x14
aaaac494:	f9dff06f          	j	aaaac430 <calc_func+0xf00>
aaaac498:	0ff7f613          	zext.b	x12,x15
aaaac49c:	00167693          	andi	x13,x12,1
aaaac4a0:	0000a737          	lui	x14,0xa
aaaac4a4:	40d006b3          	neg	x13,x13
aaaac4a8:	00170713          	addi	x14,x14,1 # a001 <_start-0xaaa9ffff>
aaaac4ac:	00d77733          	and	x14,x14,x13
aaaac4b0:	00165693          	srli	x13,x12,0x1
aaaac4b4:	00e6c6b3          	xor	x13,x13,x14
aaaac4b8:	0016f693          	andi	x13,x13,1
aaaac4bc:	ffffa5b7          	lui	x11,0xffffa
aaaac4c0:	00158593          	addi	x11,x11,1 # ffffa001 <_stack_top+0xfffa001>
aaaac4c4:	40d006b3          	neg	x13,x13
aaaac4c8:	00175713          	srli	x14,x14,0x1
aaaac4cc:	00b6f6b3          	and	x13,x13,x11
aaaac4d0:	00e6c6b3          	xor	x13,x13,x14
aaaac4d4:	01069693          	slli	x13,x13,0x10
aaaac4d8:	0106d693          	srli	x13,x13,0x10
aaaac4dc:	00265713          	srli	x14,x12,0x2
aaaac4e0:	00d74733          	xor	x14,x14,x13
aaaac4e4:	00177713          	andi	x14,x14,1
aaaac4e8:	40e00733          	neg	x14,x14
aaaac4ec:	0016d693          	srli	x13,x13,0x1
aaaac4f0:	00b77733          	and	x14,x14,x11
aaaac4f4:	00d74733          	xor	x14,x14,x13
aaaac4f8:	01079793          	slli	x15,x15,0x10
aaaac4fc:	0107d793          	srli	x15,x15,0x10
aaaac500:	01071713          	slli	x14,x14,0x10
aaaac504:	0087d793          	srli	x15,x15,0x8
aaaac508:	01075713          	srli	x14,x14,0x10
aaaac50c:	00365693          	srli	x13,x12,0x3
aaaac510:	00e6c5b3          	xor	x11,x13,x14
aaaac514:	0015f593          	andi	x11,x11,1
aaaac518:	ffffa637          	lui	x12,0xffffa
aaaac51c:	00160613          	addi	x12,x12,1 # ffffa001 <_stack_top+0xfffa001>
aaaac520:	40b005b3          	neg	x11,x11
aaaac524:	00175713          	srli	x14,x14,0x1
aaaac528:	00c5f5b3          	and	x11,x11,x12
aaaac52c:	00e5c5b3          	xor	x11,x11,x14
aaaac530:	01059593          	slli	x11,x11,0x10
aaaac534:	0105d593          	srli	x11,x11,0x10
aaaac538:	0016d713          	srli	x14,x13,0x1
aaaac53c:	00b74733          	xor	x14,x14,x11
aaaac540:	00177713          	andi	x14,x14,1
aaaac544:	40e00733          	neg	x14,x14
aaaac548:	0015d593          	srli	x11,x11,0x1
aaaac54c:	00c77733          	and	x14,x14,x12
aaaac550:	00b74733          	xor	x14,x14,x11
aaaac554:	01071713          	slli	x14,x14,0x10
aaaac558:	0026d513          	srli	x10,x13,0x2
aaaac55c:	01075713          	srli	x14,x14,0x10
aaaac560:	00e54533          	xor	x10,x10,x14
aaaac564:	00157513          	andi	x10,x10,1
aaaac568:	40a00533          	neg	x10,x10
aaaac56c:	00175713          	srli	x14,x14,0x1
aaaac570:	00c57533          	and	x10,x10,x12
aaaac574:	00e54533          	xor	x10,x10,x14
aaaac578:	01051513          	slli	x10,x10,0x10
aaaac57c:	0036d593          	srli	x11,x13,0x3
aaaac580:	01055513          	srli	x10,x10,0x10
aaaac584:	00a5c5b3          	xor	x11,x11,x10
aaaac588:	0015f593          	andi	x11,x11,1
aaaac58c:	40b005b3          	neg	x11,x11
aaaac590:	00155513          	srli	x10,x10,0x1
aaaac594:	00c5f5b3          	and	x11,x11,x12
aaaac598:	00a5c5b3          	xor	x11,x11,x10
aaaac59c:	01059593          	slli	x11,x11,0x10
aaaac5a0:	0105d593          	srli	x11,x11,0x10
aaaac5a4:	0046d693          	srli	x13,x13,0x4
aaaac5a8:	00b6c6b3          	xor	x13,x13,x11
aaaac5ac:	0016f693          	andi	x13,x13,1
aaaac5b0:	40d006b3          	neg	x13,x13
aaaac5b4:	0015d593          	srli	x11,x11,0x1
aaaac5b8:	00c6f6b3          	and	x13,x13,x12
aaaac5bc:	00b6c6b3          	xor	x13,x13,x11
aaaac5c0:	01069693          	slli	x13,x13,0x10
aaaac5c4:	0106d693          	srli	x13,x13,0x10
aaaac5c8:	00d7c5b3          	xor	x11,x15,x13
aaaac5cc:	0015f593          	andi	x11,x11,1
aaaac5d0:	40b005b3          	neg	x11,x11
aaaac5d4:	00c5f5b3          	and	x11,x11,x12
aaaac5d8:	0016d693          	srli	x13,x13,0x1
aaaac5dc:	00d5c6b3          	xor	x13,x11,x13
aaaac5e0:	01069693          	slli	x13,x13,0x10
aaaac5e4:	0017d713          	srli	x14,x15,0x1
aaaac5e8:	0106d693          	srli	x13,x13,0x10
aaaac5ec:	00d74733          	xor	x14,x14,x13
aaaac5f0:	00177713          	andi	x14,x14,1
aaaac5f4:	40e00733          	neg	x14,x14
aaaac5f8:	0016d693          	srli	x13,x13,0x1
aaaac5fc:	00c77733          	and	x14,x14,x12
aaaac600:	00d74733          	xor	x14,x14,x13
aaaac604:	01071713          	slli	x14,x14,0x10
aaaac608:	0027d813          	srli	x16,x15,0x2
aaaac60c:	01075713          	srli	x14,x14,0x10
aaaac610:	00e84833          	xor	x16,x16,x14
aaaac614:	00187813          	andi	x16,x16,1
aaaac618:	41000833          	neg	x16,x16
aaaac61c:	00175713          	srli	x14,x14,0x1
aaaac620:	00c87833          	and	x16,x16,x12
aaaac624:	00e84833          	xor	x16,x16,x14
aaaac628:	01081813          	slli	x16,x16,0x10
aaaac62c:	0037d513          	srli	x10,x15,0x3
aaaac630:	01085813          	srli	x16,x16,0x10
aaaac634:	01054533          	xor	x10,x10,x16
aaaac638:	00157513          	andi	x10,x10,1
aaaac63c:	40a00533          	neg	x10,x10
aaaac640:	00c57533          	and	x10,x10,x12
aaaac644:	00185813          	srli	x16,x16,0x1
aaaac648:	01054533          	xor	x10,x10,x16
aaaac64c:	01051513          	slli	x10,x10,0x10
aaaac650:	0047d593          	srli	x11,x15,0x4
aaaac654:	01055513          	srli	x10,x10,0x10
aaaac658:	00a5c5b3          	xor	x11,x11,x10
aaaac65c:	0015f593          	andi	x11,x11,1
aaaac660:	40b005b3          	neg	x11,x11
aaaac664:	00c5f5b3          	and	x11,x11,x12
aaaac668:	00155513          	srli	x10,x10,0x1
aaaac66c:	00a5c5b3          	xor	x11,x11,x10
aaaac670:	01059593          	slli	x11,x11,0x10
aaaac674:	0057d693          	srli	x13,x15,0x5
aaaac678:	0105d593          	srli	x11,x11,0x10
aaaac67c:	00b6c6b3          	xor	x13,x13,x11
aaaac680:	0016f693          	andi	x13,x13,1
aaaac684:	40d006b3          	neg	x13,x13
aaaac688:	00c6f6b3          	and	x13,x13,x12
aaaac68c:	0015d593          	srli	x11,x11,0x1
aaaac690:	00b6c6b3          	xor	x13,x13,x11
aaaac694:	01069693          	slli	x13,x13,0x10
aaaac698:	0067d713          	srli	x14,x15,0x6
aaaac69c:	0106d693          	srli	x13,x13,0x10
aaaac6a0:	00d74733          	xor	x14,x14,x13
aaaac6a4:	00177713          	andi	x14,x14,1
aaaac6a8:	40e00733          	neg	x14,x14
aaaac6ac:	00c77733          	and	x14,x14,x12
aaaac6b0:	0016d693          	srli	x13,x13,0x1
aaaac6b4:	00d74733          	xor	x14,x14,x13
aaaac6b8:	01071713          	slli	x14,x14,0x10
aaaac6bc:	01075713          	srli	x14,x14,0x10
aaaac6c0:	0077d793          	srli	x15,x15,0x7
aaaac6c4:	00e7c7b3          	xor	x15,x15,x14
aaaac6c8:	0017f793          	andi	x15,x15,1
aaaac6cc:	40f007b3          	neg	x15,x15
aaaac6d0:	00c7f7b3          	and	x15,x15,x12
aaaac6d4:	00175713          	srli	x14,x14,0x1
aaaac6d8:	00e7c7b3          	xor	x15,x15,x14
aaaac6dc:	01079d13          	slli	x26,x15,0x10
aaaac6e0:	010d5d13          	srli	x26,x26,0x10
aaaac6e4:	540b0ce3          	beqz	x22,aaaad43c <calc_func+0x1f0c>
aaaac6e8:	00412a03          	lw	x20,4(x2)
aaaac6ec:	00c12783          	lw	x15,12(x2)
aaaac6f0:	002b1413          	slli	x8,x22,0x2
aaaac6f4:	001b1493          	slli	x9,x22,0x1
aaaac6f8:	01440433          	add	x8,x8,x20
aaaac6fc:	00f484b3          	add	x9,x9,x15
aaaac700:	00000c93          	li	x25,0
aaaac704:	02012703          	lw	x14,32(x2)
aaaac708:	00c12d83          	lw	x27,12(x2)
aaaac70c:	001c9793          	slli	x15,x25,0x1
aaaac710:	00f70bb3          	add	x23,x14,x15
aaaac714:	00000993          	li	x19,0
aaaac718:	000d9583          	lh	x11,0(x27)
aaaac71c:	000b9503          	lh	x10,0(x23)
aaaac720:	002d8d93          	addi	x27,x27,2
aaaac724:	002b8b93          	addi	x23,x23,2
aaaac728:	00001097          	auipc	x1,0x1
aaaac72c:	7dc080e7          	jalr	2012(x1) # aaaadf04 <__mulsi3>
aaaac730:	00a989b3          	add	x19,x19,x10
aaaac734:	ffb492e3          	bne	x9,x27,aaaac718 <calc_func+0x11e8>
aaaac738:	013a2023          	sw	x19,0(x20)
aaaac73c:	004a0a13          	addi	x20,x20,4
aaaac740:	016c8cb3          	add	x25,x25,x22
aaaac744:	fc8a10e3          	bne	x20,x8,aaaac704 <calc_func+0x11d4>
aaaac748:	416008b3          	neg	x17,x22
aaaac74c:	00289e13          	slli	x28,x17,0x2
aaaac750:	00389813          	slli	x16,x17,0x3
aaaac754:	00000613          	li	x12,0
aaaac758:	00000513          	li	x10,0
aaaac75c:	00000793          	li	x15,0
aaaac760:	00000893          	li	x17,0
aaaac764:	01c40333          	add	x6,x8,x28
aaaac768:	00030693          	mv	x13,x6
aaaac76c:	0140006f          	j	aaaac780 <calc_func+0x1250>
aaaac770:	01071793          	slli	x15,x14,0x10
aaaac774:	00468693          	addi	x13,x13,4
aaaac778:	4107d793          	srai	x15,x15,0x10
aaaac77c:	02868e63          	beq	x13,x8,aaaac7b8 <calc_func+0x1288>
aaaac780:	00060593          	mv	x11,x12
aaaac784:	01079713          	slli	x14,x15,0x10
aaaac788:	0006a603          	lw	x12,0(x13)
aaaac78c:	01075713          	srli	x14,x14,0x10
aaaac790:	00a70793          	addi	x15,x14,10
aaaac794:	00c5a5b3          	slt	x11,x11,x12
aaaac798:	01079793          	slli	x15,x15,0x10
aaaac79c:	00c50533          	add	x10,x10,x12
aaaac7a0:	4107d793          	srai	x15,x15,0x10
aaaac7a4:	00b70733          	add	x14,x14,x11
aaaac7a8:	fca954e3          	bge	x18,x10,aaaac770 <calc_func+0x1240>
aaaac7ac:	00468693          	addi	x13,x13,4
aaaac7b0:	00000513          	li	x10,0
aaaac7b4:	fc8696e3          	bne	x13,x8,aaaac780 <calc_func+0x1250>
aaaac7b8:	00188893          	addi	x17,x17,1
aaaac7bc:	41030433          	sub	x8,x6,x16
aaaac7c0:	fb1b12e3          	bne	x22,x17,aaaac764 <calc_func+0x1234>
aaaac7c4:	01079893          	slli	x17,x15,0x10
aaaac7c8:	0108d893          	srli	x17,x17,0x10
aaaac7cc:	0ff7f793          	zext.b	x15,x15
aaaac7d0:	0088d893          	srli	x17,x17,0x8
aaaac7d4:	01a7c633          	xor	x12,x15,x26
aaaac7d8:	00167613          	andi	x12,x12,1
aaaac7dc:	ffffa737          	lui	x14,0xffffa
aaaac7e0:	00170713          	addi	x14,x14,1 # ffffa001 <_stack_top+0xfffa001>
aaaac7e4:	40c00633          	neg	x12,x12
aaaac7e8:	001d5d13          	srli	x26,x26,0x1
aaaac7ec:	00e67633          	and	x12,x12,x14
aaaac7f0:	01a64633          	xor	x12,x12,x26
aaaac7f4:	01061613          	slli	x12,x12,0x10
aaaac7f8:	01065613          	srli	x12,x12,0x10
aaaac7fc:	0017d693          	srli	x13,x15,0x1
aaaac800:	00c6c6b3          	xor	x13,x13,x12
aaaac804:	0016f693          	andi	x13,x13,1
aaaac808:	40d006b3          	neg	x13,x13
aaaac80c:	00165613          	srli	x12,x12,0x1
aaaac810:	00e6f6b3          	and	x13,x13,x14
aaaac814:	00c6c6b3          	xor	x13,x13,x12
aaaac818:	01069693          	slli	x13,x13,0x10
aaaac81c:	0027d593          	srli	x11,x15,0x2
aaaac820:	0106d693          	srli	x13,x13,0x10
aaaac824:	00d5c5b3          	xor	x11,x11,x13
aaaac828:	0015f593          	andi	x11,x11,1
aaaac82c:	40b005b3          	neg	x11,x11
aaaac830:	0016d693          	srli	x13,x13,0x1
aaaac834:	00e5f5b3          	and	x11,x11,x14
aaaac838:	00d5c5b3          	xor	x11,x11,x13
aaaac83c:	01059593          	slli	x11,x11,0x10
aaaac840:	0037d613          	srli	x12,x15,0x3
aaaac844:	0105d593          	srli	x11,x11,0x10
aaaac848:	00b64633          	xor	x12,x12,x11
aaaac84c:	00167613          	andi	x12,x12,1
aaaac850:	40c00633          	neg	x12,x12
aaaac854:	0015d593          	srli	x11,x11,0x1
aaaac858:	00e67633          	and	x12,x12,x14
aaaac85c:	00b64633          	xor	x12,x12,x11
aaaac860:	01061613          	slli	x12,x12,0x10
aaaac864:	0047d693          	srli	x13,x15,0x4
aaaac868:	01065613          	srli	x12,x12,0x10
aaaac86c:	00c6c6b3          	xor	x13,x13,x12
aaaac870:	0016f693          	andi	x13,x13,1
aaaac874:	40d006b3          	neg	x13,x13
aaaac878:	00165613          	srli	x12,x12,0x1
aaaac87c:	00e6f6b3          	and	x13,x13,x14
aaaac880:	00c6c6b3          	xor	x13,x13,x12
aaaac884:	01069693          	slli	x13,x13,0x10
aaaac888:	0057d593          	srli	x11,x15,0x5
aaaac88c:	0106d693          	srli	x13,x13,0x10
aaaac890:	00d5c5b3          	xor	x11,x11,x13
aaaac894:	0015f593          	andi	x11,x11,1
aaaac898:	40b005b3          	neg	x11,x11
aaaac89c:	0016d693          	srli	x13,x13,0x1
aaaac8a0:	00e5f5b3          	and	x11,x11,x14
aaaac8a4:	00d5c5b3          	xor	x11,x11,x13
aaaac8a8:	01059593          	slli	x11,x11,0x10
aaaac8ac:	0067d613          	srli	x12,x15,0x6
aaaac8b0:	0105d593          	srli	x11,x11,0x10
aaaac8b4:	00b64633          	xor	x12,x12,x11
aaaac8b8:	00167613          	andi	x12,x12,1
aaaac8bc:	40c00633          	neg	x12,x12
aaaac8c0:	0015d593          	srli	x11,x11,0x1
aaaac8c4:	00e67633          	and	x12,x12,x14
aaaac8c8:	00b64633          	xor	x12,x12,x11
aaaac8cc:	01061613          	slli	x12,x12,0x10
aaaac8d0:	01065613          	srli	x12,x12,0x10
aaaac8d4:	0077d793          	srli	x15,x15,0x7
aaaac8d8:	00c7c7b3          	xor	x15,x15,x12
aaaac8dc:	0017f793          	andi	x15,x15,1
aaaac8e0:	40f007b3          	neg	x15,x15
aaaac8e4:	00165613          	srli	x12,x12,0x1
aaaac8e8:	00e7f7b3          	and	x15,x15,x14
aaaac8ec:	00c7c7b3          	xor	x15,x15,x12
aaaac8f0:	01079793          	slli	x15,x15,0x10
aaaac8f4:	0107d793          	srli	x15,x15,0x10
aaaac8f8:	00f8c633          	xor	x12,x17,x15
aaaac8fc:	00167613          	andi	x12,x12,1
aaaac900:	40c00633          	neg	x12,x12
aaaac904:	00e67633          	and	x12,x12,x14
aaaac908:	0017d793          	srli	x15,x15,0x1
aaaac90c:	00f647b3          	xor	x15,x12,x15
aaaac910:	01079793          	slli	x15,x15,0x10
aaaac914:	0018d693          	srli	x13,x17,0x1
aaaac918:	0107d793          	srli	x15,x15,0x10
aaaac91c:	00f6c6b3          	xor	x13,x13,x15
aaaac920:	0016f693          	andi	x13,x13,1
aaaac924:	40d006b3          	neg	x13,x13
aaaac928:	0017d793          	srli	x15,x15,0x1
aaaac92c:	00e6f6b3          	and	x13,x13,x14
aaaac930:	00f6c6b3          	xor	x13,x13,x15
aaaac934:	01069693          	slli	x13,x13,0x10
aaaac938:	0028d813          	srli	x16,x17,0x2
aaaac93c:	0106d693          	srli	x13,x13,0x10
aaaac940:	00d84833          	xor	x16,x16,x13
aaaac944:	00187813          	andi	x16,x16,1
aaaac948:	41000833          	neg	x16,x16
aaaac94c:	0016d693          	srli	x13,x13,0x1
aaaac950:	00e87833          	and	x16,x16,x14
aaaac954:	00d84833          	xor	x16,x16,x13
aaaac958:	01081813          	slli	x16,x16,0x10
aaaac95c:	0038d513          	srli	x10,x17,0x3
aaaac960:	01085813          	srli	x16,x16,0x10
aaaac964:	01054533          	xor	x10,x10,x16
aaaac968:	00157513          	andi	x10,x10,1
aaaac96c:	40a00533          	neg	x10,x10
aaaac970:	00e57533          	and	x10,x10,x14
aaaac974:	00185813          	srli	x16,x16,0x1
aaaac978:	01054533          	xor	x10,x10,x16
aaaac97c:	01051513          	slli	x10,x10,0x10
aaaac980:	0048d593          	srli	x11,x17,0x4
aaaac984:	01055513          	srli	x10,x10,0x10
aaaac988:	00a5c5b3          	xor	x11,x11,x10
aaaac98c:	0015f593          	andi	x11,x11,1
aaaac990:	40b005b3          	neg	x11,x11
aaaac994:	00e5f5b3          	and	x11,x11,x14
aaaac998:	00155513          	srli	x10,x10,0x1
aaaac99c:	00a5c5b3          	xor	x11,x11,x10
aaaac9a0:	01059593          	slli	x11,x11,0x10
aaaac9a4:	0058d613          	srli	x12,x17,0x5
aaaac9a8:	0105d593          	srli	x11,x11,0x10
aaaac9ac:	00b64633          	xor	x12,x12,x11
aaaac9b0:	00167613          	andi	x12,x12,1
aaaac9b4:	40c00633          	neg	x12,x12
aaaac9b8:	00e67633          	and	x12,x12,x14
aaaac9bc:	0015d593          	srli	x11,x11,0x1
aaaac9c0:	00b64633          	xor	x12,x12,x11
aaaac9c4:	01061613          	slli	x12,x12,0x10
aaaac9c8:	0068d693          	srli	x13,x17,0x6
aaaac9cc:	01065613          	srli	x12,x12,0x10
aaaac9d0:	00c6c6b3          	xor	x13,x13,x12
aaaac9d4:	0016f693          	andi	x13,x13,1
aaaac9d8:	40d006b3          	neg	x13,x13
aaaac9dc:	00e6f6b3          	and	x13,x13,x14
aaaac9e0:	00165613          	srli	x12,x12,0x1
aaaac9e4:	00c6c6b3          	xor	x13,x13,x12
aaaac9e8:	01069693          	slli	x13,x13,0x10
aaaac9ec:	0078d793          	srli	x15,x17,0x7
aaaac9f0:	0106d693          	srli	x13,x13,0x10
aaaac9f4:	00d7c7b3          	xor	x15,x15,x13
aaaac9f8:	0017f793          	andi	x15,x15,1
aaaac9fc:	40f007b3          	neg	x15,x15
aaaaca00:	00e7f7b3          	and	x15,x15,x14
aaaaca04:	0016d693          	srli	x13,x13,0x1
aaaaca08:	00d7c7b3          	xor	x15,x15,x13
aaaaca0c:	01079793          	slli	x15,x15,0x10
aaaaca10:	0107d793          	srli	x15,x15,0x10
aaaaca14:	02f12623          	sw	x15,44(x2)
aaaaca18:	00000893          	li	x17,0
aaaaca1c:	00000793          	li	x15,0
aaaaca20:	0a0b0863          	beqz	x22,aaaacad0 <calc_func+0x15a0>
aaaaca24:	02012d83          	lw	x27,32(x2)
aaaaca28:	001b1413          	slli	x8,x22,0x1
aaaaca2c:	00012823          	sw	x0,16(x2)
aaaaca30:	008d84b3          	add	x9,x27,x8
aaaaca34:	00012a23          	sw	x0,20(x2)
aaaaca38:	01012783          	lw	x15,16(x2)
aaaaca3c:	00c12c83          	lw	x25,12(x2)
aaaaca40:	00000d13          	li	x26,0
aaaaca44:	00279a13          	slli	x20,x15,0x2
aaaaca48:	00412783          	lw	x15,4(x2)
aaaaca4c:	00fa0a33          	add	x20,x20,x15
aaaaca50:	000c8c13          	mv	x24,x25
aaaaca54:	000d8993          	mv	x19,x27
aaaaca58:	00000b93          	li	x23,0
aaaaca5c:	000c1583          	lh	x11,0(x24)
aaaaca60:	00099503          	lh	x10,0(x19)
aaaaca64:	00298993          	addi	x19,x19,2
aaaaca68:	008c0c33          	add	x24,x24,x8
aaaaca6c:	00001097          	auipc	x1,0x1
aaaaca70:	498080e7          	jalr	1176(x1) # aaaadf04 <__mulsi3>
aaaaca74:	00ab8bb3          	add	x23,x23,x10
aaaaca78:	fe9992e3          	bne	x19,x9,aaaaca5c <calc_func+0x152c>
aaaaca7c:	017a2023          	sw	x23,0(x20)
aaaaca80:	001d0713          	addi	x14,x26,1
aaaaca84:	004a0a13          	addi	x20,x20,4
aaaaca88:	002c8c93          	addi	x25,x25,2
aaaaca8c:	00eb0663          	beq	x22,x14,aaaaca98 <calc_func+0x1568>
aaaaca90:	00070d13          	mv	x26,x14
aaaaca94:	fbdff06f          	j	aaaaca50 <calc_func+0x1520>
aaaaca98:	01012783          	lw	x15,16(x2)
aaaaca9c:	01412703          	lw	x14,20(x2)
aaaacaa0:	008d8db3          	add	x27,x27,x8
aaaacaa4:	016787b3          	add	x15,x15,x22
aaaacaa8:	00f12823          	sw	x15,16(x2)
aaaacaac:	008984b3          	add	x9,x19,x8
aaaacab0:	00170793          	addi	x15,x14,1
aaaacab4:	05a70ce3          	beq	x14,x26,aaaad30c <calc_func+0x1ddc>
aaaacab8:	00f12a23          	sw	x15,20(x2)
aaaacabc:	f7dff06f          	j	aaaaca38 <calc_func+0x1508>
aaaacac0:	01079893          	slli	x17,x15,0x10
aaaacac4:	0108d893          	srli	x17,x17,0x10
aaaacac8:	0ff7f793          	zext.b	x15,x15
aaaacacc:	0088d893          	srli	x17,x17,0x8
aaaacad0:	02c12683          	lw	x13,44(x2)
aaaacad4:	ffffa737          	lui	x14,0xffffa
aaaacad8:	00170713          	addi	x14,x14,1 # ffffa001 <_stack_top+0xfffa001>
aaaacadc:	00d7c633          	xor	x12,x15,x13
aaaacae0:	00167613          	andi	x12,x12,1
aaaacae4:	40c00633          	neg	x12,x12
aaaacae8:	0016d693          	srli	x13,x13,0x1
aaaacaec:	00e67633          	and	x12,x12,x14
aaaacaf0:	00d64633          	xor	x12,x12,x13
aaaacaf4:	01061613          	slli	x12,x12,0x10
aaaacaf8:	01065613          	srli	x12,x12,0x10
aaaacafc:	0017d693          	srli	x13,x15,0x1
aaaacb00:	00c6c6b3          	xor	x13,x13,x12
aaaacb04:	0016f693          	andi	x13,x13,1
aaaacb08:	40d006b3          	neg	x13,x13
aaaacb0c:	00165613          	srli	x12,x12,0x1
aaaacb10:	00e6f6b3          	and	x13,x13,x14
aaaacb14:	00c6c6b3          	xor	x13,x13,x12
aaaacb18:	01069693          	slli	x13,x13,0x10
aaaacb1c:	0027d593          	srli	x11,x15,0x2
aaaacb20:	0106d693          	srli	x13,x13,0x10
aaaacb24:	00d5c5b3          	xor	x11,x11,x13
aaaacb28:	0015f593          	andi	x11,x11,1
aaaacb2c:	40b005b3          	neg	x11,x11
aaaacb30:	0016d693          	srli	x13,x13,0x1
aaaacb34:	00e5f5b3          	and	x11,x11,x14
aaaacb38:	00d5c5b3          	xor	x11,x11,x13
aaaacb3c:	01059593          	slli	x11,x11,0x10
aaaacb40:	0037d613          	srli	x12,x15,0x3
aaaacb44:	0105d593          	srli	x11,x11,0x10
aaaacb48:	00b64633          	xor	x12,x12,x11
aaaacb4c:	00167613          	andi	x12,x12,1
aaaacb50:	40c00633          	neg	x12,x12
aaaacb54:	0015d593          	srli	x11,x11,0x1
aaaacb58:	00e67633          	and	x12,x12,x14
aaaacb5c:	00b64633          	xor	x12,x12,x11
aaaacb60:	01061613          	slli	x12,x12,0x10
aaaacb64:	0047d693          	srli	x13,x15,0x4
aaaacb68:	01065613          	srli	x12,x12,0x10
aaaacb6c:	00c6c6b3          	xor	x13,x13,x12
aaaacb70:	0016f693          	andi	x13,x13,1
aaaacb74:	40d006b3          	neg	x13,x13
aaaacb78:	00165613          	srli	x12,x12,0x1
aaaacb7c:	00e6f6b3          	and	x13,x13,x14
aaaacb80:	00c6c6b3          	xor	x13,x13,x12
aaaacb84:	01069693          	slli	x13,x13,0x10
aaaacb88:	0057d593          	srli	x11,x15,0x5
aaaacb8c:	0106d693          	srli	x13,x13,0x10
aaaacb90:	00d5c5b3          	xor	x11,x11,x13
aaaacb94:	0015f593          	andi	x11,x11,1
aaaacb98:	40b005b3          	neg	x11,x11
aaaacb9c:	0016d693          	srli	x13,x13,0x1
aaaacba0:	00e5f5b3          	and	x11,x11,x14
aaaacba4:	00d5c5b3          	xor	x11,x11,x13
aaaacba8:	01059593          	slli	x11,x11,0x10
aaaacbac:	0067d613          	srli	x12,x15,0x6
aaaacbb0:	0105d593          	srli	x11,x11,0x10
aaaacbb4:	00b64633          	xor	x12,x12,x11
aaaacbb8:	00167613          	andi	x12,x12,1
aaaacbbc:	40c00633          	neg	x12,x12
aaaacbc0:	0015d593          	srli	x11,x11,0x1
aaaacbc4:	00e67633          	and	x12,x12,x14
aaaacbc8:	00b64633          	xor	x12,x12,x11
aaaacbcc:	01061613          	slli	x12,x12,0x10
aaaacbd0:	01065613          	srli	x12,x12,0x10
aaaacbd4:	0077d793          	srli	x15,x15,0x7
aaaacbd8:	00c7c7b3          	xor	x15,x15,x12
aaaacbdc:	0017f793          	andi	x15,x15,1
aaaacbe0:	40f007b3          	neg	x15,x15
aaaacbe4:	00165613          	srli	x12,x12,0x1
aaaacbe8:	00e7f7b3          	and	x15,x15,x14
aaaacbec:	00c7c7b3          	xor	x15,x15,x12
aaaacbf0:	01079793          	slli	x15,x15,0x10
aaaacbf4:	0107d793          	srli	x15,x15,0x10
aaaacbf8:	00f8c633          	xor	x12,x17,x15
aaaacbfc:	00167613          	andi	x12,x12,1
aaaacc00:	40c00633          	neg	x12,x12
aaaacc04:	00e67633          	and	x12,x12,x14
aaaacc08:	0017d793          	srli	x15,x15,0x1
aaaacc0c:	00f647b3          	xor	x15,x12,x15
aaaacc10:	01079793          	slli	x15,x15,0x10
aaaacc14:	0107d793          	srli	x15,x15,0x10
aaaacc18:	0018d693          	srli	x13,x17,0x1
aaaacc1c:	00f6c6b3          	xor	x13,x13,x15
aaaacc20:	0016f693          	andi	x13,x13,1
aaaacc24:	40d006b3          	neg	x13,x13
aaaacc28:	0017d793          	srli	x15,x15,0x1
aaaacc2c:	00e6f6b3          	and	x13,x13,x14
aaaacc30:	00f6c6b3          	xor	x13,x13,x15
aaaacc34:	01069693          	slli	x13,x13,0x10
aaaacc38:	0106d693          	srli	x13,x13,0x10
aaaacc3c:	0028d813          	srli	x16,x17,0x2
aaaacc40:	00d84833          	xor	x16,x16,x13
aaaacc44:	00187813          	andi	x16,x16,1
aaaacc48:	41000833          	neg	x16,x16
aaaacc4c:	0016d693          	srli	x13,x13,0x1
aaaacc50:	00e87833          	and	x16,x16,x14
aaaacc54:	00d84833          	xor	x16,x16,x13
aaaacc58:	01081813          	slli	x16,x16,0x10
aaaacc5c:	01085813          	srli	x16,x16,0x10
aaaacc60:	0038d513          	srli	x10,x17,0x3
aaaacc64:	01054533          	xor	x10,x10,x16
aaaacc68:	00157513          	andi	x10,x10,1
aaaacc6c:	40a00533          	neg	x10,x10
aaaacc70:	00e57533          	and	x10,x10,x14
aaaacc74:	00185813          	srli	x16,x16,0x1
aaaacc78:	01054533          	xor	x10,x10,x16
aaaacc7c:	01051513          	slli	x10,x10,0x10
aaaacc80:	01055513          	srli	x10,x10,0x10
aaaacc84:	0048d593          	srli	x11,x17,0x4
aaaacc88:	00a5c5b3          	xor	x11,x11,x10
aaaacc8c:	0015f593          	andi	x11,x11,1
aaaacc90:	40b005b3          	neg	x11,x11
aaaacc94:	00e5f5b3          	and	x11,x11,x14
aaaacc98:	00155513          	srli	x10,x10,0x1
aaaacc9c:	00a5c5b3          	xor	x11,x11,x10
aaaacca0:	01059593          	slli	x11,x11,0x10
aaaacca4:	0105d593          	srli	x11,x11,0x10
aaaacca8:	0058d613          	srli	x12,x17,0x5
aaaaccac:	00b64633          	xor	x12,x12,x11
aaaaccb0:	00167613          	andi	x12,x12,1
aaaaccb4:	40c00633          	neg	x12,x12
aaaaccb8:	00e67633          	and	x12,x12,x14
aaaaccbc:	0015d593          	srli	x11,x11,0x1
aaaaccc0:	00b64633          	xor	x12,x12,x11
aaaaccc4:	01061613          	slli	x12,x12,0x10
aaaaccc8:	01065613          	srli	x12,x12,0x10
aaaacccc:	0068d693          	srli	x13,x17,0x6
aaaaccd0:	00c6c6b3          	xor	x13,x13,x12
aaaaccd4:	0016f693          	andi	x13,x13,1
aaaaccd8:	40d006b3          	neg	x13,x13
aaaaccdc:	00e6f6b3          	and	x13,x13,x14
aaaacce0:	00165613          	srli	x12,x12,0x1
aaaacce4:	00c6c6b3          	xor	x13,x13,x12
aaaacce8:	01069693          	slli	x13,x13,0x10
aaaaccec:	0106d693          	srli	x13,x13,0x10
aaaaccf0:	0078d793          	srli	x15,x17,0x7
aaaaccf4:	00d7c7b3          	xor	x15,x15,x13
aaaaccf8:	0017f793          	andi	x15,x15,1
aaaaccfc:	40f007b3          	neg	x15,x15
aaaacd00:	00e7f7b3          	and	x15,x15,x14
aaaacd04:	0016d693          	srli	x13,x13,0x1
aaaacd08:	00d7c7b3          	xor	x15,x15,x13
aaaacd0c:	01079793          	slli	x15,x15,0x10
aaaacd10:	0107d793          	srli	x15,x15,0x10
aaaacd14:	02f12623          	sw	x15,44(x2)
aaaacd18:	00000793          	li	x15,0
aaaacd1c:	0c0b0663          	beqz	x22,aaaacde8 <calc_func+0x18b8>
aaaacd20:	02012d83          	lw	x27,32(x2)
aaaacd24:	001b1413          	slli	x8,x22,0x1
aaaacd28:	00012823          	sw	x0,16(x2)
aaaacd2c:	008d84b3          	add	x9,x27,x8
aaaacd30:	00012a23          	sw	x0,20(x2)
aaaacd34:	01012783          	lw	x15,16(x2)
aaaacd38:	00c12c83          	lw	x25,12(x2)
aaaacd3c:	00000d13          	li	x26,0
aaaacd40:	00279a13          	slli	x20,x15,0x2
aaaacd44:	00412783          	lw	x15,4(x2)
aaaacd48:	00fa0a33          	add	x20,x20,x15
aaaacd4c:	000c8993          	mv	x19,x25
aaaacd50:	000d8b93          	mv	x23,x27
aaaacd54:	00000c13          	li	x24,0
aaaacd58:	00099583          	lh	x11,0(x19)
aaaacd5c:	000b9503          	lh	x10,0(x23)
aaaacd60:	002b8b93          	addi	x23,x23,2
aaaacd64:	008989b3          	add	x19,x19,x8
aaaacd68:	00001097          	auipc	x1,0x1
aaaacd6c:	19c080e7          	jalr	412(x1) # aaaadf04 <__mulsi3>
aaaacd70:	40255613          	srai	x12,x10,0x2
aaaacd74:	40555593          	srai	x11,x10,0x5
aaaacd78:	07f5f593          	andi	x11,x11,127
aaaacd7c:	00f67513          	andi	x10,x12,15
aaaacd80:	00001097          	auipc	x1,0x1
aaaacd84:	184080e7          	jalr	388(x1) # aaaadf04 <__mulsi3>
aaaacd88:	00ac0c33          	add	x24,x24,x10
aaaacd8c:	fc9b96e3          	bne	x23,x9,aaaacd58 <calc_func+0x1828>
aaaacd90:	018a2023          	sw	x24,0(x20)
aaaacd94:	001d0713          	addi	x14,x26,1
aaaacd98:	004a0a13          	addi	x20,x20,4
aaaacd9c:	002c8c93          	addi	x25,x25,2
aaaacda0:	00eb0663          	beq	x22,x14,aaaacdac <calc_func+0x187c>
aaaacda4:	00070d13          	mv	x26,x14
aaaacda8:	fa5ff06f          	j	aaaacd4c <calc_func+0x181c>
aaaacdac:	01012783          	lw	x15,16(x2)
aaaacdb0:	01412703          	lw	x14,20(x2)
aaaacdb4:	008d8db3          	add	x27,x27,x8
aaaacdb8:	016787b3          	add	x15,x15,x22
aaaacdbc:	00f12823          	sw	x15,16(x2)
aaaacdc0:	008b84b3          	add	x9,x23,x8
aaaacdc4:	00170793          	addi	x15,x14,1
aaaacdc8:	5da70a63          	beq	x14,x26,aaaad39c <calc_func+0x1e6c>
aaaacdcc:	00f12a23          	sw	x15,20(x2)
aaaacdd0:	f65ff06f          	j	aaaacd34 <calc_func+0x1804>
aaaacdd4:	01079713          	slli	x14,x15,0x10
aaaacdd8:	01075713          	srli	x14,x14,0x10
aaaacddc:	0ff7f793          	zext.b	x15,x15
aaaacde0:	02f12423          	sw	x15,40(x2)
aaaacde4:	00875793          	srli	x15,x14,0x8
aaaacde8:	02812883          	lw	x17,40(x2)
aaaacdec:	02c12683          	lw	x13,44(x2)
aaaacdf0:	ffffa737          	lui	x14,0xffffa
aaaacdf4:	00170713          	addi	x14,x14,1 # ffffa001 <_stack_top+0xfffa001>
aaaacdf8:	00d8c5b3          	xor	x11,x17,x13
aaaacdfc:	0015f593          	andi	x11,x11,1
aaaace00:	40b005b3          	neg	x11,x11
aaaace04:	0016d693          	srli	x13,x13,0x1
aaaace08:	00e5f5b3          	and	x11,x11,x14
aaaace0c:	00d5c5b3          	xor	x11,x11,x13
aaaace10:	01059593          	slli	x11,x11,0x10
aaaace14:	0105d593          	srli	x11,x11,0x10
aaaace18:	0018d613          	srli	x12,x17,0x1
aaaace1c:	00b64633          	xor	x12,x12,x11
aaaace20:	00167613          	andi	x12,x12,1
aaaace24:	40c00633          	neg	x12,x12
aaaace28:	0015d593          	srli	x11,x11,0x1
aaaace2c:	00e67633          	and	x12,x12,x14
aaaace30:	00b64633          	xor	x12,x12,x11
aaaace34:	01061613          	slli	x12,x12,0x10
aaaace38:	0028d693          	srli	x13,x17,0x2
aaaace3c:	01065613          	srli	x12,x12,0x10
aaaace40:	00c6c6b3          	xor	x13,x13,x12
aaaace44:	0016f693          	andi	x13,x13,1
aaaace48:	40d006b3          	neg	x13,x13
aaaace4c:	00165613          	srli	x12,x12,0x1
aaaace50:	00e6f6b3          	and	x13,x13,x14
aaaace54:	00c6c6b3          	xor	x13,x13,x12
aaaace58:	01069693          	slli	x13,x13,0x10
aaaace5c:	0038d813          	srli	x16,x17,0x3
aaaace60:	0106d693          	srli	x13,x13,0x10
aaaace64:	00d84833          	xor	x16,x16,x13
aaaace68:	00187813          	andi	x16,x16,1
aaaace6c:	41000833          	neg	x16,x16
aaaace70:	0016d693          	srli	x13,x13,0x1
aaaace74:	00e87833          	and	x16,x16,x14
aaaace78:	00d84833          	xor	x16,x16,x13
aaaace7c:	01081813          	slli	x16,x16,0x10
aaaace80:	0048d513          	srli	x10,x17,0x4
aaaace84:	01085813          	srli	x16,x16,0x10
aaaace88:	01054533          	xor	x10,x10,x16
aaaace8c:	00157513          	andi	x10,x10,1
aaaace90:	40a00533          	neg	x10,x10
aaaace94:	00185813          	srli	x16,x16,0x1
aaaace98:	00e57533          	and	x10,x10,x14
aaaace9c:	01054533          	xor	x10,x10,x16
aaaacea0:	01051513          	slli	x10,x10,0x10
aaaacea4:	0058d593          	srli	x11,x17,0x5
aaaacea8:	01055513          	srli	x10,x10,0x10
aaaaceac:	00a5c5b3          	xor	x11,x11,x10
aaaaceb0:	0015f593          	andi	x11,x11,1
aaaaceb4:	40b005b3          	neg	x11,x11
aaaaceb8:	00155513          	srli	x10,x10,0x1
aaaacebc:	00e5f5b3          	and	x11,x11,x14
aaaacec0:	00a5c5b3          	xor	x11,x11,x10
aaaacec4:	01059593          	slli	x11,x11,0x10
aaaacec8:	0068d613          	srli	x12,x17,0x6
aaaacecc:	0105d593          	srli	x11,x11,0x10
aaaaced0:	00b64633          	xor	x12,x12,x11
aaaaced4:	00167613          	andi	x12,x12,1
aaaaced8:	40c00633          	neg	x12,x12
aaaacedc:	0015d593          	srli	x11,x11,0x1
aaaacee0:	00e67633          	and	x12,x12,x14
aaaacee4:	00b64633          	xor	x12,x12,x11
aaaacee8:	01061613          	slli	x12,x12,0x10
aaaaceec:	0078d693          	srli	x13,x17,0x7
aaaacef0:	01065613          	srli	x12,x12,0x10
aaaacef4:	00c6c6b3          	xor	x13,x13,x12
aaaacef8:	0016f693          	andi	x13,x13,1
aaaacefc:	40d006b3          	neg	x13,x13
aaaacf00:	00165613          	srli	x12,x12,0x1
aaaacf04:	00e6f6b3          	and	x13,x13,x14
aaaacf08:	00c6c6b3          	xor	x13,x13,x12
aaaacf0c:	01069693          	slli	x13,x13,0x10
aaaacf10:	0106d693          	srli	x13,x13,0x10
aaaacf14:	00d7c333          	xor	x6,x15,x13
aaaacf18:	00137313          	andi	x6,x6,1
aaaacf1c:	40600333          	neg	x6,x6
aaaacf20:	0016d693          	srli	x13,x13,0x1
aaaacf24:	00e37333          	and	x6,x6,x14
aaaacf28:	00d34333          	xor	x6,x6,x13
aaaacf2c:	01031313          	slli	x6,x6,0x10
aaaacf30:	0017d893          	srli	x17,x15,0x1
aaaacf34:	01035313          	srli	x6,x6,0x10
aaaacf38:	0068c8b3          	xor	x17,x17,x6
aaaacf3c:	0018f893          	andi	x17,x17,1
aaaacf40:	411008b3          	neg	x17,x17
aaaacf44:	00e8f8b3          	and	x17,x17,x14
aaaacf48:	00135313          	srli	x6,x6,0x1
aaaacf4c:	0068c8b3          	xor	x17,x17,x6
aaaacf50:	01089893          	slli	x17,x17,0x10
aaaacf54:	0027d813          	srli	x16,x15,0x2
aaaacf58:	0108d893          	srli	x17,x17,0x10
aaaacf5c:	01184833          	xor	x16,x16,x17
aaaacf60:	00187813          	andi	x16,x16,1
aaaacf64:	41000833          	neg	x16,x16
aaaacf68:	00e87833          	and	x16,x16,x14
aaaacf6c:	0018d893          	srli	x17,x17,0x1
aaaacf70:	01184833          	xor	x16,x16,x17
aaaacf74:	01081813          	slli	x16,x16,0x10
aaaacf78:	0037d513          	srli	x10,x15,0x3
aaaacf7c:	01085813          	srli	x16,x16,0x10
aaaacf80:	01054533          	xor	x10,x10,x16
aaaacf84:	00157513          	andi	x10,x10,1
aaaacf88:	40a00533          	neg	x10,x10
aaaacf8c:	00185813          	srli	x16,x16,0x1
aaaacf90:	00e57533          	and	x10,x10,x14
aaaacf94:	01054533          	xor	x10,x10,x16
aaaacf98:	01051513          	slli	x10,x10,0x10
aaaacf9c:	0047d593          	srli	x11,x15,0x4
aaaacfa0:	01055513          	srli	x10,x10,0x10
aaaacfa4:	00a5c5b3          	xor	x11,x11,x10
aaaacfa8:	0015f593          	andi	x11,x11,1
aaaacfac:	40b005b3          	neg	x11,x11
aaaacfb0:	00e5f5b3          	and	x11,x11,x14
aaaacfb4:	00155513          	srli	x10,x10,0x1
aaaacfb8:	00a5c5b3          	xor	x11,x11,x10
aaaacfbc:	01059593          	slli	x11,x11,0x10
aaaacfc0:	0057d613          	srli	x12,x15,0x5
aaaacfc4:	0105d593          	srli	x11,x11,0x10
aaaacfc8:	00b64633          	xor	x12,x12,x11
aaaacfcc:	00167613          	andi	x12,x12,1
aaaacfd0:	40c00633          	neg	x12,x12
aaaacfd4:	00e67633          	and	x12,x12,x14
aaaacfd8:	0015d593          	srli	x11,x11,0x1
aaaacfdc:	00b64633          	xor	x12,x12,x11
aaaacfe0:	01061613          	slli	x12,x12,0x10
aaaacfe4:	0067d693          	srli	x13,x15,0x6
aaaacfe8:	01065613          	srli	x12,x12,0x10
aaaacfec:	00c6c6b3          	xor	x13,x13,x12
aaaacff0:	0016f693          	andi	x13,x13,1
aaaacff4:	40d006b3          	neg	x13,x13
aaaacff8:	00e6f6b3          	and	x13,x13,x14
aaaacffc:	00165613          	srli	x12,x12,0x1
aaaad000:	00c6c6b3          	xor	x13,x13,x12
aaaad004:	01069693          	slli	x13,x13,0x10
aaaad008:	0106d693          	srli	x13,x13,0x10
aaaad00c:	0077d793          	srli	x15,x15,0x7
aaaad010:	00d7c7b3          	xor	x15,x15,x13
aaaad014:	0017f793          	andi	x15,x15,1
aaaad018:	40f007b3          	neg	x15,x15
aaaad01c:	00e7f7b3          	and	x15,x15,x14
aaaad020:	0016d693          	srli	x13,x13,0x1
aaaad024:	00d7c7b3          	xor	x15,x15,x13
aaaad028:	01079813          	slli	x16,x15,0x10
aaaad02c:	01085813          	srli	x16,x16,0x10
aaaad030:	040b0263          	beqz	x22,aaaad074 <calc_func+0x1b44>
aaaad034:	02012783          	lw	x15,32(x2)
aaaad038:	001b1313          	slli	x6,x22,0x1
aaaad03c:	416008b3          	neg	x17,x22
aaaad040:	006786b3          	add	x13,x15,x6
aaaad044:	00289613          	slli	x12,x17,0x2
aaaad048:	00000593          	li	x11,0
aaaad04c:	40668533          	sub	x10,x13,x6
aaaad050:	00050793          	mv	x15,x10
aaaad054:	0007d703          	lhu	x14,0(x15)
aaaad058:	00278793          	addi	x15,x15,2
aaaad05c:	41570733          	sub	x14,x14,x21
aaaad060:	fee79f23          	sh	x14,-2(x15)
aaaad064:	fed798e3          	bne	x15,x13,aaaad054 <calc_func+0x1b24>
aaaad068:	00158593          	addi	x11,x11,1
aaaad06c:	40c506b3          	sub	x13,x10,x12
aaaad070:	fcbb1ee3          	bne	x22,x11,aaaad04c <calc_func+0x1b1c>
aaaad074:	00812783          	lw	x15,8(x2)
aaaad078:	0ff87e13          	zext.b	x28,x16
aaaad07c:	ffffa737          	lui	x14,0xffffa
aaaad080:	00fe4633          	xor	x12,x28,x15
aaaad084:	00167613          	andi	x12,x12,1
aaaad088:	00170713          	addi	x14,x14,1 # ffffa001 <_stack_top+0xfffa001>
aaaad08c:	40c00633          	neg	x12,x12
aaaad090:	0017d993          	srli	x19,x15,0x1
aaaad094:	00e67633          	and	x12,x12,x14
aaaad098:	01364633          	xor	x12,x12,x19
aaaad09c:	01061613          	slli	x12,x12,0x10
aaaad0a0:	01065613          	srli	x12,x12,0x10
aaaad0a4:	001e5693          	srli	x13,x28,0x1
aaaad0a8:	00c6c6b3          	xor	x13,x13,x12
aaaad0ac:	0016f693          	andi	x13,x13,1
aaaad0b0:	40d006b3          	neg	x13,x13
aaaad0b4:	00165613          	srli	x12,x12,0x1
aaaad0b8:	00e6f6b3          	and	x13,x13,x14
aaaad0bc:	00c6c6b3          	xor	x13,x13,x12
aaaad0c0:	01069693          	slli	x13,x13,0x10
aaaad0c4:	002e5793          	srli	x15,x28,0x2
aaaad0c8:	0106d693          	srli	x13,x13,0x10
aaaad0cc:	00d7c7b3          	xor	x15,x15,x13
aaaad0d0:	0017f793          	andi	x15,x15,1
aaaad0d4:	40f007b3          	neg	x15,x15
aaaad0d8:	0016d693          	srli	x13,x13,0x1
aaaad0dc:	00e7f7b3          	and	x15,x15,x14
aaaad0e0:	00d7c7b3          	xor	x15,x15,x13
aaaad0e4:	01079793          	slli	x15,x15,0x10
aaaad0e8:	003e5513          	srli	x10,x28,0x3
aaaad0ec:	0107d793          	srli	x15,x15,0x10
aaaad0f0:	00f54533          	xor	x10,x10,x15
aaaad0f4:	00157513          	andi	x10,x10,1
aaaad0f8:	40a00533          	neg	x10,x10
aaaad0fc:	0017d793          	srli	x15,x15,0x1
aaaad100:	00e57533          	and	x10,x10,x14
aaaad104:	00f54533          	xor	x10,x10,x15
aaaad108:	01051513          	slli	x10,x10,0x10
aaaad10c:	004e5613          	srli	x12,x28,0x4
aaaad110:	01055513          	srli	x10,x10,0x10
aaaad114:	00a64633          	xor	x12,x12,x10
aaaad118:	00167613          	andi	x12,x12,1
aaaad11c:	40c00633          	neg	x12,x12
aaaad120:	00155513          	srli	x10,x10,0x1
aaaad124:	00e67633          	and	x12,x12,x14
aaaad128:	00a64633          	xor	x12,x12,x10
aaaad12c:	01061613          	slli	x12,x12,0x10
aaaad130:	005e5693          	srli	x13,x28,0x5
aaaad134:	01065613          	srli	x12,x12,0x10
aaaad138:	00c6c6b3          	xor	x13,x13,x12
aaaad13c:	0016f693          	andi	x13,x13,1
aaaad140:	40d006b3          	neg	x13,x13
aaaad144:	00165613          	srli	x12,x12,0x1
aaaad148:	00e6f6b3          	and	x13,x13,x14
aaaad14c:	00c6c6b3          	xor	x13,x13,x12
aaaad150:	01069693          	slli	x13,x13,0x10
aaaad154:	006e5593          	srli	x11,x28,0x6
aaaad158:	0106d693          	srli	x13,x13,0x10
aaaad15c:	00d5c5b3          	xor	x11,x11,x13
aaaad160:	0015f593          	andi	x11,x11,1
aaaad164:	40b005b3          	neg	x11,x11
aaaad168:	0016d693          	srli	x13,x13,0x1
aaaad16c:	00e5f5b3          	and	x11,x11,x14
aaaad170:	00d5c5b3          	xor	x11,x11,x13
aaaad174:	01059593          	slli	x11,x11,0x10
aaaad178:	0105d593          	srli	x11,x11,0x10
aaaad17c:	007e5e13          	srli	x28,x28,0x7
aaaad180:	00be4e33          	xor	x28,x28,x11
aaaad184:	001e7e13          	andi	x28,x28,1
aaaad188:	41c00e33          	neg	x28,x28
aaaad18c:	0015d593          	srli	x11,x11,0x1
aaaad190:	00ee7e33          	and	x28,x28,x14
aaaad194:	00be4e33          	xor	x28,x28,x11
aaaad198:	010e1e13          	slli	x28,x28,0x10
aaaad19c:	00885793          	srli	x15,x16,0x8
aaaad1a0:	010e5e13          	srli	x28,x28,0x10
aaaad1a4:	0017d313          	srli	x6,x15,0x1
aaaad1a8:	0027de93          	srli	x29,x15,0x2
aaaad1ac:	0037d893          	srli	x17,x15,0x3
aaaad1b0:	0047d813          	srli	x16,x15,0x4
aaaad1b4:	0057d613          	srli	x12,x15,0x5
aaaad1b8:	0067d693          	srli	x13,x15,0x6
aaaad1bc:	0077d513          	srli	x10,x15,0x7
aaaad1c0:	01c7c7b3          	xor	x15,x15,x28
aaaad1c4:	0017f793          	andi	x15,x15,1
aaaad1c8:	40f007b3          	neg	x15,x15
aaaad1cc:	001e5e13          	srli	x28,x28,0x1
aaaad1d0:	00e7f7b3          	and	x15,x15,x14
aaaad1d4:	01c7c7b3          	xor	x15,x15,x28
aaaad1d8:	01079793          	slli	x15,x15,0x10
aaaad1dc:	0107d793          	srli	x15,x15,0x10
aaaad1e0:	00f34333          	xor	x6,x6,x15
aaaad1e4:	00137313          	andi	x6,x6,1
aaaad1e8:	40600333          	neg	x6,x6
aaaad1ec:	0017d793          	srli	x15,x15,0x1
aaaad1f0:	00e37333          	and	x6,x6,x14
aaaad1f4:	00f34333          	xor	x6,x6,x15
aaaad1f8:	01031313          	slli	x6,x6,0x10
aaaad1fc:	01035313          	srli	x6,x6,0x10
aaaad200:	006ec7b3          	xor	x15,x29,x6
aaaad204:	0017f793          	andi	x15,x15,1
aaaad208:	40f007b3          	neg	x15,x15
aaaad20c:	00135313          	srli	x6,x6,0x1
aaaad210:	00e7f7b3          	and	x15,x15,x14
aaaad214:	0067c7b3          	xor	x15,x15,x6
aaaad218:	01079793          	slli	x15,x15,0x10
aaaad21c:	0107d793          	srli	x15,x15,0x10
aaaad220:	00f8c8b3          	xor	x17,x17,x15
aaaad224:	0018f893          	andi	x17,x17,1
aaaad228:	411008b3          	neg	x17,x17
aaaad22c:	0017d793          	srli	x15,x15,0x1
aaaad230:	00e8f8b3          	and	x17,x17,x14
aaaad234:	00f8c8b3          	xor	x17,x17,x15
aaaad238:	01089893          	slli	x17,x17,0x10
aaaad23c:	0108d893          	srli	x17,x17,0x10
aaaad240:	011847b3          	xor	x15,x16,x17
aaaad244:	0017f793          	andi	x15,x15,1
aaaad248:	40f007b3          	neg	x15,x15
aaaad24c:	00e7f7b3          	and	x15,x15,x14
aaaad250:	0018d893          	srli	x17,x17,0x1
aaaad254:	0117c7b3          	xor	x15,x15,x17
aaaad258:	01079793          	slli	x15,x15,0x10
aaaad25c:	0107d793          	srli	x15,x15,0x10
aaaad260:	00f64633          	xor	x12,x12,x15
aaaad264:	00167613          	andi	x12,x12,1
aaaad268:	40c00633          	neg	x12,x12
aaaad26c:	0017d793          	srli	x15,x15,0x1
aaaad270:	00e67633          	and	x12,x12,x14
aaaad274:	00f64633          	xor	x12,x12,x15
aaaad278:	01061613          	slli	x12,x12,0x10
aaaad27c:	01065613          	srli	x12,x12,0x10
aaaad280:	00c6c7b3          	xor	x15,x13,x12
aaaad284:	0017f793          	andi	x15,x15,1
aaaad288:	40f007b3          	neg	x15,x15
aaaad28c:	00e7f7b3          	and	x15,x15,x14
aaaad290:	00165613          	srli	x12,x12,0x1
aaaad294:	00c7c7b3          	xor	x15,x15,x12
aaaad298:	01079793          	slli	x15,x15,0x10
aaaad29c:	01812f03          	lw	x30,24(x2)
aaaad2a0:	0107d793          	srli	x15,x15,0x10
aaaad2a4:	00f54333          	xor	x6,x10,x15
aaaad2a8:	00137313          	andi	x6,x6,1
aaaad2ac:	03cf5583          	lhu	x11,60(x30)
aaaad2b0:	000f0e13          	mv	x28,x30
aaaad2b4:	40600333          	neg	x6,x6
aaaad2b8:	038f5f03          	lhu	x30,56(x30)
aaaad2bc:	00e37333          	and	x6,x6,x14
aaaad2c0:	0017d793          	srli	x15,x15,0x1
aaaad2c4:	00f34333          	xor	x6,x6,x15
aaaad2c8:	01031313          	slli	x6,x6,0x10
aaaad2cc:	01e12423          	sw	x30,8(x2)
aaaad2d0:	01035313          	srli	x6,x6,0x10
aaaad2d4:	00059463          	bnez	x11,aaaad2dc <calc_func+0x1dac>
aaaad2d8:	026e1e23          	sh	x6,60(x28)
aaaad2dc:	01031513          	slli	x10,x6,0x10
aaaad2e0:	0b812403          	lw	x8,184(x2)
aaaad2e4:	0b412483          	lw	x9,180(x2)
aaaad2e8:	0b012903          	lw	x18,176(x2)
aaaad2ec:	0a812a03          	lw	x20,168(x2)
aaaad2f0:	0a012b03          	lw	x22,160(x2)
aaaad2f4:	09812c03          	lw	x24,152(x2)
aaaad2f8:	09412c83          	lw	x25,148(x2)
aaaad2fc:	09012d03          	lw	x26,144(x2)
aaaad300:	08c12d83          	lw	x27,140(x2)
aaaad304:	41055513          	srai	x10,x10,0x10
aaaad308:	b3cfe06f          	j	aaaab644 <calc_func+0x114>
aaaad30c:	00412783          	lw	x15,4(x2)
aaaad310:	416008b3          	neg	x17,x22
aaaad314:	002b1813          	slli	x16,x22,0x2
aaaad318:	01078833          	add	x16,x15,x16
aaaad31c:	00289e93          	slli	x29,x17,0x2
aaaad320:	00000613          	li	x12,0
aaaad324:	00389893          	slli	x17,x17,0x3
aaaad328:	00000513          	li	x10,0
aaaad32c:	00000793          	li	x15,0
aaaad330:	00000313          	li	x6,0
aaaad334:	010e8e33          	add	x28,x29,x16
aaaad338:	000e0693          	mv	x13,x28
aaaad33c:	0140006f          	j	aaaad350 <calc_func+0x1e20>
aaaad340:	01071793          	slli	x15,x14,0x10
aaaad344:	00468693          	addi	x13,x13,4
aaaad348:	4107d793          	srai	x15,x15,0x10
aaaad34c:	02d80e63          	beq	x16,x13,aaaad388 <calc_func+0x1e58>
aaaad350:	00060593          	mv	x11,x12
aaaad354:	01079713          	slli	x14,x15,0x10
aaaad358:	0006a603          	lw	x12,0(x13)
aaaad35c:	01075713          	srli	x14,x14,0x10
aaaad360:	00a70793          	addi	x15,x14,10
aaaad364:	00c5a5b3          	slt	x11,x11,x12
aaaad368:	01079793          	slli	x15,x15,0x10
aaaad36c:	00c50533          	add	x10,x10,x12
aaaad370:	4107d793          	srai	x15,x15,0x10
aaaad374:	00b70733          	add	x14,x14,x11
aaaad378:	fca954e3          	bge	x18,x10,aaaad340 <calc_func+0x1e10>
aaaad37c:	00468693          	addi	x13,x13,4
aaaad380:	00000513          	li	x10,0
aaaad384:	fcd816e3          	bne	x16,x13,aaaad350 <calc_func+0x1e20>
aaaad388:	411e0833          	sub	x16,x28,x17
aaaad38c:	00130713          	addi	x14,x6,1
aaaad390:	f26d0863          	beq	x26,x6,aaaacac0 <calc_func+0x1590>
aaaad394:	00070313          	mv	x6,x14
aaaad398:	f9dff06f          	j	aaaad334 <calc_func+0x1e04>
aaaad39c:	00412783          	lw	x15,4(x2)
aaaad3a0:	416008b3          	neg	x17,x22
aaaad3a4:	002b1813          	slli	x16,x22,0x2
aaaad3a8:	01078833          	add	x16,x15,x16
aaaad3ac:	00289e93          	slli	x29,x17,0x2
aaaad3b0:	00000613          	li	x12,0
aaaad3b4:	00389893          	slli	x17,x17,0x3
aaaad3b8:	00000513          	li	x10,0
aaaad3bc:	00000793          	li	x15,0
aaaad3c0:	00000313          	li	x6,0
aaaad3c4:	010e8e33          	add	x28,x29,x16
aaaad3c8:	000e0693          	mv	x13,x28
aaaad3cc:	0140006f          	j	aaaad3e0 <calc_func+0x1eb0>
aaaad3d0:	01071793          	slli	x15,x14,0x10
aaaad3d4:	00468693          	addi	x13,x13,4
aaaad3d8:	4107d793          	srai	x15,x15,0x10
aaaad3dc:	03068e63          	beq	x13,x16,aaaad418 <calc_func+0x1ee8>
aaaad3e0:	00060593          	mv	x11,x12
aaaad3e4:	01079713          	slli	x14,x15,0x10
aaaad3e8:	0006a603          	lw	x12,0(x13)
aaaad3ec:	01075713          	srli	x14,x14,0x10
aaaad3f0:	00a70793          	addi	x15,x14,10
aaaad3f4:	00c5a5b3          	slt	x11,x11,x12
aaaad3f8:	01079793          	slli	x15,x15,0x10
aaaad3fc:	00c50533          	add	x10,x10,x12
aaaad400:	4107d793          	srai	x15,x15,0x10
aaaad404:	00b70733          	add	x14,x14,x11
aaaad408:	fca954e3          	bge	x18,x10,aaaad3d0 <calc_func+0x1ea0>
aaaad40c:	00468693          	addi	x13,x13,4
aaaad410:	00000513          	li	x10,0
aaaad414:	fd0696e3          	bne	x13,x16,aaaad3e0 <calc_func+0x1eb0>
aaaad418:	411e0833          	sub	x16,x28,x17
aaaad41c:	00130713          	addi	x14,x6,1
aaaad420:	9a6d0ae3          	beq	x26,x6,aaaacdd4 <calc_func+0x18a4>
aaaad424:	00070313          	mv	x6,x14
aaaad428:	f9dff06f          	j	aaaad3c4 <calc_func+0x1e94>
aaaad42c:	00000793          	li	x15,0
aaaad430:	00000693          	li	x13,0
aaaad434:	00000713          	li	x14,0
aaaad438:	8d8ff06f          	j	aaaac510 <calc_func+0xfe0>
aaaad43c:	00000893          	li	x17,0
aaaad440:	00000793          	li	x15,0
aaaad444:	b90ff06f          	j	aaaac7d4 <calc_func+0x12a4>
aaaad448:	01848c33          	add	x24,x9,x24
aaaad44c:	0184f463          	bgeu	x9,x24,aaaad454 <calc_func+0x1f24>
aaaad450:	d58fe06f          	j	aaaab9a8 <calc_func+0x478>
aaaad454:	00812803          	lw	x16,8(x2)
aaaad458:	dd8fe06f          	j	aaaaba30 <calc_func+0x500>

aaaad45c <core_bench_list>:
aaaad45c:	00451883          	lh	x17,4(x10)
aaaad460:	fb010113          	addi	x2,x2,-80
aaaad464:	04812423          	sw	x8,72(x2)
aaaad468:	03412c23          	sw	x20,56(x2)
aaaad46c:	03612823          	sw	x22,48(x2)
aaaad470:	03812423          	sw	x24,40(x2)
aaaad474:	04112623          	sw	x1,76(x2)
aaaad478:	04912223          	sw	x9,68(x2)
aaaad47c:	05212023          	sw	x18,64(x2)
aaaad480:	03312e23          	sw	x19,60(x2)
aaaad484:	03512a23          	sw	x21,52(x2)
aaaad488:	03712623          	sw	x23,44(x2)
aaaad48c:	03912223          	sw	x25,36(x2)
aaaad490:	03a12023          	sw	x26,32(x2)
aaaad494:	01b12e23          	sw	x27,28(x2)
aaaad498:	02452403          	lw	x8,36(x10)
aaaad49c:	00050a13          	mv	x20,x10
aaaad4a0:	00058b13          	mv	x22,x11
aaaad4a4:	00000c13          	li	x24,0
aaaad4a8:	21105ee3          	blez	x17,aaaadec4 <core_bench_list+0xa68>
aaaad4ac:	fff00793          	li	x15,-1
aaaad4b0:	22f580e3          	beq	x11,x15,aaaaded0 <core_bench_list+0xa74>
aaaad4b4:	240404e3          	beqz	x8,aaaadefc <core_bench_list+0xaa0>
aaaad4b8:	00000593          	li	x11,0
aaaad4bc:	00000813          	li	x16,0
aaaad4c0:	00000513          	li	x10,0
aaaad4c4:	00000913          	li	x18,0
aaaad4c8:	00100d13          	li	x26,1
aaaad4cc:	00040793          	mv	x15,x8
aaaad4d0:	00c0006f          	j	aaaad4dc <core_bench_list+0x80>
aaaad4d4:	0007a783          	lw	x15,0(x15)
aaaad4d8:	10078063          	beqz	x15,aaaad5d8 <core_bench_list+0x17c>
aaaad4dc:	0047a703          	lw	x14,4(x15)
aaaad4e0:	00271603          	lh	x12,2(x14)
aaaad4e4:	ffa618e3          	bne	x12,x26,aaaad4d4 <core_bench_list+0x78>
aaaad4e8:	00000693          	li	x13,0
aaaad4ec:	0080006f          	j	aaaad4f4 <core_bench_list+0x98>
aaaad4f0:	00070413          	mv	x8,x14
aaaad4f4:	00042703          	lw	x14,0(x8)
aaaad4f8:	00d42023          	sw	x13,0(x8)
aaaad4fc:	00040693          	mv	x13,x8
aaaad500:	fe0718e3          	bnez	x14,aaaad4f0 <core_bench_list+0x94>
aaaad504:	0c078e63          	beqz	x15,aaaad5e0 <core_bench_list+0x184>
aaaad508:	0047a703          	lw	x14,4(x15)
aaaad50c:	00071703          	lh	x14,0(x14)
aaaad510:	00177693          	andi	x13,x14,1
aaaad514:	00068c63          	beqz	x13,aaaad52c <core_bench_list+0xd0>
aaaad518:	40975713          	srai	x14,x14,0x9
aaaad51c:	00177713          	andi	x14,x14,1
aaaad520:	00e90733          	add	x14,x18,x14
aaaad524:	01071913          	slli	x18,x14,0x10
aaaad528:	01095913          	srli	x18,x18,0x10
aaaad52c:	0007a703          	lw	x14,0(x15)
aaaad530:	00070c63          	beqz	x14,aaaad548 <core_bench_list+0xec>
aaaad534:	00072683          	lw	x13,0(x14)
aaaad538:	00d7a023          	sw	x13,0(x15)
aaaad53c:	00042783          	lw	x15,0(x8)
aaaad540:	00f72023          	sw	x15,0(x14)
aaaad544:	00e42023          	sw	x14,0(x8)
aaaad548:	00150513          	addi	x10,x10,1
aaaad54c:	01051513          	slli	x10,x10,0x10
aaaad550:	01055513          	srli	x10,x10,0x10
aaaad554:	00158793          	addi	x15,x11,1
aaaad558:	01079593          	slli	x11,x15,0x10
aaaad55c:	4105d593          	srai	x11,x11,0x10
aaaad560:	06064063          	bltz	x12,aaaad5c0 <core_bench_list+0x164>
aaaad564:	00160613          	addi	x12,x12,1
aaaad568:	01061d13          	slli	x26,x12,0x10
aaaad56c:	01079793          	slli	x15,x15,0x10
aaaad570:	410d5d13          	srai	x26,x26,0x10
aaaad574:	0107d793          	srli	x15,x15,0x10
aaaad578:	08b88c63          	beq	x17,x11,aaaad610 <core_bench_list+0x1b4>
aaaad57c:	0ff7fc13          	zext.b	x24,x15
aaaad580:	000c0693          	mv	x13,x24
aaaad584:	00040793          	mv	x15,x8
aaaad588:	ffff8637          	lui	x12,0xffff8
aaaad58c:	f40d50e3          	bgez	x26,aaaad4cc <core_bench_list+0x70>
aaaad590:	0047a703          	lw	x14,4(x15)
aaaad594:	00074c03          	lbu	x24,0(x14)
aaaad598:	f4dc08e3          	beq	x24,x13,aaaad4e8 <core_bench_list+0x8c>
aaaad59c:	0007a783          	lw	x15,0(x15)
aaaad5a0:	00078c63          	beqz	x15,aaaad5b8 <core_bench_list+0x15c>
aaaad5a4:	0047a703          	lw	x14,4(x15)
aaaad5a8:	00074c03          	lbu	x24,0(x14)
aaaad5ac:	f2dc0ee3          	beq	x24,x13,aaaad4e8 <core_bench_list+0x8c>
aaaad5b0:	0007a783          	lw	x15,0(x15)
aaaad5b4:	fe0798e3          	bnez	x15,aaaad5a4 <core_bench_list+0x148>
aaaad5b8:	00068c13          	mv	x24,x13
aaaad5bc:	f2dff06f          	j	aaaad4e8 <core_bench_list+0x8c>
aaaad5c0:	01079793          	slli	x15,x15,0x10
aaaad5c4:	0107d793          	srli	x15,x15,0x10
aaaad5c8:	04b88263          	beq	x17,x11,aaaad60c <core_bench_list+0x1b0>
aaaad5cc:	0ff7f693          	zext.b	x13,x15
aaaad5d0:	00040793          	mv	x15,x8
aaaad5d4:	fd1ff06f          	j	aaaad5a4 <core_bench_list+0x148>
aaaad5d8:	000d0613          	mv	x12,x26
aaaad5dc:	f0dff06f          	j	aaaad4e8 <core_bench_list+0x8c>
aaaad5e0:	00042783          	lw	x15,0(x8)
aaaad5e4:	00180813          	addi	x16,x16,1
aaaad5e8:	01081813          	slli	x16,x16,0x10
aaaad5ec:	0047a783          	lw	x15,4(x15)
aaaad5f0:	01085813          	srli	x16,x16,0x10
aaaad5f4:	00178783          	lb	x15,1(x15)
aaaad5f8:	0017f793          	andi	x15,x15,1
aaaad5fc:	00f907b3          	add	x15,x18,x15
aaaad600:	01079913          	slli	x18,x15,0x10
aaaad604:	01095913          	srli	x18,x18,0x10
aaaad608:	f4dff06f          	j	aaaad554 <core_bench_list+0xf8>
aaaad60c:	00060d13          	mv	x26,x12
aaaad610:	00251793          	slli	x15,x10,0x2
aaaad614:	410787b3          	sub	x15,x15,x16
aaaad618:	00f90933          	add	x18,x18,x15
aaaad61c:	01091793          	slli	x15,x18,0x10
aaaad620:	0107d793          	srli	x15,x15,0x10
aaaad624:	00f12623          	sw	x15,12(x2)
aaaad628:	00100793          	li	x15,1
aaaad62c:	40fb0063          	beq	x22,x15,aaaada2c <core_bench_list+0x5d0>
aaaad630:	00042783          	lw	x15,0(x8)
aaaad634:	00040693          	mv	x13,x8
aaaad638:	0007a803          	lw	x16,0(x15)
aaaad63c:	0047aa83          	lw	x21,4(x15)
aaaad640:	00482603          	lw	x12,4(x16)
aaaad644:	00082703          	lw	x14,0(x16)
aaaad648:	00c7a223          	sw	x12,4(x15)
aaaad64c:	01582223          	sw	x21,4(x16)
aaaad650:	00e7a023          	sw	x14,0(x15)
aaaad654:	00082023          	sw	x0,0(x16)
aaaad658:	480d4c63          	bltz	x26,aaaadaf0 <core_bench_list+0x694>
aaaad65c:	0046a783          	lw	x15,4(x13)
aaaad660:	00279783          	lh	x15,2(x15)
aaaad664:	01a78c63          	beq	x15,x26,aaaad67c <core_bench_list+0x220>
aaaad668:	0006a683          	lw	x13,0(x13)
aaaad66c:	00068ae3          	beqz	x13,aaaade80 <core_bench_list+0xa24>
aaaad670:	0046a783          	lw	x15,4(x13)
aaaad674:	00279783          	lh	x15,2(x15)
aaaad678:	ffa798e3          	bne	x15,x26,aaaad668 <core_bench_list+0x20c>
aaaad67c:	00042503          	lw	x10,0(x8)
aaaad680:	00442703          	lw	x14,4(x8)
aaaad684:	ffffa7b7          	lui	x15,0xffffa
aaaad688:	00178793          	addi	x15,x15,1 # ffffa001 <_stack_top+0xfffa001>
aaaad68c:	00071603          	lh	x12,0(x14)
aaaad690:	01061593          	slli	x11,x12,0x10
aaaad694:	0105d593          	srli	x11,x11,0x10
aaaad698:	0ff67613          	zext.b	x12,x12
aaaad69c:	0085d293          	srli	x5,x11,0x8
aaaad6a0:	0095df93          	srli	x31,x11,0x9
aaaad6a4:	00a5df13          	srli	x30,x11,0xa
aaaad6a8:	00b5de93          	srli	x29,x11,0xb
aaaad6ac:	00c5de13          	srli	x28,x11,0xc
aaaad6b0:	00d5d313          	srli	x6,x11,0xd
aaaad6b4:	00e5d893          	srli	x17,x11,0xe
aaaad6b8:	00165c13          	srli	x24,x12,0x1
aaaad6bc:	00265b93          	srli	x23,x12,0x2
aaaad6c0:	00365b13          	srli	x22,x12,0x3
aaaad6c4:	00465a13          	srli	x20,x12,0x4
aaaad6c8:	00565993          	srli	x19,x12,0x5
aaaad6cc:	00665493          	srli	x9,x12,0x6
aaaad6d0:	00765393          	srli	x7,x12,0x7
aaaad6d4:	00f5d593          	srli	x11,x11,0xf
aaaad6d8:	00c12903          	lw	x18,12(x2)
aaaad6dc:	0006a683          	lw	x13,0(x13)
aaaad6e0:	01264733          	xor	x14,x12,x18
aaaad6e4:	00177713          	andi	x14,x14,1
aaaad6e8:	40e00733          	neg	x14,x14
aaaad6ec:	00195913          	srli	x18,x18,0x1
aaaad6f0:	00f77733          	and	x14,x14,x15
aaaad6f4:	01274733          	xor	x14,x14,x18
aaaad6f8:	01071713          	slli	x14,x14,0x10
aaaad6fc:	01075713          	srli	x14,x14,0x10
aaaad700:	00ec4933          	xor	x18,x24,x14
aaaad704:	00197913          	andi	x18,x18,1
aaaad708:	41200933          	neg	x18,x18
aaaad70c:	00175713          	srli	x14,x14,0x1
aaaad710:	00f97933          	and	x18,x18,x15
aaaad714:	00e94933          	xor	x18,x18,x14
aaaad718:	01091913          	slli	x18,x18,0x10
aaaad71c:	01095913          	srli	x18,x18,0x10
aaaad720:	012bc733          	xor	x14,x23,x18
aaaad724:	00177713          	andi	x14,x14,1
aaaad728:	40e00733          	neg	x14,x14
aaaad72c:	00195913          	srli	x18,x18,0x1
aaaad730:	00f77733          	and	x14,x14,x15
aaaad734:	01274733          	xor	x14,x14,x18
aaaad738:	01071713          	slli	x14,x14,0x10
aaaad73c:	01075713          	srli	x14,x14,0x10
aaaad740:	00eb4933          	xor	x18,x22,x14
aaaad744:	00197913          	andi	x18,x18,1
aaaad748:	41200933          	neg	x18,x18
aaaad74c:	00175713          	srli	x14,x14,0x1
aaaad750:	00f97933          	and	x18,x18,x15
aaaad754:	00e94933          	xor	x18,x18,x14
aaaad758:	01091913          	slli	x18,x18,0x10
aaaad75c:	01095913          	srli	x18,x18,0x10
aaaad760:	012a4733          	xor	x14,x20,x18
aaaad764:	00177713          	andi	x14,x14,1
aaaad768:	40e00733          	neg	x14,x14
aaaad76c:	00195913          	srli	x18,x18,0x1
aaaad770:	00f77733          	and	x14,x14,x15
aaaad774:	01274733          	xor	x14,x14,x18
aaaad778:	01071713          	slli	x14,x14,0x10
aaaad77c:	01075713          	srli	x14,x14,0x10
aaaad780:	00e9c933          	xor	x18,x19,x14
aaaad784:	00197913          	andi	x18,x18,1
aaaad788:	41200933          	neg	x18,x18
aaaad78c:	00175713          	srli	x14,x14,0x1
aaaad790:	00f97933          	and	x18,x18,x15
aaaad794:	00e94933          	xor	x18,x18,x14
aaaad798:	01091913          	slli	x18,x18,0x10
aaaad79c:	01095913          	srli	x18,x18,0x10
aaaad7a0:	0124c733          	xor	x14,x9,x18
aaaad7a4:	00177713          	andi	x14,x14,1
aaaad7a8:	40e00733          	neg	x14,x14
aaaad7ac:	00195913          	srli	x18,x18,0x1
aaaad7b0:	00f77733          	and	x14,x14,x15
aaaad7b4:	01274733          	xor	x14,x14,x18
aaaad7b8:	01071713          	slli	x14,x14,0x10
aaaad7bc:	01075713          	srli	x14,x14,0x10
aaaad7c0:	00e3c933          	xor	x18,x7,x14
aaaad7c4:	00197913          	andi	x18,x18,1
aaaad7c8:	41200933          	neg	x18,x18
aaaad7cc:	00175713          	srli	x14,x14,0x1
aaaad7d0:	00f97933          	and	x18,x18,x15
aaaad7d4:	00e94933          	xor	x18,x18,x14
aaaad7d8:	01091913          	slli	x18,x18,0x10
aaaad7dc:	01095913          	srli	x18,x18,0x10
aaaad7e0:	0122c733          	xor	x14,x5,x18
aaaad7e4:	00177713          	andi	x14,x14,1
aaaad7e8:	40e00733          	neg	x14,x14
aaaad7ec:	00195913          	srli	x18,x18,0x1
aaaad7f0:	00f77733          	and	x14,x14,x15
aaaad7f4:	01274733          	xor	x14,x14,x18
aaaad7f8:	01071713          	slli	x14,x14,0x10
aaaad7fc:	01075713          	srli	x14,x14,0x10
aaaad800:	00efc933          	xor	x18,x31,x14
aaaad804:	00197913          	andi	x18,x18,1
aaaad808:	41200933          	neg	x18,x18
aaaad80c:	00175713          	srli	x14,x14,0x1
aaaad810:	00f97933          	and	x18,x18,x15
aaaad814:	00e94933          	xor	x18,x18,x14
aaaad818:	01091913          	slli	x18,x18,0x10
aaaad81c:	01095913          	srli	x18,x18,0x10
aaaad820:	012f4733          	xor	x14,x30,x18
aaaad824:	00177713          	andi	x14,x14,1
aaaad828:	40e00733          	neg	x14,x14
aaaad82c:	00195913          	srli	x18,x18,0x1
aaaad830:	00f77733          	and	x14,x14,x15
aaaad834:	01274733          	xor	x14,x14,x18
aaaad838:	01071713          	slli	x14,x14,0x10
aaaad83c:	01075713          	srli	x14,x14,0x10
aaaad840:	00eec933          	xor	x18,x29,x14
aaaad844:	00197913          	andi	x18,x18,1
aaaad848:	41200933          	neg	x18,x18
aaaad84c:	00175713          	srli	x14,x14,0x1
aaaad850:	00f97933          	and	x18,x18,x15
aaaad854:	00e94933          	xor	x18,x18,x14
aaaad858:	01091913          	slli	x18,x18,0x10
aaaad85c:	01095913          	srli	x18,x18,0x10
aaaad860:	012e4733          	xor	x14,x28,x18
aaaad864:	00177713          	andi	x14,x14,1
aaaad868:	40e00733          	neg	x14,x14
aaaad86c:	00195913          	srli	x18,x18,0x1
aaaad870:	00f77733          	and	x14,x14,x15
aaaad874:	01274733          	xor	x14,x14,x18
aaaad878:	01071713          	slli	x14,x14,0x10
aaaad87c:	01075713          	srli	x14,x14,0x10
aaaad880:	00e34933          	xor	x18,x6,x14
aaaad884:	00197913          	andi	x18,x18,1
aaaad888:	41200933          	neg	x18,x18
aaaad88c:	00175713          	srli	x14,x14,0x1
aaaad890:	00f97933          	and	x18,x18,x15
aaaad894:	00e94933          	xor	x18,x18,x14
aaaad898:	01091913          	slli	x18,x18,0x10
aaaad89c:	01095913          	srli	x18,x18,0x10
aaaad8a0:	0128c733          	xor	x14,x17,x18
aaaad8a4:	00177713          	andi	x14,x14,1
aaaad8a8:	40e00733          	neg	x14,x14
aaaad8ac:	00195913          	srli	x18,x18,0x1
aaaad8b0:	00f77733          	and	x14,x14,x15
aaaad8b4:	01274733          	xor	x14,x14,x18
aaaad8b8:	01071713          	slli	x14,x14,0x10
aaaad8bc:	01075713          	srli	x14,x14,0x10
aaaad8c0:	00e5c933          	xor	x18,x11,x14
aaaad8c4:	00197913          	andi	x18,x18,1
aaaad8c8:	41200933          	neg	x18,x18
aaaad8cc:	00175713          	srli	x14,x14,0x1
aaaad8d0:	00f97933          	and	x18,x18,x15
aaaad8d4:	00e94933          	xor	x18,x18,x14
aaaad8d8:	01091713          	slli	x14,x18,0x10
aaaad8dc:	01075713          	srli	x14,x14,0x10
aaaad8e0:	00e12623          	sw	x14,12(x2)
aaaad8e4:	de069ae3          	bnez	x13,aaaad6d8 <core_bench_list+0x27c>
aaaad8e8:	00452703          	lw	x14,4(x10)
aaaad8ec:	00052783          	lw	x15,0(x10)
aaaad8f0:	00100e93          	li	x29,1
aaaad8f4:	00e82223          	sw	x14,4(x16)
aaaad8f8:	01552223          	sw	x21,4(x10)
aaaad8fc:	00f82023          	sw	x15,0(x16)
aaaad900:	01052023          	sw	x16,0(x10)
aaaad904:	000e8293          	mv	x5,x29
aaaad908:	22040863          	beqz	x8,aaaadb38 <core_bench_list+0x6dc>
aaaad90c:	00000f13          	li	x30,0
aaaad910:	00000693          	li	x13,0
aaaad914:	00000f93          	li	x31,0
aaaad918:	001f8f93          	addi	x31,x31,1
aaaad91c:	00040613          	mv	x12,x8
aaaad920:	00000793          	li	x15,0
aaaad924:	01d7d863          	bge	x15,x29,aaaad934 <core_bench_list+0x4d8>
aaaad928:	00062603          	lw	x12,0(x12) # ffff8000 <_stack_top+0xfff8000>
aaaad92c:	00178793          	addi	x15,x15,1
aaaad930:	fe061ae3          	bnez	x12,aaaad924 <core_bench_list+0x4c8>
aaaad934:	00068713          	mv	x14,x13
aaaad938:	000e8593          	mv	x11,x29
aaaad93c:	00040693          	mv	x13,x8
aaaad940:	00060413          	mv	x8,x12
aaaad944:	02f05463          	blez	x15,aaaad96c <core_bench_list+0x510>
aaaad948:	1e058c63          	beqz	x11,aaaadb40 <core_bench_list+0x6e4>
aaaad94c:	02041663          	bnez	x8,aaaad978 <core_bench_list+0x51c>
aaaad950:	00068613          	mv	x12,x13
aaaad954:	fff78793          	addi	x15,x15,-1
aaaad958:	0006a683          	lw	x13,0(x13)
aaaad95c:	06070c63          	beqz	x14,aaaad9d4 <core_bench_list+0x578>
aaaad960:	00c72023          	sw	x12,0(x14)
aaaad964:	00060713          	mv	x14,x12
aaaad968:	fef040e3          	bgtz	x15,aaaad948 <core_bench_list+0x4ec>
aaaad96c:	50b05463          	blez	x11,aaaade74 <core_bench_list+0xa18>
aaaad970:	20040463          	beqz	x8,aaaadb78 <core_bench_list+0x71c>
aaaad974:	22078663          	beqz	x15,aaaadba0 <core_bench_list+0x744>
aaaad978:	0046a803          	lw	x16,4(x13)
aaaad97c:	00442503          	lw	x10,4(x8)
aaaad980:	00081603          	lh	x12,0(x16)
aaaad984:	00251303          	lh	x6,2(x10)
aaaad988:	00281e03          	lh	x28,2(x16)
aaaad98c:	01061893          	slli	x17,x12,0x10
aaaad990:	0108d893          	srli	x17,x17,0x10
aaaad994:	f0067613          	andi	x12,x12,-256
aaaad998:	0088d893          	srli	x17,x17,0x8
aaaad99c:	01166633          	or	x12,x12,x17
aaaad9a0:	00c81023          	sh	x12,0(x16)
aaaad9a4:	00051603          	lh	x12,0(x10)
aaaad9a8:	01061813          	slli	x16,x12,0x10
aaaad9ac:	01085813          	srli	x16,x16,0x10
aaaad9b0:	f0067613          	andi	x12,x12,-256
aaaad9b4:	00885813          	srli	x16,x16,0x8
aaaad9b8:	01066633          	or	x12,x12,x16
aaaad9bc:	00c51023          	sh	x12,0(x10)
aaaad9c0:	f9c358e3          	bge	x6,x28,aaaad950 <core_bench_list+0x4f4>
aaaad9c4:	00040613          	mv	x12,x8
aaaad9c8:	fff58593          	addi	x11,x11,-1
aaaad9cc:	00042403          	lw	x8,0(x8)
aaaad9d0:	f80718e3          	bnez	x14,aaaad960 <core_bench_list+0x504>
aaaad9d4:	00060f13          	mv	x30,x12
aaaad9d8:	00060713          	mv	x14,x12
aaaad9dc:	f8dff06f          	j	aaaad968 <core_bench_list+0x50c>
aaaad9e0:	000da703          	lw	x14,0(x27)
aaaad9e4:	fff48493          	addi	x9,x9,-1
aaaad9e8:	02098063          	beqz	x19,aaaada08 <core_bench_list+0x5ac>
aaaad9ec:	01b9a023          	sw	x27,0(x19)
aaaad9f0:	02048063          	beqz	x9,aaaada10 <core_bench_list+0x5b4>
aaaad9f4:	000d8993          	mv	x19,x27
aaaad9f8:	00070d93          	mv	x27,x14
aaaad9fc:	000da703          	lw	x14,0(x27)
aaaada00:	fff48493          	addi	x9,x9,-1
aaaada04:	fe0994e3          	bnez	x19,aaaad9ec <core_bench_list+0x590>
aaaada08:	000d8b93          	mv	x23,x27
aaaada0c:	fe0494e3          	bnez	x9,aaaad9f4 <core_bench_list+0x598>
aaaada10:	02041663          	bnez	x8,aaaada3c <core_bench_list+0x5e0>
aaaada14:	000d8993          	mv	x19,x27
aaaada18:	0009a023          	sw	x0,0(x19)
aaaada1c:	00100793          	li	x15,1
aaaada20:	48fc8e63          	beq	x25,x15,aaaadebc <core_bench_list+0xa60>
aaaada24:	001b1b13          	slli	x22,x22,0x1
aaaada28:	000b8413          	mv	x8,x23
aaaada2c:	10040663          	beqz	x8,aaaadb38 <core_bench_list+0x6dc>
aaaada30:	00000b93          	li	x23,0
aaaada34:	00000d93          	li	x27,0
aaaada38:	00000c93          	li	x25,0
aaaada3c:	001c8c93          	addi	x25,x25,1
aaaada40:	00040693          	mv	x13,x8
aaaada44:	00000493          	li	x9,0
aaaada48:	0164d863          	bge	x9,x22,aaaada58 <core_bench_list+0x5fc>
aaaada4c:	0006a683          	lw	x13,0(x13)
aaaada50:	00148493          	addi	x9,x9,1
aaaada54:	fe069ae3          	bnez	x13,aaaada48 <core_bench_list+0x5ec>
aaaada58:	000d8993          	mv	x19,x27
aaaada5c:	000b0913          	mv	x18,x22
aaaada60:	00040d93          	mv	x27,x8
aaaada64:	00068413          	mv	x8,x13
aaaada68:	02905463          	blez	x9,aaaada90 <core_bench_list+0x634>
aaaada6c:	f6090ae3          	beqz	x18,aaaad9e0 <core_bench_list+0x584>
aaaada70:	02041663          	bnez	x8,aaaada9c <core_bench_list+0x640>
aaaada74:	000d8693          	mv	x13,x27
aaaada78:	fff48493          	addi	x9,x9,-1
aaaada7c:	000dad83          	lw	x27,0(x27)
aaaada80:	04098e63          	beqz	x19,aaaadadc <core_bench_list+0x680>
aaaada84:	00d9a023          	sw	x13,0(x19)
aaaada88:	00068993          	mv	x19,x13
aaaada8c:	fe9040e3          	bgtz	x9,aaaada6c <core_bench_list+0x610>
aaaada90:	43205063          	blez	x18,aaaadeb0 <core_bench_list+0xa54>
aaaada94:	f80402e3          	beqz	x8,aaaada18 <core_bench_list+0x5bc>
aaaada98:	06048e63          	beqz	x9,aaaadb14 <core_bench_list+0x6b8>
aaaada9c:	004da503          	lw	x10,4(x27)
aaaadaa0:	00442a83          	lw	x21,4(x8)
aaaadaa4:	000a0593          	mv	x11,x20
aaaadaa8:	ffffe097          	auipc	x1,0xffffe
aaaadaac:	a88080e7          	jalr	-1400(x1) # aaaab530 <calc_func>
aaaadab0:	00050693          	mv	x13,x10
aaaadab4:	000a0593          	mv	x11,x20
aaaadab8:	000a8513          	mv	x10,x21
aaaadabc:	00068a93          	mv	x21,x13
aaaadac0:	ffffe097          	auipc	x1,0xffffe
aaaadac4:	a70080e7          	jalr	-1424(x1) # aaaab530 <calc_func>
aaaadac8:	fb5556e3          	bge	x10,x21,aaaada74 <core_bench_list+0x618>
aaaadacc:	00040693          	mv	x13,x8
aaaadad0:	fff90913          	addi	x18,x18,-1 # ffffefff <_stack_top+0xfffefff>
aaaadad4:	00042403          	lw	x8,0(x8)
aaaadad8:	fa0996e3          	bnez	x19,aaaada84 <core_bench_list+0x628>
aaaadadc:	00068b93          	mv	x23,x13
aaaadae0:	00068993          	mv	x19,x13
aaaadae4:	fa9ff06f          	j	aaaada8c <core_bench_list+0x630>
aaaadae8:	0006a683          	lw	x13,0(x13)
aaaadaec:	38068a63          	beqz	x13,aaaade80 <core_bench_list+0xa24>
aaaadaf0:	0046a783          	lw	x15,4(x13)
aaaadaf4:	0007c783          	lbu	x15,0(x15)
aaaadaf8:	fefc18e3          	bne	x24,x15,aaaadae8 <core_bench_list+0x68c>
aaaadafc:	b81ff06f          	j	aaaad67c <core_bench_list+0x220>
aaaadb00:	00040b93          	mv	x23,x8
aaaadb04:	02090263          	beqz	x18,aaaadb28 <core_bench_list+0x6cc>
aaaadb08:	00040993          	mv	x19,x8
aaaadb0c:	f00686e3          	beqz	x13,aaaada18 <core_bench_list+0x5bc>
aaaadb10:	00068413          	mv	x8,x13
aaaadb14:	00042683          	lw	x13,0(x8)
aaaadb18:	fff90913          	addi	x18,x18,-1
aaaadb1c:	fe0982e3          	beqz	x19,aaaadb00 <core_bench_list+0x6a4>
aaaadb20:	0089a023          	sw	x8,0(x19)
aaaadb24:	fe0912e3          	bnez	x18,aaaadb08 <core_bench_list+0x6ac>
aaaadb28:	00040d93          	mv	x27,x8
aaaadb2c:	00068413          	mv	x8,x13
aaaadb30:	f00416e3          	bnez	x8,aaaada3c <core_bench_list+0x5e0>
aaaadb34:	ee1ff06f          	j	aaaada14 <core_bench_list+0x5b8>
aaaadb38:	00002023          	sw	x0,0(x0) # 0 <_start-0xaaaaa000>
aaaadb3c:	00100073          	ebreak
aaaadb40:	0006a603          	lw	x12,0(x13)
aaaadb44:	fff78793          	addi	x15,x15,-1
aaaadb48:	02070063          	beqz	x14,aaaadb68 <core_bench_list+0x70c>
aaaadb4c:	00d72023          	sw	x13,0(x14)
aaaadb50:	02078063          	beqz	x15,aaaadb70 <core_bench_list+0x714>
aaaadb54:	00068713          	mv	x14,x13
aaaadb58:	00060693          	mv	x13,x12
aaaadb5c:	0006a603          	lw	x12,0(x13)
aaaadb60:	fff78793          	addi	x15,x15,-1
aaaadb64:	fe0714e3          	bnez	x14,aaaadb4c <core_bench_list+0x6f0>
aaaadb68:	00068f13          	mv	x30,x13
aaaadb6c:	fe0794e3          	bnez	x15,aaaadb54 <core_bench_list+0x6f8>
aaaadb70:	da0414e3          	bnez	x8,aaaad918 <core_bench_list+0x4bc>
aaaadb74:	00068713          	mv	x14,x13
aaaadb78:	00072023          	sw	x0,0(x14)
aaaadb7c:	045f8463          	beq	x31,x5,aaaadbc4 <core_bench_list+0x768>
aaaadb80:	001e9e93          	slli	x29,x29,0x1
aaaadb84:	000f0413          	mv	x8,x30
aaaadb88:	d81ff06f          	j	aaaad908 <core_bench_list+0x4ac>
aaaadb8c:	00040f13          	mv	x30,x8
aaaadb90:	02058263          	beqz	x11,aaaadbb4 <core_bench_list+0x758>
aaaadb94:	00040713          	mv	x14,x8
aaaadb98:	fe0780e3          	beqz	x15,aaaadb78 <core_bench_list+0x71c>
aaaadb9c:	00078413          	mv	x8,x15
aaaadba0:	00042783          	lw	x15,0(x8)
aaaadba4:	fff58593          	addi	x11,x11,-1
aaaadba8:	fe0702e3          	beqz	x14,aaaadb8c <core_bench_list+0x730>
aaaadbac:	00872023          	sw	x8,0(x14)
aaaadbb0:	fe0592e3          	bnez	x11,aaaadb94 <core_bench_list+0x738>
aaaadbb4:	00040693          	mv	x13,x8
aaaadbb8:	00078413          	mv	x8,x15
aaaadbbc:	d4041ee3          	bnez	x8,aaaad918 <core_bench_list+0x4bc>
aaaadbc0:	fb5ff06f          	j	aaaadb74 <core_bench_list+0x718>
aaaadbc4:	000f2503          	lw	x10,0(x30)
aaaadbc8:	32050663          	beqz	x10,aaaadef4 <core_bench_list+0xa98>
aaaadbcc:	004f2703          	lw	x14,4(x30)
aaaadbd0:	ffffa7b7          	lui	x15,0xffffa
aaaadbd4:	00178793          	addi	x15,x15,1 # ffffa001 <_stack_top+0xfffa001>
aaaadbd8:	00071603          	lh	x12,0(x14)
aaaadbdc:	01061593          	slli	x11,x12,0x10
aaaadbe0:	0105d593          	srli	x11,x11,0x10
aaaadbe4:	0ff67613          	zext.b	x12,x12
aaaadbe8:	0085df93          	srli	x31,x11,0x8
aaaadbec:	0095df13          	srli	x30,x11,0x9
aaaadbf0:	00a5de93          	srli	x29,x11,0xa
aaaadbf4:	00b5de13          	srli	x28,x11,0xb
aaaadbf8:	00c5d313          	srli	x6,x11,0xc
aaaadbfc:	00d5d893          	srli	x17,x11,0xd
aaaadc00:	00e5d813          	srli	x16,x11,0xe
aaaadc04:	00165a93          	srli	x21,x12,0x1
aaaadc08:	00265a13          	srli	x20,x12,0x2
aaaadc0c:	00365993          	srli	x19,x12,0x3
aaaadc10:	00465493          	srli	x9,x12,0x4
aaaadc14:	00565413          	srli	x8,x12,0x5
aaaadc18:	00665393          	srli	x7,x12,0x6
aaaadc1c:	00765293          	srli	x5,x12,0x7
aaaadc20:	00f5d593          	srli	x11,x11,0xf
aaaadc24:	00c12683          	lw	x13,12(x2)
aaaadc28:	00052503          	lw	x10,0(x10)
aaaadc2c:	00d64733          	xor	x14,x12,x13
aaaadc30:	00177713          	andi	x14,x14,1
aaaadc34:	40e00733          	neg	x14,x14
aaaadc38:	0016d913          	srli	x18,x13,0x1
aaaadc3c:	00f77733          	and	x14,x14,x15
aaaadc40:	01274733          	xor	x14,x14,x18
aaaadc44:	01071713          	slli	x14,x14,0x10
aaaadc48:	01075713          	srli	x14,x14,0x10
aaaadc4c:	00eac6b3          	xor	x13,x21,x14
aaaadc50:	0016f693          	andi	x13,x13,1
aaaadc54:	40d006b3          	neg	x13,x13
aaaadc58:	00175713          	srli	x14,x14,0x1
aaaadc5c:	00f6f6b3          	and	x13,x13,x15
aaaadc60:	00e6c6b3          	xor	x13,x13,x14
aaaadc64:	01069693          	slli	x13,x13,0x10
aaaadc68:	0106d693          	srli	x13,x13,0x10
aaaadc6c:	00da4733          	xor	x14,x20,x13
aaaadc70:	00177713          	andi	x14,x14,1
aaaadc74:	40e00733          	neg	x14,x14
aaaadc78:	0016d693          	srli	x13,x13,0x1
aaaadc7c:	00f77733          	and	x14,x14,x15
aaaadc80:	00d74733          	xor	x14,x14,x13
aaaadc84:	01071713          	slli	x14,x14,0x10
aaaadc88:	01075713          	srli	x14,x14,0x10
aaaadc8c:	00e9c6b3          	xor	x13,x19,x14
aaaadc90:	0016f693          	andi	x13,x13,1
aaaadc94:	40d006b3          	neg	x13,x13
aaaadc98:	00175713          	srli	x14,x14,0x1
aaaadc9c:	00f6f6b3          	and	x13,x13,x15
aaaadca0:	00e6c6b3          	xor	x13,x13,x14
aaaadca4:	01069693          	slli	x13,x13,0x10
aaaadca8:	0106d693          	srli	x13,x13,0x10
aaaadcac:	00d4c733          	xor	x14,x9,x13
aaaadcb0:	00177713          	andi	x14,x14,1
aaaadcb4:	40e00733          	neg	x14,x14
aaaadcb8:	0016d693          	srli	x13,x13,0x1
aaaadcbc:	00f77733          	and	x14,x14,x15
aaaadcc0:	00d74733          	xor	x14,x14,x13
aaaadcc4:	01071713          	slli	x14,x14,0x10
aaaadcc8:	01075713          	srli	x14,x14,0x10
aaaadccc:	00e446b3          	xor	x13,x8,x14
aaaadcd0:	0016f693          	andi	x13,x13,1
aaaadcd4:	40d006b3          	neg	x13,x13
aaaadcd8:	00175713          	srli	x14,x14,0x1
aaaadcdc:	00f6f6b3          	and	x13,x13,x15
aaaadce0:	00e6c6b3          	xor	x13,x13,x14
aaaadce4:	01069693          	slli	x13,x13,0x10
aaaadce8:	0106d693          	srli	x13,x13,0x10
aaaadcec:	00d3c733          	xor	x14,x7,x13
aaaadcf0:	00177713          	andi	x14,x14,1
aaaadcf4:	40e00733          	neg	x14,x14
aaaadcf8:	0016d693          	srli	x13,x13,0x1
aaaadcfc:	00f77733          	and	x14,x14,x15
aaaadd00:	00d74733          	xor	x14,x14,x13
aaaadd04:	01071713          	slli	x14,x14,0x10
aaaadd08:	01075713          	srli	x14,x14,0x10
aaaadd0c:	00e2c6b3          	xor	x13,x5,x14
aaaadd10:	0016f693          	andi	x13,x13,1
aaaadd14:	40d006b3          	neg	x13,x13
aaaadd18:	00175713          	srli	x14,x14,0x1
aaaadd1c:	00f6f6b3          	and	x13,x13,x15
aaaadd20:	00e6c6b3          	xor	x13,x13,x14
aaaadd24:	01069693          	slli	x13,x13,0x10
aaaadd28:	0106d693          	srli	x13,x13,0x10
aaaadd2c:	00dfc733          	xor	x14,x31,x13
aaaadd30:	00177713          	andi	x14,x14,1
aaaadd34:	40e00733          	neg	x14,x14
aaaadd38:	0016d693          	srli	x13,x13,0x1
aaaadd3c:	00f77733          	and	x14,x14,x15
aaaadd40:	00d74733          	xor	x14,x14,x13
aaaadd44:	01071713          	slli	x14,x14,0x10
aaaadd48:	01075713          	srli	x14,x14,0x10
aaaadd4c:	00ef46b3          	xor	x13,x30,x14
aaaadd50:	0016f693          	andi	x13,x13,1
aaaadd54:	40d006b3          	neg	x13,x13
aaaadd58:	00175713          	srli	x14,x14,0x1
aaaadd5c:	00f6f6b3          	and	x13,x13,x15
aaaadd60:	00e6c6b3          	xor	x13,x13,x14
aaaadd64:	01069693          	slli	x13,x13,0x10
aaaadd68:	0106d693          	srli	x13,x13,0x10
aaaadd6c:	00dec733          	xor	x14,x29,x13
aaaadd70:	00177713          	andi	x14,x14,1
aaaadd74:	40e00733          	neg	x14,x14
aaaadd78:	0016d693          	srli	x13,x13,0x1
aaaadd7c:	00f77733          	and	x14,x14,x15
aaaadd80:	00d74733          	xor	x14,x14,x13
aaaadd84:	01071713          	slli	x14,x14,0x10
aaaadd88:	01075713          	srli	x14,x14,0x10
aaaadd8c:	00ee46b3          	xor	x13,x28,x14
aaaadd90:	0016f693          	andi	x13,x13,1
aaaadd94:	40d006b3          	neg	x13,x13
aaaadd98:	00175713          	srli	x14,x14,0x1
aaaadd9c:	00f6f6b3          	and	x13,x13,x15
aaaadda0:	00e6c6b3          	xor	x13,x13,x14
aaaadda4:	01069693          	slli	x13,x13,0x10
aaaadda8:	0106d693          	srli	x13,x13,0x10
aaaaddac:	00d34733          	xor	x14,x6,x13
aaaaddb0:	00177713          	andi	x14,x14,1
aaaaddb4:	40e00733          	neg	x14,x14
aaaaddb8:	0016d693          	srli	x13,x13,0x1
aaaaddbc:	00f77733          	and	x14,x14,x15
aaaaddc0:	00d74733          	xor	x14,x14,x13
aaaaddc4:	01071713          	slli	x14,x14,0x10
aaaaddc8:	01075713          	srli	x14,x14,0x10
aaaaddcc:	00e8c6b3          	xor	x13,x17,x14
aaaaddd0:	0016f693          	andi	x13,x13,1
aaaaddd4:	40d006b3          	neg	x13,x13
aaaaddd8:	00175713          	srli	x14,x14,0x1
aaaadddc:	00f6f6b3          	and	x13,x13,x15
aaaadde0:	00e6c6b3          	xor	x13,x13,x14
aaaadde4:	01069693          	slli	x13,x13,0x10
aaaadde8:	0106d693          	srli	x13,x13,0x10
aaaaddec:	00d84733          	xor	x14,x16,x13
aaaaddf0:	00177713          	andi	x14,x14,1
aaaaddf4:	40e00733          	neg	x14,x14
aaaaddf8:	00f77733          	and	x14,x14,x15
aaaaddfc:	0016d693          	srli	x13,x13,0x1
aaaade00:	00d74733          	xor	x14,x14,x13
aaaade04:	01071713          	slli	x14,x14,0x10
aaaade08:	01075713          	srli	x14,x14,0x10
aaaade0c:	00e5c933          	xor	x18,x11,x14
aaaade10:	00197913          	andi	x18,x18,1
aaaade14:	41200933          	neg	x18,x18
aaaade18:	00175713          	srli	x14,x14,0x1
aaaade1c:	00f97933          	and	x18,x18,x15
aaaade20:	00e94933          	xor	x18,x18,x14
aaaade24:	01091713          	slli	x14,x18,0x10
aaaade28:	01075713          	srli	x14,x14,0x10
aaaade2c:	00e12623          	sw	x14,12(x2)
aaaade30:	de051ae3          	bnez	x10,aaaadc24 <core_bench_list+0x7c8>
aaaade34:	00070513          	mv	x10,x14
aaaade38:	04c12083          	lw	x1,76(x2)
aaaade3c:	04812403          	lw	x8,72(x2)
aaaade40:	04412483          	lw	x9,68(x2)
aaaade44:	04012903          	lw	x18,64(x2)
aaaade48:	03c12983          	lw	x19,60(x2)
aaaade4c:	03812a03          	lw	x20,56(x2)
aaaade50:	03412a83          	lw	x21,52(x2)
aaaade54:	03012b03          	lw	x22,48(x2)
aaaade58:	02c12b83          	lw	x23,44(x2)
aaaade5c:	02812c03          	lw	x24,40(x2)
aaaade60:	02412c83          	lw	x25,36(x2)
aaaade64:	02012d03          	lw	x26,32(x2)
aaaade68:	01c12d83          	lw	x27,28(x2)
aaaade6c:	05010113          	addi	x2,x2,80
aaaade70:	00008067          	ret
aaaade74:	00070693          	mv	x13,x14
aaaade78:	aa0410e3          	bnez	x8,aaaad918 <core_bench_list+0x4bc>
aaaade7c:	cf9ff06f          	j	aaaadb74 <core_bench_list+0x718>
aaaade80:	00042503          	lw	x10,0(x8)
aaaade84:	00050693          	mv	x13,x10
aaaade88:	fe051c63          	bnez	x10,aaaad680 <core_bench_list+0x224>
aaaade8c:	00452703          	lw	x14,4(x10)
aaaade90:	00052783          	lw	x15,0(x10)
aaaade94:	00100e93          	li	x29,1
aaaade98:	00e82223          	sw	x14,4(x16)
aaaade9c:	01552223          	sw	x21,4(x10)
aaaadea0:	00f82023          	sw	x15,0(x16)
aaaadea4:	01052023          	sw	x16,0(x10)
aaaadea8:	000e8293          	mv	x5,x29
aaaadeac:	a5dff06f          	j	aaaad908 <core_bench_list+0x4ac>
aaaadeb0:	00098d93          	mv	x27,x19
aaaadeb4:	b80414e3          	bnez	x8,aaaada3c <core_bench_list+0x5e0>
aaaadeb8:	b5dff06f          	j	aaaada14 <core_bench_list+0x5b8>
aaaadebc:	000b8413          	mv	x8,x23
aaaadec0:	f70ff06f          	j	aaaad630 <core_bench_list+0x1d4>
aaaadec4:	00058d13          	mv	x26,x11
aaaadec8:	00012623          	sw	x0,12(x2)
aaaadecc:	f5cff06f          	j	aaaad628 <core_bench_list+0x1cc>
aaaaded0:	02040663          	beqz	x8,aaaadefc <core_bench_list+0xaa0>
aaaaded4:	00058613          	mv	x12,x11
aaaaded8:	00040793          	mv	x15,x8
aaaadedc:	00000593          	li	x11,0
aaaadee0:	00000693          	li	x13,0
aaaadee4:	00000813          	li	x16,0
aaaadee8:	00000913          	li	x18,0
aaaadeec:	00000513          	li	x10,0
aaaadef0:	eb4ff06f          	j	aaaad5a4 <core_bench_list+0x148>
aaaadef4:	00c12503          	lw	x10,12(x2)
aaaadef8:	f41ff06f          	j	aaaade38 <core_bench_list+0x9dc>
aaaadefc:	00002783          	lw	x15,0(x0) # 0 <_start-0xaaaaa000>
aaaadf00:	00100073          	ebreak

aaaadf04 <__mulsi3>:
aaaadf04:	00050613          	mv	x12,x10
aaaadf08:	00000513          	li	x10,0
aaaadf0c:	0015f693          	andi	x13,x11,1
aaaadf10:	00068463          	beqz	x13,aaaadf18 <__mulsi3+0x14>
aaaadf14:	00c50533          	add	x10,x10,x12
aaaadf18:	0015d593          	srli	x11,x11,0x1
aaaadf1c:	00161613          	slli	x12,x12,0x1
aaaadf20:	fe0596e3          	bnez	x11,aaaadf0c <__mulsi3+0x8>
aaaadf24:	00008067          	ret

aaaadf28 <__divsi3>:
aaaadf28:	06054063          	bltz	x10,aaaadf88 <__umodsi3+0x10>
aaaadf2c:	0605c663          	bltz	x11,aaaadf98 <__umodsi3+0x20>

aaaadf30 <__hidden___udivsi3>:
aaaadf30:	00058613          	mv	x12,x11
aaaadf34:	00050593          	mv	x11,x10
aaaadf38:	fff00513          	li	x10,-1
aaaadf3c:	02060c63          	beqz	x12,aaaadf74 <__hidden___udivsi3+0x44>
aaaadf40:	00100693          	li	x13,1
aaaadf44:	00b67a63          	bgeu	x12,x11,aaaadf58 <__hidden___udivsi3+0x28>
aaaadf48:	00c05863          	blez	x12,aaaadf58 <__hidden___udivsi3+0x28>
aaaadf4c:	00161613          	slli	x12,x12,0x1
aaaadf50:	00169693          	slli	x13,x13,0x1
aaaadf54:	feb66ae3          	bltu	x12,x11,aaaadf48 <__hidden___udivsi3+0x18>
aaaadf58:	00000513          	li	x10,0
aaaadf5c:	00c5e663          	bltu	x11,x12,aaaadf68 <__hidden___udivsi3+0x38>
aaaadf60:	40c585b3          	sub	x11,x11,x12
aaaadf64:	00d56533          	or	x10,x10,x13
aaaadf68:	0016d693          	srli	x13,x13,0x1
aaaadf6c:	00165613          	srli	x12,x12,0x1
aaaadf70:	fe0696e3          	bnez	x13,aaaadf5c <__hidden___udivsi3+0x2c>
aaaadf74:	00008067          	ret

aaaadf78 <__umodsi3>:
aaaadf78:	00008293          	mv	x5,x1
aaaadf7c:	fb5ff0ef          	jal	aaaadf30 <__hidden___udivsi3>
aaaadf80:	00058513          	mv	x10,x11
aaaadf84:	00028067          	jr	x5
aaaadf88:	40a00533          	neg	x10,x10
aaaadf8c:	00b04863          	bgtz	x11,aaaadf9c <__umodsi3+0x24>
aaaadf90:	40b005b3          	neg	x11,x11
aaaadf94:	f9dff06f          	j	aaaadf30 <__hidden___udivsi3>
aaaadf98:	40b005b3          	neg	x11,x11
aaaadf9c:	00008293          	mv	x5,x1
aaaadfa0:	f91ff0ef          	jal	aaaadf30 <__hidden___udivsi3>
aaaadfa4:	40a00533          	neg	x10,x10
aaaadfa8:	00028067          	jr	x5

aaaadfac <__modsi3>:
aaaadfac:	00008293          	mv	x5,x1
aaaadfb0:	0005ca63          	bltz	x11,aaaadfc4 <__modsi3+0x18>
aaaadfb4:	00054c63          	bltz	x10,aaaadfcc <__modsi3+0x20>
aaaadfb8:	f79ff0ef          	jal	aaaadf30 <__hidden___udivsi3>
aaaadfbc:	00058513          	mv	x10,x11
aaaadfc0:	00028067          	jr	x5
aaaadfc4:	40b005b3          	neg	x11,x11
aaaadfc8:	fe0558e3          	bgez	x10,aaaadfb8 <__modsi3+0xc>
aaaadfcc:	40a00533          	neg	x10,x10
aaaadfd0:	f61ff0ef          	jal	aaaadf30 <__hidden___udivsi3>
aaaadfd4:	40b00533          	neg	x10,x11
aaaadfd8:	00028067          	jr	x5

aaaadfdc <main>:
aaaadfdc:	f4010113          	addi	x2,x2,-192
aaaadfe0:	00003697          	auipc	x13,0x3
aaaadfe4:	7f86a683          	lw	x13,2040(x13) # aaab17d8 <seed1_volatile>
aaaadfe8:	0a912a23          	sw	x9,180(x2)
aaaadfec:	00003717          	auipc	x14,0x3
aaaadff0:	7e872703          	lw	x14,2024(x14) # aaab17d4 <seed2_volatile>
aaaadff4:	00002497          	auipc	x9,0x2
aaaadff8:	1004a483          	lw	x9,256(x9) # aaab00f4 <seed3_volatile>
aaaadffc:	00002797          	auipc	x15,0x2
aaaae000:	0f47a783          	lw	x15,244(x15) # aaab00f0 <seed4_volatile>
aaaae004:	0a812c23          	sw	x8,184(x2)
aaaae008:	00003417          	auipc	x8,0x3
aaaae00c:	7c842403          	lw	x8,1992(x8) # aaab17d0 <seed5_volatile>
aaaae010:	02f12023          	sw	x15,32(x2)
aaaae014:	00100793          	li	x15,1
aaaae018:	02d11e23          	sh	x13,60(x2)
aaaae01c:	02e11f23          	sh	x14,62(x2)
aaaae020:	01049493          	slli	x9,x9,0x10
aaaae024:	0a112e23          	sw	x1,188(x2)
aaaae028:	0b212823          	sw	x18,176(x2)
aaaae02c:	0b312623          	sw	x19,172(x2)
aaaae030:	0b412423          	sw	x20,168(x2)
aaaae034:	0b512223          	sw	x21,164(x2)
aaaae038:	0b612023          	sw	x22,160(x2)
aaaae03c:	09712e23          	sw	x23,156(x2)
aaaae040:	09812c23          	sw	x24,152(x2)
aaaae044:	09912a23          	sw	x25,148(x2)
aaaae048:	09a12823          	sw	x26,144(x2)
aaaae04c:	09b12623          	sw	x27,140(x2)
aaaae050:	06f10f23          	sb	x15,126(x2)
aaaae054:	03c12703          	lw	x14,60(x2)
aaaae058:	4104d493          	srai	x9,x9,0x10
aaaae05c:	06041663          	bnez	x8,aaaae0c8 <main+0xec>
aaaae060:	2e071ce3          	bnez	x14,aaaaeb58 <main+0xb7c>
aaaae064:	00049463          	bnez	x9,aaaae06c <main+0x90>
aaaae068:	5ad0106f          	j	aaaafe14 <main+0x1e38>
aaaae06c:	00200993          	li	x19,2
aaaae070:	00098a93          	mv	x21,x19
aaaae074:	29a00d93          	li	x27,666
aaaae078:	00700413          	li	x8,7
aaaae07c:	00100a13          	li	x20,1
aaaae080:	00003917          	auipc	x18,0x3
aaaae084:	f8090913          	addi	x18,x18,-128 # aaab1000 <static_memblk>
aaaae088:	01212e23          	sw	x18,28(x2)
aaaae08c:	05212423          	sw	x18,72(x2)
aaaae090:	000a8463          	beqz	x21,aaaae098 <main+0xbc>
aaaae094:	5310106f          	j	aaaafdc4 <main+0x1de8>
aaaae098:	00098513          	mv	x10,x19
aaaae09c:	000d8593          	mv	x11,x27
aaaae0a0:	00000097          	auipc	x1,0x0
aaaae0a4:	e64080e7          	jalr	-412(x1) # aaaadf04 <__mulsi3>
aaaae0a8:	03c11783          	lh	x15,60(x2)
aaaae0ac:	00a90a33          	add	x20,x18,x10
aaaae0b0:	05412823          	sw	x20,80(x2)
aaaae0b4:	00f12823          	sw	x15,16(x2)
aaaae0b8:	00400793          	li	x15,4
aaaae0bc:	fffd8c93          	addi	x25,x27,-1
aaaae0c0:	00f12c23          	sw	x15,24(x2)
aaaae0c4:	53c0106f          	j	aaaaf600 <main+0x1624>
aaaae0c8:	26071ee3          	bnez	x14,aaaaeb44 <main+0xb68>
aaaae0cc:	00049463          	bnez	x9,aaaae0d4 <main+0xf8>
aaaae0d0:	4fc0106f          	j	aaaaf5cc <main+0x15f0>
aaaae0d4:	00447793          	andi	x15,x8,4
aaaae0d8:	00147b13          	andi	x22,x8,1
aaaae0dc:	00247a93          	andi	x21,x8,2
aaaae0e0:	00f12c23          	sw	x15,24(x2)
aaaae0e4:	000b0a13          	mv	x20,x22
aaaae0e8:	000a8463          	beqz	x21,aaaae0f0 <main+0x114>
aaaae0ec:	2910106f          	j	aaaafb7c <main+0x1ba0>
aaaae0f0:	00078463          	beqz	x15,aaaae0f8 <main+0x11c>
aaaae0f4:	48d0106f          	j	aaaafd80 <main+0x1da4>
aaaae0f8:	000b0463          	beqz	x22,aaaae100 <main+0x124>
aaaae0fc:	4e00106f          	j	aaaaf5dc <main+0x1600>
aaaae100:	00003797          	auipc	x15,0x3
aaaae104:	f0078793          	addi	x15,x15,-256 # aaab1000 <static_memblk>
aaaae108:	7d000d93          	li	x27,2000
aaaae10c:	00f12e23          	sw	x15,28(x2)
aaaae110:	02012783          	lw	x15,32(x2)
aaaae114:	24079ae3          	bnez	x15,aaaaeb68 <main+0xb8c>
aaaae118:	ffffa937          	lui	x18,0xffffa
aaaae11c:	00190913          	addi	x18,x18,1 # ffffa001 <_stack_top+0xfffa001>
aaaae120:	00000893          	li	x17,0
aaaae124:	00100313          	li	x6,1
aaaae128:	00003617          	auipc	x12,0x3
aaaae12c:	ed860613          	addi	x12,x12,-296 # aaab1000 <static_memblk>
aaaae130:	03c10993          	addi	x19,x2,60
aaaae134:	00231a13          	slli	x20,x6,0x2
aaaae138:	006a0a33          	add	x20,x20,x6
aaaae13c:	001a1a13          	slli	x20,x20,0x1
aaaae140:	00102013          	slti	x0,x0,1
aaaae144:	00302013          	slti	x0,x0,3
aaaae148:	00000313          	li	x6,0
aaaae14c:	1e0a06e3          	beqz	x20,aaaaeb38 <main+0xb5c>
aaaae150:	00100593          	li	x11,1
aaaae154:	00098513          	mv	x10,x19
aaaae158:	04911023          	sh	x9,64(x2)
aaaae15c:	04c12223          	sw	x12,68(x2)
aaaae160:	05b12a23          	sw	x27,84(x2)
aaaae164:	04812e23          	sw	x8,92(x2)
aaaae168:	07111e23          	sh	x17,124(x2)
aaaae16c:	05412c23          	sw	x20,88(x2)
aaaae170:	06012a23          	sw	x0,116(x2)
aaaae174:	06012c23          	sw	x0,120(x2)
aaaae178:	fffff097          	auipc	x1,0xfffff
aaaae17c:	2e4080e7          	jalr	740(x1) # aaaad45c <core_bench_list>
aaaae180:	07415703          	lhu	x14,116(x2)
aaaae184:	0ff57593          	zext.b	x11,x10
aaaae188:	0025d893          	srli	x17,x11,0x2
aaaae18c:	00e5c7b3          	xor	x15,x11,x14
aaaae190:	0017f793          	andi	x15,x15,1
aaaae194:	40f007b3          	neg	x15,x15
aaaae198:	00175713          	srli	x14,x14,0x1
aaaae19c:	0127f7b3          	and	x15,x15,x18
aaaae1a0:	00e7c7b3          	xor	x15,x15,x14
aaaae1a4:	01079793          	slli	x15,x15,0x10
aaaae1a8:	0107d793          	srli	x15,x15,0x10
aaaae1ac:	0015d713          	srli	x14,x11,0x1
aaaae1b0:	00f74733          	xor	x14,x14,x15
aaaae1b4:	00177713          	andi	x14,x14,1
aaaae1b8:	40e00733          	neg	x14,x14
aaaae1bc:	0017d793          	srli	x15,x15,0x1
aaaae1c0:	01277733          	and	x14,x14,x18
aaaae1c4:	00f74733          	xor	x14,x14,x15
aaaae1c8:	01071713          	slli	x14,x14,0x10
aaaae1cc:	01075713          	srli	x14,x14,0x10
aaaae1d0:	00e8c8b3          	xor	x17,x17,x14
aaaae1d4:	0018f893          	andi	x17,x17,1
aaaae1d8:	411008b3          	neg	x17,x17
aaaae1dc:	00175713          	srli	x14,x14,0x1
aaaae1e0:	0128f8b3          	and	x17,x17,x18
aaaae1e4:	00e8c8b3          	xor	x17,x17,x14
aaaae1e8:	01089893          	slli	x17,x17,0x10
aaaae1ec:	0035d813          	srli	x16,x11,0x3
aaaae1f0:	0108d893          	srli	x17,x17,0x10
aaaae1f4:	01184833          	xor	x16,x16,x17
aaaae1f8:	00187813          	andi	x16,x16,1
aaaae1fc:	41000833          	neg	x16,x16
aaaae200:	0018d893          	srli	x17,x17,0x1
aaaae204:	01287833          	and	x16,x16,x18
aaaae208:	01184833          	xor	x16,x16,x17
aaaae20c:	01081813          	slli	x16,x16,0x10
aaaae210:	0045d613          	srli	x12,x11,0x4
aaaae214:	01085813          	srli	x16,x16,0x10
aaaae218:	01064633          	xor	x12,x12,x16
aaaae21c:	00167613          	andi	x12,x12,1
aaaae220:	40c00633          	neg	x12,x12
aaaae224:	00185813          	srli	x16,x16,0x1
aaaae228:	01267633          	and	x12,x12,x18
aaaae22c:	01064633          	xor	x12,x12,x16
aaaae230:	01061613          	slli	x12,x12,0x10
aaaae234:	0055d693          	srli	x13,x11,0x5
aaaae238:	01065613          	srli	x12,x12,0x10
aaaae23c:	00c6c6b3          	xor	x13,x13,x12
aaaae240:	0016f693          	andi	x13,x13,1
aaaae244:	40d006b3          	neg	x13,x13
aaaae248:	00165613          	srli	x12,x12,0x1
aaaae24c:	0126f6b3          	and	x13,x13,x18
aaaae250:	00c6c6b3          	xor	x13,x13,x12
aaaae254:	01069693          	slli	x13,x13,0x10
aaaae258:	0065d713          	srli	x14,x11,0x6
aaaae25c:	0106d693          	srli	x13,x13,0x10
aaaae260:	00d74733          	xor	x14,x14,x13
aaaae264:	00177713          	andi	x14,x14,1
aaaae268:	40e00733          	neg	x14,x14
aaaae26c:	0016d693          	srli	x13,x13,0x1
aaaae270:	01277733          	and	x14,x14,x18
aaaae274:	00d74733          	xor	x14,x14,x13
aaaae278:	01071713          	slli	x14,x14,0x10
aaaae27c:	01075713          	srli	x14,x14,0x10
aaaae280:	0075d593          	srli	x11,x11,0x7
aaaae284:	00e5c5b3          	xor	x11,x11,x14
aaaae288:	0015f593          	andi	x11,x11,1
aaaae28c:	40b005b3          	neg	x11,x11
aaaae290:	00175713          	srli	x14,x14,0x1
aaaae294:	0125f5b3          	and	x11,x11,x18
aaaae298:	00e5c5b3          	xor	x11,x11,x14
aaaae29c:	00855793          	srli	x15,x10,0x8
aaaae2a0:	01059593          	slli	x11,x11,0x10
aaaae2a4:	0ff7f793          	zext.b	x15,x15
aaaae2a8:	0105d593          	srli	x11,x11,0x10
aaaae2ac:	0027de13          	srli	x28,x15,0x2
aaaae2b0:	0047d813          	srli	x16,x15,0x4
aaaae2b4:	0077d613          	srli	x12,x15,0x7
aaaae2b8:	0067d713          	srli	x14,x15,0x6
aaaae2bc:	0017d313          	srli	x6,x15,0x1
aaaae2c0:	0037d893          	srli	x17,x15,0x3
aaaae2c4:	0057d693          	srli	x13,x15,0x5
aaaae2c8:	00b7c7b3          	xor	x15,x15,x11
aaaae2cc:	0017f793          	andi	x15,x15,1
aaaae2d0:	40f007b3          	neg	x15,x15
aaaae2d4:	0015d593          	srli	x11,x11,0x1
aaaae2d8:	0127f7b3          	and	x15,x15,x18
aaaae2dc:	00b7c7b3          	xor	x15,x15,x11
aaaae2e0:	01079793          	slli	x15,x15,0x10
aaaae2e4:	0107d793          	srli	x15,x15,0x10
aaaae2e8:	00f34333          	xor	x6,x6,x15
aaaae2ec:	00137313          	andi	x6,x6,1
aaaae2f0:	40600333          	neg	x6,x6
aaaae2f4:	0017d793          	srli	x15,x15,0x1
aaaae2f8:	01237333          	and	x6,x6,x18
aaaae2fc:	00f34333          	xor	x6,x6,x15
aaaae300:	01031313          	slli	x6,x6,0x10
aaaae304:	01035313          	srli	x6,x6,0x10
aaaae308:	006e47b3          	xor	x15,x28,x6
aaaae30c:	0017f793          	andi	x15,x15,1
aaaae310:	40f007b3          	neg	x15,x15
aaaae314:	00135313          	srli	x6,x6,0x1
aaaae318:	0127f7b3          	and	x15,x15,x18
aaaae31c:	0067c7b3          	xor	x15,x15,x6
aaaae320:	01079793          	slli	x15,x15,0x10
aaaae324:	0107d793          	srli	x15,x15,0x10
aaaae328:	00f8c8b3          	xor	x17,x17,x15
aaaae32c:	0018f893          	andi	x17,x17,1
aaaae330:	411008b3          	neg	x17,x17
aaaae334:	0017d793          	srli	x15,x15,0x1
aaaae338:	0128f8b3          	and	x17,x17,x18
aaaae33c:	00f8c8b3          	xor	x17,x17,x15
aaaae340:	01089893          	slli	x17,x17,0x10
aaaae344:	0108d893          	srli	x17,x17,0x10
aaaae348:	011847b3          	xor	x15,x16,x17
aaaae34c:	0017f793          	andi	x15,x15,1
aaaae350:	40f007b3          	neg	x15,x15
aaaae354:	0018d893          	srli	x17,x17,0x1
aaaae358:	0127f7b3          	and	x15,x15,x18
aaaae35c:	0117c7b3          	xor	x15,x15,x17
aaaae360:	01079793          	slli	x15,x15,0x10
aaaae364:	0107d793          	srli	x15,x15,0x10
aaaae368:	00f6c6b3          	xor	x13,x13,x15
aaaae36c:	0016f693          	andi	x13,x13,1
aaaae370:	40d006b3          	neg	x13,x13
aaaae374:	0017d793          	srli	x15,x15,0x1
aaaae378:	0126f6b3          	and	x13,x13,x18
aaaae37c:	00f6c6b3          	xor	x13,x13,x15
aaaae380:	01069693          	slli	x13,x13,0x10
aaaae384:	0106d693          	srli	x13,x13,0x10
aaaae388:	00d747b3          	xor	x15,x14,x13
aaaae38c:	0017f793          	andi	x15,x15,1
aaaae390:	40f007b3          	neg	x15,x15
aaaae394:	0016d693          	srli	x13,x13,0x1
aaaae398:	0127f7b3          	and	x15,x15,x18
aaaae39c:	00d7c7b3          	xor	x15,x15,x13
aaaae3a0:	01079793          	slli	x15,x15,0x10
aaaae3a4:	0107d793          	srli	x15,x15,0x10
aaaae3a8:	00f64733          	xor	x14,x12,x15
aaaae3ac:	00177713          	andi	x14,x14,1
aaaae3b0:	40e00733          	neg	x14,x14
aaaae3b4:	01277733          	and	x14,x14,x18
aaaae3b8:	0017d793          	srli	x15,x15,0x1
aaaae3bc:	00f747b3          	xor	x15,x14,x15
aaaae3c0:	fff00593          	li	x11,-1
aaaae3c4:	00098513          	mv	x10,x19
aaaae3c8:	06f11a23          	sh	x15,116(x2)
aaaae3cc:	fffff097          	auipc	x1,0xfffff
aaaae3d0:	090080e7          	jalr	144(x1) # aaaad45c <core_bench_list>
aaaae3d4:	07415783          	lhu	x15,116(x2)
aaaae3d8:	0ff57613          	zext.b	x12,x10
aaaae3dc:	00265893          	srli	x17,x12,0x2
aaaae3e0:	00f64733          	xor	x14,x12,x15
aaaae3e4:	00177713          	andi	x14,x14,1
aaaae3e8:	40e00733          	neg	x14,x14
aaaae3ec:	0017d793          	srli	x15,x15,0x1
aaaae3f0:	01277733          	and	x14,x14,x18
aaaae3f4:	00f74733          	xor	x14,x14,x15
aaaae3f8:	01071713          	slli	x14,x14,0x10
aaaae3fc:	01075713          	srli	x14,x14,0x10
aaaae400:	00165793          	srli	x15,x12,0x1
aaaae404:	00e7c7b3          	xor	x15,x15,x14
aaaae408:	0017f793          	andi	x15,x15,1
aaaae40c:	40f007b3          	neg	x15,x15
aaaae410:	00175713          	srli	x14,x14,0x1
aaaae414:	0127f7b3          	and	x15,x15,x18
aaaae418:	00e7c7b3          	xor	x15,x15,x14
aaaae41c:	01079793          	slli	x15,x15,0x10
aaaae420:	0107d793          	srli	x15,x15,0x10
aaaae424:	00f8c8b3          	xor	x17,x17,x15
aaaae428:	0018f893          	andi	x17,x17,1
aaaae42c:	411008b3          	neg	x17,x17
aaaae430:	0017d793          	srli	x15,x15,0x1
aaaae434:	0128f8b3          	and	x17,x17,x18
aaaae438:	00f8c8b3          	xor	x17,x17,x15
aaaae43c:	01089893          	slli	x17,x17,0x10
aaaae440:	00365813          	srli	x16,x12,0x3
aaaae444:	0108d893          	srli	x17,x17,0x10
aaaae448:	01184833          	xor	x16,x16,x17
aaaae44c:	00187813          	andi	x16,x16,1
aaaae450:	41000833          	neg	x16,x16
aaaae454:	0018d893          	srli	x17,x17,0x1
aaaae458:	01287833          	and	x16,x16,x18
aaaae45c:	01184833          	xor	x16,x16,x17
aaaae460:	01081813          	slli	x16,x16,0x10
aaaae464:	00465593          	srli	x11,x12,0x4
aaaae468:	01085813          	srli	x16,x16,0x10
aaaae46c:	0105c5b3          	xor	x11,x11,x16
aaaae470:	0015f593          	andi	x11,x11,1
aaaae474:	40b005b3          	neg	x11,x11
aaaae478:	0125f5b3          	and	x11,x11,x18
aaaae47c:	00185813          	srli	x16,x16,0x1
aaaae480:	0105c5b3          	xor	x11,x11,x16
aaaae484:	01059593          	slli	x11,x11,0x10
aaaae488:	00565693          	srli	x13,x12,0x5
aaaae48c:	0105d593          	srli	x11,x11,0x10
aaaae490:	00b6c6b3          	xor	x13,x13,x11
aaaae494:	0016f693          	andi	x13,x13,1
aaaae498:	40d006b3          	neg	x13,x13
aaaae49c:	0015d593          	srli	x11,x11,0x1
aaaae4a0:	0126f6b3          	and	x13,x13,x18
aaaae4a4:	00b6c6b3          	xor	x13,x13,x11
aaaae4a8:	01069693          	slli	x13,x13,0x10
aaaae4ac:	00665793          	srli	x15,x12,0x6
aaaae4b0:	0106d693          	srli	x13,x13,0x10
aaaae4b4:	00d7c7b3          	xor	x15,x15,x13
aaaae4b8:	0017f793          	andi	x15,x15,1
aaaae4bc:	40f007b3          	neg	x15,x15
aaaae4c0:	0016d693          	srli	x13,x13,0x1
aaaae4c4:	0127f7b3          	and	x15,x15,x18
aaaae4c8:	00d7c7b3          	xor	x15,x15,x13
aaaae4cc:	01079793          	slli	x15,x15,0x10
aaaae4d0:	0107d793          	srli	x15,x15,0x10
aaaae4d4:	00765613          	srli	x12,x12,0x7
aaaae4d8:	00f64633          	xor	x12,x12,x15
aaaae4dc:	00167613          	andi	x12,x12,1
aaaae4e0:	40c00633          	neg	x12,x12
aaaae4e4:	0017d793          	srli	x15,x15,0x1
aaaae4e8:	01267633          	and	x12,x12,x18
aaaae4ec:	00f64633          	xor	x12,x12,x15
aaaae4f0:	00855713          	srli	x14,x10,0x8
aaaae4f4:	01061613          	slli	x12,x12,0x10
aaaae4f8:	0ff77713          	zext.b	x14,x14
aaaae4fc:	01065613          	srli	x12,x12,0x10
aaaae500:	00275893          	srli	x17,x14,0x2
aaaae504:	00175e13          	srli	x28,x14,0x1
aaaae508:	00375e93          	srli	x29,x14,0x3
aaaae50c:	00475513          	srli	x10,x14,0x4
aaaae510:	00575593          	srli	x11,x14,0x5
aaaae514:	00675693          	srli	x13,x14,0x6
aaaae518:	00775793          	srli	x15,x14,0x7
aaaae51c:	00c74733          	xor	x14,x14,x12
aaaae520:	00177713          	andi	x14,x14,1
aaaae524:	40e00733          	neg	x14,x14
aaaae528:	00165613          	srli	x12,x12,0x1
aaaae52c:	01277733          	and	x14,x14,x18
aaaae530:	00c74733          	xor	x14,x14,x12
aaaae534:	01071713          	slli	x14,x14,0x10
aaaae538:	01075713          	srli	x14,x14,0x10
aaaae53c:	00ee4e33          	xor	x28,x28,x14
aaaae540:	001e7e13          	andi	x28,x28,1
aaaae544:	41c00e33          	neg	x28,x28
aaaae548:	00175713          	srli	x14,x14,0x1
aaaae54c:	012e7e33          	and	x28,x28,x18
aaaae550:	00ee4e33          	xor	x28,x28,x14
aaaae554:	010e1e13          	slli	x28,x28,0x10
aaaae558:	010e5e13          	srli	x28,x28,0x10
aaaae55c:	01c8c733          	xor	x14,x17,x28
aaaae560:	00177713          	andi	x14,x14,1
aaaae564:	40e00733          	neg	x14,x14
aaaae568:	001e5e13          	srli	x28,x28,0x1
aaaae56c:	01277733          	and	x14,x14,x18
aaaae570:	01c74733          	xor	x14,x14,x28
aaaae574:	01071713          	slli	x14,x14,0x10
aaaae578:	01075713          	srli	x14,x14,0x10
aaaae57c:	00eeceb3          	xor	x29,x29,x14
aaaae580:	001efe93          	andi	x29,x29,1
aaaae584:	41d00eb3          	neg	x29,x29
aaaae588:	00175713          	srli	x14,x14,0x1
aaaae58c:	012efeb3          	and	x29,x29,x18
aaaae590:	00eeceb3          	xor	x29,x29,x14
aaaae594:	010e9e93          	slli	x29,x29,0x10
aaaae598:	010ede93          	srli	x29,x29,0x10
aaaae59c:	00100a93          	li	x21,1
aaaae5a0:	01d54733          	xor	x14,x10,x29
aaaae5a4:	01577733          	and	x14,x14,x21
aaaae5a8:	40e00733          	neg	x14,x14
aaaae5ac:	001ede93          	srli	x29,x29,0x1
aaaae5b0:	01277733          	and	x14,x14,x18
aaaae5b4:	01d74733          	xor	x14,x14,x29
aaaae5b8:	01071713          	slli	x14,x14,0x10
aaaae5bc:	01075713          	srli	x14,x14,0x10
aaaae5c0:	00e5c5b3          	xor	x11,x11,x14
aaaae5c4:	0155f5b3          	and	x11,x11,x21
aaaae5c8:	40b005b3          	neg	x11,x11
aaaae5cc:	00175713          	srli	x14,x14,0x1
aaaae5d0:	0125f5b3          	and	x11,x11,x18
aaaae5d4:	00e5c5b3          	xor	x11,x11,x14
aaaae5d8:	01059593          	slli	x11,x11,0x10
aaaae5dc:	0105d593          	srli	x11,x11,0x10
aaaae5e0:	00b6c733          	xor	x14,x13,x11
aaaae5e4:	01577733          	and	x14,x14,x21
aaaae5e8:	40e00733          	neg	x14,x14
aaaae5ec:	01277733          	and	x14,x14,x18
aaaae5f0:	0015d593          	srli	x11,x11,0x1
aaaae5f4:	00b74733          	xor	x14,x14,x11
aaaae5f8:	01071713          	slli	x14,x14,0x10
aaaae5fc:	01075713          	srli	x14,x14,0x10
aaaae600:	00e7c7b3          	xor	x15,x15,x14
aaaae604:	0157f7b3          	and	x15,x15,x21
aaaae608:	40f007b3          	neg	x15,x15
aaaae60c:	0127f7b3          	and	x15,x15,x18
aaaae610:	00175713          	srli	x14,x14,0x1
aaaae614:	00e7c7b3          	xor	x15,x15,x14
aaaae618:	01079793          	slli	x15,x15,0x10
aaaae61c:	04011483          	lh	x9,64(x2)
aaaae620:	04412603          	lw	x12,68(x2)
aaaae624:	05412d83          	lw	x27,84(x2)
aaaae628:	05812303          	lw	x6,88(x2)
aaaae62c:	05c12403          	lw	x8,92(x2)
aaaae630:	07812e03          	lw	x28,120(x2)
aaaae634:	07c11883          	lh	x17,124(x2)
aaaae638:	0107d793          	srli	x15,x15,0x10
aaaae63c:	00078e93          	mv	x29,x15
aaaae640:	00100593          	li	x11,1
aaaae644:	00098513          	mv	x10,x19
aaaae648:	07d11b23          	sh	x29,118(x2)
aaaae64c:	04911023          	sh	x9,64(x2)
aaaae650:	04c12223          	sw	x12,68(x2)
aaaae654:	05b12a23          	sw	x27,84(x2)
aaaae658:	04612c23          	sw	x6,88(x2)
aaaae65c:	04812e23          	sw	x8,92(x2)
aaaae660:	06f11a23          	sh	x15,116(x2)
aaaae664:	07c12c23          	sw	x28,120(x2)
aaaae668:	07111e23          	sh	x17,124(x2)
aaaae66c:	fffff097          	auipc	x1,0xfffff
aaaae670:	df0080e7          	jalr	-528(x1) # aaaad45c <core_bench_list>
aaaae674:	07415783          	lhu	x15,116(x2)
aaaae678:	0ff57593          	zext.b	x11,x10
aaaae67c:	0025d813          	srli	x16,x11,0x2
aaaae680:	00f5c733          	xor	x14,x11,x15
aaaae684:	00177713          	andi	x14,x14,1
aaaae688:	40e00733          	neg	x14,x14
aaaae68c:	0017d793          	srli	x15,x15,0x1
aaaae690:	01277733          	and	x14,x14,x18
aaaae694:	00f74733          	xor	x14,x14,x15
aaaae698:	01071713          	slli	x14,x14,0x10
aaaae69c:	01075713          	srli	x14,x14,0x10
aaaae6a0:	0015d793          	srli	x15,x11,0x1
aaaae6a4:	00e7c7b3          	xor	x15,x15,x14
aaaae6a8:	0017f793          	andi	x15,x15,1
aaaae6ac:	40f007b3          	neg	x15,x15
aaaae6b0:	00175713          	srli	x14,x14,0x1
aaaae6b4:	0127f7b3          	and	x15,x15,x18
aaaae6b8:	00e7c7b3          	xor	x15,x15,x14
aaaae6bc:	01079793          	slli	x15,x15,0x10
aaaae6c0:	0107d793          	srli	x15,x15,0x10
aaaae6c4:	00f84833          	xor	x16,x16,x15
aaaae6c8:	00187813          	andi	x16,x16,1
aaaae6cc:	41000833          	neg	x16,x16
aaaae6d0:	0017d793          	srli	x15,x15,0x1
aaaae6d4:	01287833          	and	x16,x16,x18
aaaae6d8:	00f84833          	xor	x16,x16,x15
aaaae6dc:	01081813          	slli	x16,x16,0x10
aaaae6e0:	0035d613          	srli	x12,x11,0x3
aaaae6e4:	01085813          	srli	x16,x16,0x10
aaaae6e8:	01064633          	xor	x12,x12,x16
aaaae6ec:	00167613          	andi	x12,x12,1
aaaae6f0:	40c00633          	neg	x12,x12
aaaae6f4:	00185813          	srli	x16,x16,0x1
aaaae6f8:	01267633          	and	x12,x12,x18
aaaae6fc:	01064633          	xor	x12,x12,x16
aaaae700:	01061613          	slli	x12,x12,0x10
aaaae704:	0045d693          	srli	x13,x11,0x4
aaaae708:	01065613          	srli	x12,x12,0x10
aaaae70c:	00c6c6b3          	xor	x13,x13,x12
aaaae710:	0016f693          	andi	x13,x13,1
aaaae714:	40d006b3          	neg	x13,x13
aaaae718:	00165613          	srli	x12,x12,0x1
aaaae71c:	0126f6b3          	and	x13,x13,x18
aaaae720:	00c6c6b3          	xor	x13,x13,x12
aaaae724:	01069693          	slli	x13,x13,0x10
aaaae728:	0055d713          	srli	x14,x11,0x5
aaaae72c:	0106d693          	srli	x13,x13,0x10
aaaae730:	00d74733          	xor	x14,x14,x13
aaaae734:	00177713          	andi	x14,x14,1
aaaae738:	40e00733          	neg	x14,x14
aaaae73c:	0016d693          	srli	x13,x13,0x1
aaaae740:	01277733          	and	x14,x14,x18
aaaae744:	00d74733          	xor	x14,x14,x13
aaaae748:	01071713          	slli	x14,x14,0x10
aaaae74c:	0065d793          	srli	x15,x11,0x6
aaaae750:	01075713          	srli	x14,x14,0x10
aaaae754:	00e7c7b3          	xor	x15,x15,x14
aaaae758:	0017f793          	andi	x15,x15,1
aaaae75c:	40f007b3          	neg	x15,x15
aaaae760:	00175713          	srli	x14,x14,0x1
aaaae764:	0127f7b3          	and	x15,x15,x18
aaaae768:	00e7c7b3          	xor	x15,x15,x14
aaaae76c:	01079793          	slli	x15,x15,0x10
aaaae770:	0107d793          	srli	x15,x15,0x10
aaaae774:	0075d593          	srli	x11,x11,0x7
aaaae778:	00f5c5b3          	xor	x11,x11,x15
aaaae77c:	0015f593          	andi	x11,x11,1
aaaae780:	40b005b3          	neg	x11,x11
aaaae784:	0017d793          	srli	x15,x15,0x1
aaaae788:	0125f5b3          	and	x11,x11,x18
aaaae78c:	00f5c5b3          	xor	x11,x11,x15
aaaae790:	00855513          	srli	x10,x10,0x8
aaaae794:	01059593          	slli	x11,x11,0x10
aaaae798:	0ff57513          	zext.b	x10,x10
aaaae79c:	0105d593          	srli	x11,x11,0x10
aaaae7a0:	00b547b3          	xor	x15,x10,x11
aaaae7a4:	0017f793          	andi	x15,x15,1
aaaae7a8:	40f007b3          	neg	x15,x15
aaaae7ac:	0015d593          	srli	x11,x11,0x1
aaaae7b0:	0127f7b3          	and	x15,x15,x18
aaaae7b4:	00b7c7b3          	xor	x15,x15,x11
aaaae7b8:	01079793          	slli	x15,x15,0x10
aaaae7bc:	00155313          	srli	x6,x10,0x1
aaaae7c0:	0107d793          	srli	x15,x15,0x10
aaaae7c4:	00f34333          	xor	x6,x6,x15
aaaae7c8:	00137313          	andi	x6,x6,1
aaaae7cc:	40600333          	neg	x6,x6
aaaae7d0:	0017d793          	srli	x15,x15,0x1
aaaae7d4:	01237333          	and	x6,x6,x18
aaaae7d8:	00f34333          	xor	x6,x6,x15
aaaae7dc:	01031313          	slli	x6,x6,0x10
aaaae7e0:	00255e13          	srli	x28,x10,0x2
aaaae7e4:	01035313          	srli	x6,x6,0x10
aaaae7e8:	006e47b3          	xor	x15,x28,x6
aaaae7ec:	0017f793          	andi	x15,x15,1
aaaae7f0:	40f007b3          	neg	x15,x15
aaaae7f4:	00135313          	srli	x6,x6,0x1
aaaae7f8:	0127f7b3          	and	x15,x15,x18
aaaae7fc:	0067c7b3          	xor	x15,x15,x6
aaaae800:	01079793          	slli	x15,x15,0x10
aaaae804:	00355893          	srli	x17,x10,0x3
aaaae808:	0107d793          	srli	x15,x15,0x10
aaaae80c:	00f8c8b3          	xor	x17,x17,x15
aaaae810:	0018f893          	andi	x17,x17,1
aaaae814:	411008b3          	neg	x17,x17
aaaae818:	0017d793          	srli	x15,x15,0x1
aaaae81c:	0128f8b3          	and	x17,x17,x18
aaaae820:	00f8c8b3          	xor	x17,x17,x15
aaaae824:	01089893          	slli	x17,x17,0x10
aaaae828:	00455813          	srli	x16,x10,0x4
aaaae82c:	0108d893          	srli	x17,x17,0x10
aaaae830:	011847b3          	xor	x15,x16,x17
aaaae834:	0017f793          	andi	x15,x15,1
aaaae838:	40f007b3          	neg	x15,x15
aaaae83c:	0018d893          	srli	x17,x17,0x1
aaaae840:	0127f7b3          	and	x15,x15,x18
aaaae844:	0117c7b3          	xor	x15,x15,x17
aaaae848:	01079793          	slli	x15,x15,0x10
aaaae84c:	00555693          	srli	x13,x10,0x5
aaaae850:	0107d793          	srli	x15,x15,0x10
aaaae854:	00f6c6b3          	xor	x13,x13,x15
aaaae858:	0016f693          	andi	x13,x13,1
aaaae85c:	40d006b3          	neg	x13,x13
aaaae860:	0017d793          	srli	x15,x15,0x1
aaaae864:	0126f6b3          	and	x13,x13,x18
aaaae868:	00f6c6b3          	xor	x13,x13,x15
aaaae86c:	01069693          	slli	x13,x13,0x10
aaaae870:	00655713          	srli	x14,x10,0x6
aaaae874:	0106d693          	srli	x13,x13,0x10
aaaae878:	00d747b3          	xor	x15,x14,x13
aaaae87c:	0017f793          	andi	x15,x15,1
aaaae880:	40f007b3          	neg	x15,x15
aaaae884:	0016d693          	srli	x13,x13,0x1
aaaae888:	0127f7b3          	and	x15,x15,x18
aaaae88c:	00d7c7b3          	xor	x15,x15,x13
aaaae890:	01079793          	slli	x15,x15,0x10
aaaae894:	00755613          	srli	x12,x10,0x7
aaaae898:	0107d793          	srli	x15,x15,0x10
aaaae89c:	00f64733          	xor	x14,x12,x15
aaaae8a0:	00177713          	andi	x14,x14,1
aaaae8a4:	40e00733          	neg	x14,x14
aaaae8a8:	01277733          	and	x14,x14,x18
aaaae8ac:	0017d793          	srli	x15,x15,0x1
aaaae8b0:	00f747b3          	xor	x15,x14,x15
aaaae8b4:	fff00593          	li	x11,-1
aaaae8b8:	00098513          	mv	x10,x19
aaaae8bc:	06f11a23          	sh	x15,116(x2)
aaaae8c0:	fffff097          	auipc	x1,0xfffff
aaaae8c4:	b9c080e7          	jalr	-1124(x1) # aaaad45c <core_bench_list>
aaaae8c8:	07415783          	lhu	x15,116(x2)
aaaae8cc:	0ff57813          	zext.b	x16,x10
aaaae8d0:	00285593          	srli	x11,x16,0x2
aaaae8d4:	00f84733          	xor	x14,x16,x15
aaaae8d8:	00177713          	andi	x14,x14,1
aaaae8dc:	40e00733          	neg	x14,x14
aaaae8e0:	0017d793          	srli	x15,x15,0x1
aaaae8e4:	01277733          	and	x14,x14,x18
aaaae8e8:	00f74733          	xor	x14,x14,x15
aaaae8ec:	01071713          	slli	x14,x14,0x10
aaaae8f0:	01075713          	srli	x14,x14,0x10
aaaae8f4:	00185793          	srli	x15,x16,0x1
aaaae8f8:	00e7c7b3          	xor	x15,x15,x14
aaaae8fc:	0017f793          	andi	x15,x15,1
aaaae900:	40f007b3          	neg	x15,x15
aaaae904:	00175713          	srli	x14,x14,0x1
aaaae908:	0127f7b3          	and	x15,x15,x18
aaaae90c:	00e7c7b3          	xor	x15,x15,x14
aaaae910:	01079793          	slli	x15,x15,0x10
aaaae914:	0107d793          	srli	x15,x15,0x10
aaaae918:	00f5c5b3          	xor	x11,x11,x15
aaaae91c:	0015f593          	andi	x11,x11,1
aaaae920:	40b005b3          	neg	x11,x11
aaaae924:	0017d793          	srli	x15,x15,0x1
aaaae928:	0125f5b3          	and	x11,x11,x18
aaaae92c:	00f5c5b3          	xor	x11,x11,x15
aaaae930:	01059593          	slli	x11,x11,0x10
aaaae934:	00385613          	srli	x12,x16,0x3
aaaae938:	0105d593          	srli	x11,x11,0x10
aaaae93c:	00b64633          	xor	x12,x12,x11
aaaae940:	00167613          	andi	x12,x12,1
aaaae944:	40c00633          	neg	x12,x12
aaaae948:	0015d593          	srli	x11,x11,0x1
aaaae94c:	01267633          	and	x12,x12,x18
aaaae950:	00b64633          	xor	x12,x12,x11
aaaae954:	01061613          	slli	x12,x12,0x10
aaaae958:	00485693          	srli	x13,x16,0x4
aaaae95c:	01065613          	srli	x12,x12,0x10
aaaae960:	00c6c6b3          	xor	x13,x13,x12
aaaae964:	0016f693          	andi	x13,x13,1
aaaae968:	40d006b3          	neg	x13,x13
aaaae96c:	00165613          	srli	x12,x12,0x1
aaaae970:	0126f6b3          	and	x13,x13,x18
aaaae974:	00c6c6b3          	xor	x13,x13,x12
aaaae978:	01069693          	slli	x13,x13,0x10
aaaae97c:	00585713          	srli	x14,x16,0x5
aaaae980:	0106d693          	srli	x13,x13,0x10
aaaae984:	00d74733          	xor	x14,x14,x13
aaaae988:	00177713          	andi	x14,x14,1
aaaae98c:	40e00733          	neg	x14,x14
aaaae990:	0016d693          	srli	x13,x13,0x1
aaaae994:	01277733          	and	x14,x14,x18
aaaae998:	00d74733          	xor	x14,x14,x13
aaaae99c:	01071713          	slli	x14,x14,0x10
aaaae9a0:	00685793          	srli	x15,x16,0x6
aaaae9a4:	01075713          	srli	x14,x14,0x10
aaaae9a8:	00e7c7b3          	xor	x15,x15,x14
aaaae9ac:	0017f793          	andi	x15,x15,1
aaaae9b0:	40f007b3          	neg	x15,x15
aaaae9b4:	00175713          	srli	x14,x14,0x1
aaaae9b8:	0127f7b3          	and	x15,x15,x18
aaaae9bc:	00e7c7b3          	xor	x15,x15,x14
aaaae9c0:	01079793          	slli	x15,x15,0x10
aaaae9c4:	0107d793          	srli	x15,x15,0x10
aaaae9c8:	00785813          	srli	x16,x16,0x7
aaaae9cc:	00f84833          	xor	x16,x16,x15
aaaae9d0:	00187813          	andi	x16,x16,1
aaaae9d4:	41000833          	neg	x16,x16
aaaae9d8:	0017d793          	srli	x15,x15,0x1
aaaae9dc:	01287833          	and	x16,x16,x18
aaaae9e0:	00f84833          	xor	x16,x16,x15
aaaae9e4:	00855513          	srli	x10,x10,0x8
aaaae9e8:	01081813          	slli	x16,x16,0x10
aaaae9ec:	0ff57513          	zext.b	x10,x10
aaaae9f0:	01085813          	srli	x16,x16,0x10
aaaae9f4:	010547b3          	xor	x15,x10,x16
aaaae9f8:	0017f793          	andi	x15,x15,1
aaaae9fc:	40f007b3          	neg	x15,x15
aaaaea00:	0127f7b3          	and	x15,x15,x18
aaaaea04:	00185813          	srli	x16,x16,0x1
aaaaea08:	0107c7b3          	xor	x15,x15,x16
aaaaea0c:	01079793          	slli	x15,x15,0x10
aaaaea10:	00155613          	srli	x12,x10,0x1
aaaaea14:	0107d793          	srli	x15,x15,0x10
aaaaea18:	00f64633          	xor	x12,x12,x15
aaaaea1c:	00167613          	andi	x12,x12,1
aaaaea20:	40c00633          	neg	x12,x12
aaaaea24:	01267633          	and	x12,x12,x18
aaaaea28:	0017d793          	srli	x15,x15,0x1
aaaaea2c:	00f647b3          	xor	x15,x12,x15
aaaaea30:	01079793          	slli	x15,x15,0x10
aaaaea34:	00255313          	srli	x6,x10,0x2
aaaaea38:	0107d793          	srli	x15,x15,0x10
aaaaea3c:	00355e13          	srli	x28,x10,0x3
aaaaea40:	00455893          	srli	x17,x10,0x4
aaaaea44:	00555593          	srli	x11,x10,0x5
aaaaea48:	00655693          	srli	x13,x10,0x6
aaaaea4c:	00755713          	srli	x14,x10,0x7
aaaaea50:	00f34533          	xor	x10,x6,x15
aaaaea54:	00157513          	andi	x10,x10,1
aaaaea58:	40a00533          	neg	x10,x10
aaaaea5c:	0017d793          	srli	x15,x15,0x1
aaaaea60:	01257533          	and	x10,x10,x18
aaaaea64:	00f54533          	xor	x10,x10,x15
aaaaea68:	01051513          	slli	x10,x10,0x10
aaaaea6c:	01055513          	srli	x10,x10,0x10
aaaaea70:	00ae47b3          	xor	x15,x28,x10
aaaaea74:	0017f793          	andi	x15,x15,1
aaaaea78:	40f007b3          	neg	x15,x15
aaaaea7c:	00155513          	srli	x10,x10,0x1
aaaaea80:	0127f7b3          	and	x15,x15,x18
aaaaea84:	00a7c7b3          	xor	x15,x15,x10
aaaaea88:	01079793          	slli	x15,x15,0x10
aaaaea8c:	0107d793          	srli	x15,x15,0x10
aaaaea90:	00f8c533          	xor	x10,x17,x15
aaaaea94:	00157513          	andi	x10,x10,1
aaaaea98:	40a00533          	neg	x10,x10
aaaaea9c:	0017d793          	srli	x15,x15,0x1
aaaaeaa0:	01257533          	and	x10,x10,x18
aaaaeaa4:	00f54533          	xor	x10,x10,x15
aaaaeaa8:	01051513          	slli	x10,x10,0x10
aaaaeaac:	01055513          	srli	x10,x10,0x10
aaaaeab0:	00a5c7b3          	xor	x15,x11,x10
aaaaeab4:	0017f793          	andi	x15,x15,1
aaaaeab8:	40f007b3          	neg	x15,x15
aaaaeabc:	0127f7b3          	and	x15,x15,x18
aaaaeac0:	00155513          	srli	x10,x10,0x1
aaaaeac4:	00a7c7b3          	xor	x15,x15,x10
aaaaeac8:	01079793          	slli	x15,x15,0x10
aaaaeacc:	0107d793          	srli	x15,x15,0x10
aaaaead0:	00f6c6b3          	xor	x13,x13,x15
aaaaead4:	0016f693          	andi	x13,x13,1
aaaaead8:	40d006b3          	neg	x13,x13
aaaaeadc:	0017d793          	srli	x15,x15,0x1
aaaaeae0:	0126f6b3          	and	x13,x13,x18
aaaaeae4:	00f6c6b3          	xor	x13,x13,x15
aaaaeae8:	01069693          	slli	x13,x13,0x10
aaaaeaec:	0106d693          	srli	x13,x13,0x10
aaaaeaf0:	00d747b3          	xor	x15,x14,x13
aaaaeaf4:	0017f793          	andi	x15,x15,1
aaaaeaf8:	40f007b3          	neg	x15,x15
aaaaeafc:	0127f7b3          	and	x15,x15,x18
aaaaeb00:	0016d693          	srli	x13,x13,0x1
aaaaeb04:	00d7c7b3          	xor	x15,x15,x13
aaaaeb08:	01079793          	slli	x15,x15,0x10
aaaaeb0c:	001a8a93          	addi	x21,x21,1
aaaaeb10:	04011483          	lh	x9,64(x2)
aaaaeb14:	04412603          	lw	x12,68(x2)
aaaaeb18:	05412d83          	lw	x27,84(x2)
aaaaeb1c:	05812303          	lw	x6,88(x2)
aaaaeb20:	05c12403          	lw	x8,92(x2)
aaaaeb24:	07615e83          	lhu	x29,118(x2)
aaaaeb28:	07812e03          	lw	x28,120(x2)
aaaaeb2c:	07c11883          	lh	x17,124(x2)
aaaaeb30:	0107d793          	srli	x15,x15,0x10
aaaaeb34:	b14ae6e3          	bltu	x21,x20,aaaae640 <main+0x664>
aaaaeb38:	00402013          	slti	x0,x0,4
aaaaeb3c:	00202013          	slti	x0,x0,2
aaaaeb40:	df4ff06f          	j	aaaae134 <main+0x158>
aaaaeb44:	d8f71863          	bne	x14,x15,aaaae0d4 <main+0xf8>
aaaaeb48:	d8049663          	bnez	x9,aaaae0d4 <main+0xf8>
aaaaeb4c:	341537b7          	lui	x15,0x34153
aaaaeb50:	41578793          	addi	x15,x15,1045 # 34153415 <_start-0x76956beb>
aaaaeb54:	27d0006f          	j	aaaaf5d0 <main+0x15f4>
aaaaeb58:	00700413          	li	x8,7
aaaaeb5c:	d0f71863          	bne	x14,x15,aaaae06c <main+0x90>
aaaaeb60:	fe0486e3          	beqz	x9,aaaaeb4c <main+0xb70>
aaaaeb64:	d70ff06f          	j	aaaae0d4 <main+0xf8>
aaaaeb68:	00102013          	slti	x0,x0,1
aaaaeb6c:	00302013          	slti	x0,x0,3
aaaaeb70:	01c12783          	lw	x15,28(x2)
aaaaeb74:	02012903          	lw	x18,32(x2)
aaaaeb78:	03c10993          	addi	x19,x2,60
aaaaeb7c:	00100593          	li	x11,1
aaaaeb80:	00098513          	mv	x10,x19
aaaaeb84:	04911023          	sh	x9,64(x2)
aaaaeb88:	04f12223          	sw	x15,68(x2)
aaaaeb8c:	04812e23          	sw	x8,92(x2)
aaaaeb90:	05b12a23          	sw	x27,84(x2)
aaaaeb94:	05212c23          	sw	x18,88(x2)
aaaaeb98:	06012a23          	sw	x0,116(x2)
aaaaeb9c:	06012c23          	sw	x0,120(x2)
aaaaeba0:	06011e23          	sh	x0,124(x2)
aaaaeba4:	fffff097          	auipc	x1,0xfffff
aaaaeba8:	8b8080e7          	jalr	-1864(x1) # aaaad45c <core_bench_list>
aaaaebac:	07415783          	lhu	x15,116(x2)
aaaaebb0:	0ff57593          	zext.b	x11,x10
aaaaebb4:	ffffa437          	lui	x8,0xffffa
aaaaebb8:	00f5c6b3          	xor	x13,x11,x15
aaaaebbc:	0016f693          	andi	x13,x13,1
aaaaebc0:	00140413          	addi	x8,x8,1 # ffffa001 <_stack_top+0xfffa001>
aaaaebc4:	40d006b3          	neg	x13,x13
aaaaebc8:	0017d793          	srli	x15,x15,0x1
aaaaebcc:	0086f6b3          	and	x13,x13,x8
aaaaebd0:	00f6c6b3          	xor	x13,x13,x15
aaaaebd4:	01069693          	slli	x13,x13,0x10
aaaaebd8:	0106d693          	srli	x13,x13,0x10
aaaaebdc:	0015d713          	srli	x14,x11,0x1
aaaaebe0:	00d74733          	xor	x14,x14,x13
aaaaebe4:	00177713          	andi	x14,x14,1
aaaaebe8:	40e00733          	neg	x14,x14
aaaaebec:	0016d693          	srli	x13,x13,0x1
aaaaebf0:	00877733          	and	x14,x14,x8
aaaaebf4:	00d74733          	xor	x14,x14,x13
aaaaebf8:	01071713          	slli	x14,x14,0x10
aaaaebfc:	0025d793          	srli	x15,x11,0x2
aaaaec00:	01075713          	srli	x14,x14,0x10
aaaaec04:	00e7c7b3          	xor	x15,x15,x14
aaaaec08:	0017f793          	andi	x15,x15,1
aaaaec0c:	40f007b3          	neg	x15,x15
aaaaec10:	00175713          	srli	x14,x14,0x1
aaaaec14:	0087f7b3          	and	x15,x15,x8
aaaaec18:	00e7c7b3          	xor	x15,x15,x14
aaaaec1c:	01079793          	slli	x15,x15,0x10
aaaaec20:	00050813          	mv	x16,x10
aaaaec24:	0107d793          	srli	x15,x15,0x10
aaaaec28:	0035d513          	srli	x10,x11,0x3
aaaaec2c:	00f54533          	xor	x10,x10,x15
aaaaec30:	00157513          	andi	x10,x10,1
aaaaec34:	40a00533          	neg	x10,x10
aaaaec38:	0017d793          	srli	x15,x15,0x1
aaaaec3c:	00857533          	and	x10,x10,x8
aaaaec40:	00f54533          	xor	x10,x10,x15
aaaaec44:	01051513          	slli	x10,x10,0x10
aaaaec48:	0045d613          	srli	x12,x11,0x4
aaaaec4c:	01055513          	srli	x10,x10,0x10
aaaaec50:	00a64633          	xor	x12,x12,x10
aaaaec54:	00167613          	andi	x12,x12,1
aaaaec58:	40c00633          	neg	x12,x12
aaaaec5c:	00155513          	srli	x10,x10,0x1
aaaaec60:	00867633          	and	x12,x12,x8
aaaaec64:	00a64633          	xor	x12,x12,x10
aaaaec68:	01061613          	slli	x12,x12,0x10
aaaaec6c:	0055d693          	srli	x13,x11,0x5
aaaaec70:	01065613          	srli	x12,x12,0x10
aaaaec74:	00c6c6b3          	xor	x13,x13,x12
aaaaec78:	0016f693          	andi	x13,x13,1
aaaaec7c:	40d006b3          	neg	x13,x13
aaaaec80:	00165613          	srli	x12,x12,0x1
aaaaec84:	0086f6b3          	and	x13,x13,x8
aaaaec88:	00c6c6b3          	xor	x13,x13,x12
aaaaec8c:	01069693          	slli	x13,x13,0x10
aaaaec90:	0065d713          	srli	x14,x11,0x6
aaaaec94:	0106d693          	srli	x13,x13,0x10
aaaaec98:	00d74733          	xor	x14,x14,x13
aaaaec9c:	00177713          	andi	x14,x14,1
aaaaeca0:	40e00733          	neg	x14,x14
aaaaeca4:	0016d693          	srli	x13,x13,0x1
aaaaeca8:	00877733          	and	x14,x14,x8
aaaaecac:	00d74733          	xor	x14,x14,x13
aaaaecb0:	01071713          	slli	x14,x14,0x10
aaaaecb4:	01075713          	srli	x14,x14,0x10
aaaaecb8:	0075d593          	srli	x11,x11,0x7
aaaaecbc:	00e5c5b3          	xor	x11,x11,x14
aaaaecc0:	0015f593          	andi	x11,x11,1
aaaaecc4:	40b005b3          	neg	x11,x11
aaaaecc8:	00175713          	srli	x14,x14,0x1
aaaaeccc:	0085f5b3          	and	x11,x11,x8
aaaaecd0:	00e5c5b3          	xor	x11,x11,x14
aaaaecd4:	00885793          	srli	x15,x16,0x8
aaaaecd8:	01059593          	slli	x11,x11,0x10
aaaaecdc:	0ff7f793          	zext.b	x15,x15
aaaaece0:	0105d593          	srli	x11,x11,0x10
aaaaece4:	0027de13          	srli	x28,x15,0x2
aaaaece8:	0047d813          	srli	x16,x15,0x4
aaaaecec:	0077d613          	srli	x12,x15,0x7
aaaaecf0:	0067d713          	srli	x14,x15,0x6
aaaaecf4:	0017d313          	srli	x6,x15,0x1
aaaaecf8:	0037d893          	srli	x17,x15,0x3
aaaaecfc:	0057d693          	srli	x13,x15,0x5
aaaaed00:	00b7c7b3          	xor	x15,x15,x11
aaaaed04:	0017f793          	andi	x15,x15,1
aaaaed08:	40f007b3          	neg	x15,x15
aaaaed0c:	0015d593          	srli	x11,x11,0x1
aaaaed10:	0087f7b3          	and	x15,x15,x8
aaaaed14:	00b7c7b3          	xor	x15,x15,x11
aaaaed18:	01079793          	slli	x15,x15,0x10
aaaaed1c:	0107d793          	srli	x15,x15,0x10
aaaaed20:	00f34333          	xor	x6,x6,x15
aaaaed24:	00137313          	andi	x6,x6,1
aaaaed28:	40600333          	neg	x6,x6
aaaaed2c:	0017d793          	srli	x15,x15,0x1
aaaaed30:	00837333          	and	x6,x6,x8
aaaaed34:	00f34333          	xor	x6,x6,x15
aaaaed38:	01031313          	slli	x6,x6,0x10
aaaaed3c:	01035313          	srli	x6,x6,0x10
aaaaed40:	006e47b3          	xor	x15,x28,x6
aaaaed44:	0017f793          	andi	x15,x15,1
aaaaed48:	40f007b3          	neg	x15,x15
aaaaed4c:	00135313          	srli	x6,x6,0x1
aaaaed50:	0087f7b3          	and	x15,x15,x8
aaaaed54:	0067c7b3          	xor	x15,x15,x6
aaaaed58:	01079793          	slli	x15,x15,0x10
aaaaed5c:	0107d793          	srli	x15,x15,0x10
aaaaed60:	00f8c8b3          	xor	x17,x17,x15
aaaaed64:	0018f893          	andi	x17,x17,1
aaaaed68:	411008b3          	neg	x17,x17
aaaaed6c:	0017d793          	srli	x15,x15,0x1
aaaaed70:	0088f8b3          	and	x17,x17,x8
aaaaed74:	00f8c8b3          	xor	x17,x17,x15
aaaaed78:	01089893          	slli	x17,x17,0x10
aaaaed7c:	0108d893          	srli	x17,x17,0x10
aaaaed80:	011847b3          	xor	x15,x16,x17
aaaaed84:	0017f793          	andi	x15,x15,1
aaaaed88:	40f007b3          	neg	x15,x15
aaaaed8c:	0018d893          	srli	x17,x17,0x1
aaaaed90:	0087f7b3          	and	x15,x15,x8
aaaaed94:	0117c7b3          	xor	x15,x15,x17
aaaaed98:	01079793          	slli	x15,x15,0x10
aaaaed9c:	0107d793          	srli	x15,x15,0x10
aaaaeda0:	00f6c6b3          	xor	x13,x13,x15
aaaaeda4:	0016f693          	andi	x13,x13,1
aaaaeda8:	40d006b3          	neg	x13,x13
aaaaedac:	0017d793          	srli	x15,x15,0x1
aaaaedb0:	0086f6b3          	and	x13,x13,x8
aaaaedb4:	00f6c6b3          	xor	x13,x13,x15
aaaaedb8:	01069693          	slli	x13,x13,0x10
aaaaedbc:	0106d693          	srli	x13,x13,0x10
aaaaedc0:	00d747b3          	xor	x15,x14,x13
aaaaedc4:	0017f793          	andi	x15,x15,1
aaaaedc8:	40f007b3          	neg	x15,x15
aaaaedcc:	0016d693          	srli	x13,x13,0x1
aaaaedd0:	0087f7b3          	and	x15,x15,x8
aaaaedd4:	00d7c7b3          	xor	x15,x15,x13
aaaaedd8:	01079793          	slli	x15,x15,0x10
aaaaeddc:	0107d793          	srli	x15,x15,0x10
aaaaede0:	00f64733          	xor	x14,x12,x15
aaaaede4:	00177713          	andi	x14,x14,1
aaaaede8:	40e00733          	neg	x14,x14
aaaaedec:	00877733          	and	x14,x14,x8
aaaaedf0:	0017d793          	srli	x15,x15,0x1
aaaaedf4:	00f747b3          	xor	x15,x14,x15
aaaaedf8:	fff00593          	li	x11,-1
aaaaedfc:	00098513          	mv	x10,x19
aaaaee00:	06f11a23          	sh	x15,116(x2)
aaaaee04:	ffffe097          	auipc	x1,0xffffe
aaaaee08:	658080e7          	jalr	1624(x1) # aaaad45c <core_bench_list>
aaaaee0c:	07415783          	lhu	x15,116(x2)
aaaaee10:	0ff57613          	zext.b	x12,x10
aaaaee14:	00265713          	srli	x14,x12,0x2
aaaaee18:	00f646b3          	xor	x13,x12,x15
aaaaee1c:	0016f693          	andi	x13,x13,1
aaaaee20:	40d006b3          	neg	x13,x13
aaaaee24:	0017d793          	srli	x15,x15,0x1
aaaaee28:	0086f6b3          	and	x13,x13,x8
aaaaee2c:	00f6c6b3          	xor	x13,x13,x15
aaaaee30:	01069693          	slli	x13,x13,0x10
aaaaee34:	0106d693          	srli	x13,x13,0x10
aaaaee38:	00165793          	srli	x15,x12,0x1
aaaaee3c:	00d7c7b3          	xor	x15,x15,x13
aaaaee40:	0017f793          	andi	x15,x15,1
aaaaee44:	40f007b3          	neg	x15,x15
aaaaee48:	0016d693          	srli	x13,x13,0x1
aaaaee4c:	0087f7b3          	and	x15,x15,x8
aaaaee50:	00d7c7b3          	xor	x15,x15,x13
aaaaee54:	01079793          	slli	x15,x15,0x10
aaaaee58:	0107d793          	srli	x15,x15,0x10
aaaaee5c:	00f74733          	xor	x14,x14,x15
aaaaee60:	00177713          	andi	x14,x14,1
aaaaee64:	40e00733          	neg	x14,x14
aaaaee68:	0017d793          	srli	x15,x15,0x1
aaaaee6c:	00877733          	and	x14,x14,x8
aaaaee70:	00f74733          	xor	x14,x14,x15
aaaaee74:	01071713          	slli	x14,x14,0x10
aaaaee78:	00050813          	mv	x16,x10
aaaaee7c:	01075713          	srli	x14,x14,0x10
aaaaee80:	00365513          	srli	x10,x12,0x3
aaaaee84:	00e54533          	xor	x10,x10,x14
aaaaee88:	00157513          	andi	x10,x10,1
aaaaee8c:	40a00533          	neg	x10,x10
aaaaee90:	00175713          	srli	x14,x14,0x1
aaaaee94:	00857533          	and	x10,x10,x8
aaaaee98:	00e54533          	xor	x10,x10,x14
aaaaee9c:	01051513          	slli	x10,x10,0x10
aaaaeea0:	00465693          	srli	x13,x12,0x4
aaaaeea4:	01055513          	srli	x10,x10,0x10
aaaaeea8:	00a6c6b3          	xor	x13,x13,x10
aaaaeeac:	0016f693          	andi	x13,x13,1
aaaaeeb0:	40d006b3          	neg	x13,x13
aaaaeeb4:	00155513          	srli	x10,x10,0x1
aaaaeeb8:	0086f6b3          	and	x13,x13,x8
aaaaeebc:	00a6c6b3          	xor	x13,x13,x10
aaaaeec0:	01069693          	slli	x13,x13,0x10
aaaaeec4:	00565593          	srli	x11,x12,0x5
aaaaeec8:	0106d693          	srli	x13,x13,0x10
aaaaeecc:	00d5c5b3          	xor	x11,x11,x13
aaaaeed0:	0015f593          	andi	x11,x11,1
aaaaeed4:	40b005b3          	neg	x11,x11
aaaaeed8:	0016d693          	srli	x13,x13,0x1
aaaaeedc:	0085f5b3          	and	x11,x11,x8
aaaaeee0:	00d5c5b3          	xor	x11,x11,x13
aaaaeee4:	01059593          	slli	x11,x11,0x10
aaaaeee8:	00665793          	srli	x15,x12,0x6
aaaaeeec:	0105d593          	srli	x11,x11,0x10
aaaaeef0:	00b7c7b3          	xor	x15,x15,x11
aaaaeef4:	0017f793          	andi	x15,x15,1
aaaaeef8:	40f007b3          	neg	x15,x15
aaaaeefc:	0015d593          	srli	x11,x11,0x1
aaaaef00:	0087f7b3          	and	x15,x15,x8
aaaaef04:	00b7c7b3          	xor	x15,x15,x11
aaaaef08:	01079793          	slli	x15,x15,0x10
aaaaef0c:	0107d793          	srli	x15,x15,0x10
aaaaef10:	00765613          	srli	x12,x12,0x7
aaaaef14:	00f64633          	xor	x12,x12,x15
aaaaef18:	00167613          	andi	x12,x12,1
aaaaef1c:	40c00633          	neg	x12,x12
aaaaef20:	0017d793          	srli	x15,x15,0x1
aaaaef24:	00867633          	and	x12,x12,x8
aaaaef28:	00f64633          	xor	x12,x12,x15
aaaaef2c:	00885713          	srli	x14,x16,0x8
aaaaef30:	01061613          	slli	x12,x12,0x10
aaaaef34:	0ff77713          	zext.b	x14,x14
aaaaef38:	01065613          	srli	x12,x12,0x10
aaaaef3c:	00275693          	srli	x13,x14,0x2
aaaaef40:	00175813          	srli	x16,x14,0x1
aaaaef44:	00375f93          	srli	x31,x14,0x3
aaaaef48:	00475f13          	srli	x30,x14,0x4
aaaaef4c:	00575513          	srli	x10,x14,0x5
aaaaef50:	00675593          	srli	x11,x14,0x6
aaaaef54:	00775793          	srli	x15,x14,0x7
aaaaef58:	00c74733          	xor	x14,x14,x12
aaaaef5c:	00177713          	andi	x14,x14,1
aaaaef60:	40e00733          	neg	x14,x14
aaaaef64:	00165613          	srli	x12,x12,0x1
aaaaef68:	00877733          	and	x14,x14,x8
aaaaef6c:	00c74733          	xor	x14,x14,x12
aaaaef70:	01071713          	slli	x14,x14,0x10
aaaaef74:	01075713          	srli	x14,x14,0x10
aaaaef78:	00100493          	li	x9,1
aaaaef7c:	00e84833          	xor	x16,x16,x14
aaaaef80:	00987833          	and	x16,x16,x9
aaaaef84:	41000833          	neg	x16,x16
aaaaef88:	00175713          	srli	x14,x14,0x1
aaaaef8c:	00887833          	and	x16,x16,x8
aaaaef90:	00e84833          	xor	x16,x16,x14
aaaaef94:	01081813          	slli	x16,x16,0x10
aaaaef98:	01085813          	srli	x16,x16,0x10
aaaaef9c:	0106c733          	xor	x14,x13,x16
aaaaefa0:	00977733          	and	x14,x14,x9
aaaaefa4:	40e00733          	neg	x14,x14
aaaaefa8:	00185813          	srli	x16,x16,0x1
aaaaefac:	00877733          	and	x14,x14,x8
aaaaefb0:	01074733          	xor	x14,x14,x16
aaaaefb4:	01071713          	slli	x14,x14,0x10
aaaaefb8:	01075713          	srli	x14,x14,0x10
aaaaefbc:	00efcfb3          	xor	x31,x31,x14
aaaaefc0:	009fffb3          	and	x31,x31,x9
aaaaefc4:	41f00fb3          	neg	x31,x31
aaaaefc8:	00175713          	srli	x14,x14,0x1
aaaaefcc:	008fffb3          	and	x31,x31,x8
aaaaefd0:	00efcfb3          	xor	x31,x31,x14
aaaaefd4:	010f9f93          	slli	x31,x31,0x10
aaaaefd8:	010fdf93          	srli	x31,x31,0x10
aaaaefdc:	01ff4733          	xor	x14,x30,x31
aaaaefe0:	00977733          	and	x14,x14,x9
aaaaefe4:	40e00733          	neg	x14,x14
aaaaefe8:	00877733          	and	x14,x14,x8
aaaaefec:	001fdf93          	srli	x31,x31,0x1
aaaaeff0:	01f74733          	xor	x14,x14,x31
aaaaeff4:	01071713          	slli	x14,x14,0x10
aaaaeff8:	01075713          	srli	x14,x14,0x10
aaaaeffc:	00e54533          	xor	x10,x10,x14
aaaaf000:	00957533          	and	x10,x10,x9
aaaaf004:	40a00533          	neg	x10,x10
aaaaf008:	00175713          	srli	x14,x14,0x1
aaaaf00c:	00857533          	and	x10,x10,x8
aaaaf010:	00e54533          	xor	x10,x10,x14
aaaaf014:	01051513          	slli	x10,x10,0x10
aaaaf018:	01055513          	srli	x10,x10,0x10
aaaaf01c:	00a5c733          	xor	x14,x11,x10
aaaaf020:	00977733          	and	x14,x14,x9
aaaaf024:	40e00733          	neg	x14,x14
aaaaf028:	00877733          	and	x14,x14,x8
aaaaf02c:	00155513          	srli	x10,x10,0x1
aaaaf030:	00a74733          	xor	x14,x14,x10
aaaaf034:	01071713          	slli	x14,x14,0x10
aaaaf038:	01075713          	srli	x14,x14,0x10
aaaaf03c:	00e7c7b3          	xor	x15,x15,x14
aaaaf040:	0097f7b3          	and	x15,x15,x9
aaaaf044:	40f007b3          	neg	x15,x15
aaaaf048:	0087f7b3          	and	x15,x15,x8
aaaaf04c:	00175713          	srli	x14,x14,0x1
aaaaf050:	00e7c7b3          	xor	x15,x15,x14
aaaaf054:	01079793          	slli	x15,x15,0x10
aaaaf058:	04011303          	lh	x6,64(x2)
aaaaf05c:	04412e83          	lw	x29,68(x2)
aaaaf060:	05412603          	lw	x12,84(x2)
aaaaf064:	05812683          	lw	x13,88(x2)
aaaaf068:	05c12803          	lw	x16,92(x2)
aaaaf06c:	07812883          	lw	x17,120(x2)
aaaaf070:	07c11e03          	lh	x28,124(x2)
aaaaf074:	0107d793          	srli	x15,x15,0x10
aaaaf078:	50990663          	beq	x18,x9,aaaaf584 <main+0x15a8>
aaaaf07c:	00078713          	mv	x14,x15
aaaaf080:	0240006f          	j	aaaaf0a4 <main+0x10c8>
aaaaf084:	04011303          	lh	x6,64(x2)
aaaaf088:	04412e83          	lw	x29,68(x2)
aaaaf08c:	05412603          	lw	x12,84(x2)
aaaaf090:	05812683          	lw	x13,88(x2)
aaaaf094:	05c12803          	lw	x16,92(x2)
aaaaf098:	07615703          	lhu	x14,118(x2)
aaaaf09c:	07812883          	lw	x17,120(x2)
aaaaf0a0:	07c11e03          	lh	x28,124(x2)
aaaaf0a4:	00100593          	li	x11,1
aaaaf0a8:	00098513          	mv	x10,x19
aaaaf0ac:	04611023          	sh	x6,64(x2)
aaaaf0b0:	05d12223          	sw	x29,68(x2)
aaaaf0b4:	04c12a23          	sw	x12,84(x2)
aaaaf0b8:	04d12c23          	sw	x13,88(x2)
aaaaf0bc:	05012e23          	sw	x16,92(x2)
aaaaf0c0:	06f11a23          	sh	x15,116(x2)
aaaaf0c4:	06e11b23          	sh	x14,118(x2)
aaaaf0c8:	07112c23          	sw	x17,120(x2)
aaaaf0cc:	07c11e23          	sh	x28,124(x2)
aaaaf0d0:	ffffe097          	auipc	x1,0xffffe
aaaaf0d4:	38c080e7          	jalr	908(x1) # aaaad45c <core_bench_list>
aaaaf0d8:	07415783          	lhu	x15,116(x2)
aaaaf0dc:	0ff57593          	zext.b	x11,x10
aaaaf0e0:	0015d713          	srli	x14,x11,0x1
aaaaf0e4:	00f5c6b3          	xor	x13,x11,x15
aaaaf0e8:	0016f693          	andi	x13,x13,1
aaaaf0ec:	40d006b3          	neg	x13,x13
aaaaf0f0:	0017d793          	srli	x15,x15,0x1
aaaaf0f4:	0086f6b3          	and	x13,x13,x8
aaaaf0f8:	00f6c6b3          	xor	x13,x13,x15
aaaaf0fc:	01069693          	slli	x13,x13,0x10
aaaaf100:	0106d693          	srli	x13,x13,0x10
aaaaf104:	00d74733          	xor	x14,x14,x13
aaaaf108:	00177713          	andi	x14,x14,1
aaaaf10c:	40e00733          	neg	x14,x14
aaaaf110:	0016d693          	srli	x13,x13,0x1
aaaaf114:	00877733          	and	x14,x14,x8
aaaaf118:	00d74733          	xor	x14,x14,x13
aaaaf11c:	01071713          	slli	x14,x14,0x10
aaaaf120:	0025d793          	srli	x15,x11,0x2
aaaaf124:	01075713          	srli	x14,x14,0x10
aaaaf128:	00e7c7b3          	xor	x15,x15,x14
aaaaf12c:	0017f793          	andi	x15,x15,1
aaaaf130:	40f007b3          	neg	x15,x15
aaaaf134:	00175713          	srli	x14,x14,0x1
aaaaf138:	0087f7b3          	and	x15,x15,x8
aaaaf13c:	00e7c7b3          	xor	x15,x15,x14
aaaaf140:	01079793          	slli	x15,x15,0x10
aaaaf144:	00050813          	mv	x16,x10
aaaaf148:	0107d793          	srli	x15,x15,0x10
aaaaf14c:	0035d513          	srli	x10,x11,0x3
aaaaf150:	00f54533          	xor	x10,x10,x15
aaaaf154:	00157513          	andi	x10,x10,1
aaaaf158:	40a00533          	neg	x10,x10
aaaaf15c:	0017d793          	srli	x15,x15,0x1
aaaaf160:	00857533          	and	x10,x10,x8
aaaaf164:	00f54533          	xor	x10,x10,x15
aaaaf168:	01051513          	slli	x10,x10,0x10
aaaaf16c:	0045d613          	srli	x12,x11,0x4
aaaaf170:	01055513          	srli	x10,x10,0x10
aaaaf174:	00a64633          	xor	x12,x12,x10
aaaaf178:	00167613          	andi	x12,x12,1
aaaaf17c:	40c00633          	neg	x12,x12
aaaaf180:	00155513          	srli	x10,x10,0x1
aaaaf184:	00867633          	and	x12,x12,x8
aaaaf188:	00a64633          	xor	x12,x12,x10
aaaaf18c:	01061613          	slli	x12,x12,0x10
aaaaf190:	0055d693          	srli	x13,x11,0x5
aaaaf194:	01065613          	srli	x12,x12,0x10
aaaaf198:	00c6c6b3          	xor	x13,x13,x12
aaaaf19c:	0016f693          	andi	x13,x13,1
aaaaf1a0:	40d006b3          	neg	x13,x13
aaaaf1a4:	00165613          	srli	x12,x12,0x1
aaaaf1a8:	0086f6b3          	and	x13,x13,x8
aaaaf1ac:	00c6c6b3          	xor	x13,x13,x12
aaaaf1b0:	01069693          	slli	x13,x13,0x10
aaaaf1b4:	0065d713          	srli	x14,x11,0x6
aaaaf1b8:	0106d693          	srli	x13,x13,0x10
aaaaf1bc:	00d74733          	xor	x14,x14,x13
aaaaf1c0:	00177713          	andi	x14,x14,1
aaaaf1c4:	40e00733          	neg	x14,x14
aaaaf1c8:	0016d693          	srli	x13,x13,0x1
aaaaf1cc:	00877733          	and	x14,x14,x8
aaaaf1d0:	00d74733          	xor	x14,x14,x13
aaaaf1d4:	01071713          	slli	x14,x14,0x10
aaaaf1d8:	01075713          	srli	x14,x14,0x10
aaaaf1dc:	0075d593          	srli	x11,x11,0x7
aaaaf1e0:	00e5c5b3          	xor	x11,x11,x14
aaaaf1e4:	0015f593          	andi	x11,x11,1
aaaaf1e8:	40b005b3          	neg	x11,x11
aaaaf1ec:	00175713          	srli	x14,x14,0x1
aaaaf1f0:	0085f5b3          	and	x11,x11,x8
aaaaf1f4:	00e5c5b3          	xor	x11,x11,x14
aaaaf1f8:	00885793          	srli	x15,x16,0x8
aaaaf1fc:	01059593          	slli	x11,x11,0x10
aaaaf200:	0ff7f793          	zext.b	x15,x15
aaaaf204:	0105d593          	srli	x11,x11,0x10
aaaaf208:	0047d813          	srli	x16,x15,0x4
aaaaf20c:	0077d613          	srli	x12,x15,0x7
aaaaf210:	0027de13          	srli	x28,x15,0x2
aaaaf214:	0067d713          	srli	x14,x15,0x6
aaaaf218:	0017d313          	srli	x6,x15,0x1
aaaaf21c:	0037d893          	srli	x17,x15,0x3
aaaaf220:	0057d693          	srli	x13,x15,0x5
aaaaf224:	00b7c7b3          	xor	x15,x15,x11
aaaaf228:	0017f793          	andi	x15,x15,1
aaaaf22c:	40f007b3          	neg	x15,x15
aaaaf230:	0015d593          	srli	x11,x11,0x1
aaaaf234:	0087f7b3          	and	x15,x15,x8
aaaaf238:	00b7c7b3          	xor	x15,x15,x11
aaaaf23c:	01079793          	slli	x15,x15,0x10
aaaaf240:	0107d793          	srli	x15,x15,0x10
aaaaf244:	00f34333          	xor	x6,x6,x15
aaaaf248:	00137313          	andi	x6,x6,1
aaaaf24c:	40600333          	neg	x6,x6
aaaaf250:	0017d793          	srli	x15,x15,0x1
aaaaf254:	00837333          	and	x6,x6,x8
aaaaf258:	00f34333          	xor	x6,x6,x15
aaaaf25c:	01031313          	slli	x6,x6,0x10
aaaaf260:	01035313          	srli	x6,x6,0x10
aaaaf264:	006e47b3          	xor	x15,x28,x6
aaaaf268:	0017f793          	andi	x15,x15,1
aaaaf26c:	40f007b3          	neg	x15,x15
aaaaf270:	00135313          	srli	x6,x6,0x1
aaaaf274:	0087f7b3          	and	x15,x15,x8
aaaaf278:	0067c7b3          	xor	x15,x15,x6
aaaaf27c:	01079793          	slli	x15,x15,0x10
aaaaf280:	0107d793          	srli	x15,x15,0x10
aaaaf284:	00f8c8b3          	xor	x17,x17,x15
aaaaf288:	0018f893          	andi	x17,x17,1
aaaaf28c:	411008b3          	neg	x17,x17
aaaaf290:	0017d793          	srli	x15,x15,0x1
aaaaf294:	0088f8b3          	and	x17,x17,x8
aaaaf298:	00f8c8b3          	xor	x17,x17,x15
aaaaf29c:	01089893          	slli	x17,x17,0x10
aaaaf2a0:	0108d893          	srli	x17,x17,0x10
aaaaf2a4:	011847b3          	xor	x15,x16,x17
aaaaf2a8:	0017f793          	andi	x15,x15,1
aaaaf2ac:	40f007b3          	neg	x15,x15
aaaaf2b0:	0018d893          	srli	x17,x17,0x1
aaaaf2b4:	0087f7b3          	and	x15,x15,x8
aaaaf2b8:	0117c7b3          	xor	x15,x15,x17
aaaaf2bc:	01079793          	slli	x15,x15,0x10
aaaaf2c0:	0107d793          	srli	x15,x15,0x10
aaaaf2c4:	00f6c6b3          	xor	x13,x13,x15
aaaaf2c8:	0016f693          	andi	x13,x13,1
aaaaf2cc:	40d006b3          	neg	x13,x13
aaaaf2d0:	0017d793          	srli	x15,x15,0x1
aaaaf2d4:	0086f6b3          	and	x13,x13,x8
aaaaf2d8:	00f6c6b3          	xor	x13,x13,x15
aaaaf2dc:	01069693          	slli	x13,x13,0x10
aaaaf2e0:	0106d693          	srli	x13,x13,0x10
aaaaf2e4:	00d747b3          	xor	x15,x14,x13
aaaaf2e8:	0017f793          	andi	x15,x15,1
aaaaf2ec:	40f007b3          	neg	x15,x15
aaaaf2f0:	0016d693          	srli	x13,x13,0x1
aaaaf2f4:	0087f7b3          	and	x15,x15,x8
aaaaf2f8:	00d7c7b3          	xor	x15,x15,x13
aaaaf2fc:	01079793          	slli	x15,x15,0x10
aaaaf300:	0107d793          	srli	x15,x15,0x10
aaaaf304:	00f64733          	xor	x14,x12,x15
aaaaf308:	00177713          	andi	x14,x14,1
aaaaf30c:	40e00733          	neg	x14,x14
aaaaf310:	00877733          	and	x14,x14,x8
aaaaf314:	0017d793          	srli	x15,x15,0x1
aaaaf318:	00f747b3          	xor	x15,x14,x15
aaaaf31c:	fff00593          	li	x11,-1
aaaaf320:	00098513          	mv	x10,x19
aaaaf324:	06f11a23          	sh	x15,116(x2)
aaaaf328:	ffffe097          	auipc	x1,0xffffe
aaaaf32c:	134080e7          	jalr	308(x1) # aaaad45c <core_bench_list>
aaaaf330:	07415783          	lhu	x15,116(x2)
aaaaf334:	0ff57893          	zext.b	x17,x10
aaaaf338:	0028d713          	srli	x14,x17,0x2
aaaaf33c:	00f8c6b3          	xor	x13,x17,x15
aaaaf340:	0016f693          	andi	x13,x13,1
aaaaf344:	40d006b3          	neg	x13,x13
aaaaf348:	0017d793          	srli	x15,x15,0x1
aaaaf34c:	0086f6b3          	and	x13,x13,x8
aaaaf350:	00f6c6b3          	xor	x13,x13,x15
aaaaf354:	01069693          	slli	x13,x13,0x10
aaaaf358:	0106d693          	srli	x13,x13,0x10
aaaaf35c:	0018d793          	srli	x15,x17,0x1
aaaaf360:	00d7c7b3          	xor	x15,x15,x13
aaaaf364:	0017f793          	andi	x15,x15,1
aaaaf368:	40f007b3          	neg	x15,x15
aaaaf36c:	0016d693          	srli	x13,x13,0x1
aaaaf370:	0087f7b3          	and	x15,x15,x8
aaaaf374:	00d7c7b3          	xor	x15,x15,x13
aaaaf378:	01079793          	slli	x15,x15,0x10
aaaaf37c:	0107d793          	srli	x15,x15,0x10
aaaaf380:	00f74733          	xor	x14,x14,x15
aaaaf384:	00177713          	andi	x14,x14,1
aaaaf388:	40e00733          	neg	x14,x14
aaaaf38c:	0017d793          	srli	x15,x15,0x1
aaaaf390:	00877733          	and	x14,x14,x8
aaaaf394:	00f74733          	xor	x14,x14,x15
aaaaf398:	01071713          	slli	x14,x14,0x10
aaaaf39c:	0038d593          	srli	x11,x17,0x3
aaaaf3a0:	01075713          	srli	x14,x14,0x10
aaaaf3a4:	00e5c5b3          	xor	x11,x11,x14
aaaaf3a8:	0015f593          	andi	x11,x11,1
aaaaf3ac:	40b005b3          	neg	x11,x11
aaaaf3b0:	00175713          	srli	x14,x14,0x1
aaaaf3b4:	0085f5b3          	and	x11,x11,x8
aaaaf3b8:	00e5c5b3          	xor	x11,x11,x14
aaaaf3bc:	01059593          	slli	x11,x11,0x10
aaaaf3c0:	0048d613          	srli	x12,x17,0x4
aaaaf3c4:	0105d593          	srli	x11,x11,0x10
aaaaf3c8:	00b64633          	xor	x12,x12,x11
aaaaf3cc:	00167613          	andi	x12,x12,1
aaaaf3d0:	40c00633          	neg	x12,x12
aaaaf3d4:	0015d593          	srli	x11,x11,0x1
aaaaf3d8:	00867633          	and	x12,x12,x8
aaaaf3dc:	00b64633          	xor	x12,x12,x11
aaaaf3e0:	01061613          	slli	x12,x12,0x10
aaaaf3e4:	0058d693          	srli	x13,x17,0x5
aaaaf3e8:	01065613          	srli	x12,x12,0x10
aaaaf3ec:	00c6c6b3          	xor	x13,x13,x12
aaaaf3f0:	0016f693          	andi	x13,x13,1
aaaaf3f4:	40d006b3          	neg	x13,x13
aaaaf3f8:	00165613          	srli	x12,x12,0x1
aaaaf3fc:	0086f6b3          	and	x13,x13,x8
aaaaf400:	00c6c6b3          	xor	x13,x13,x12
aaaaf404:	01069693          	slli	x13,x13,0x10
aaaaf408:	0068d793          	srli	x15,x17,0x6
aaaaf40c:	0106d693          	srli	x13,x13,0x10
aaaaf410:	00d7c7b3          	xor	x15,x15,x13
aaaaf414:	0017f793          	andi	x15,x15,1
aaaaf418:	40f007b3          	neg	x15,x15
aaaaf41c:	0016d693          	srli	x13,x13,0x1
aaaaf420:	0087f7b3          	and	x15,x15,x8
aaaaf424:	00d7c7b3          	xor	x15,x15,x13
aaaaf428:	01079793          	slli	x15,x15,0x10
aaaaf42c:	0107d793          	srli	x15,x15,0x10
aaaaf430:	0078d893          	srli	x17,x17,0x7
aaaaf434:	00f8c8b3          	xor	x17,x17,x15
aaaaf438:	0018f893          	andi	x17,x17,1
aaaaf43c:	411008b3          	neg	x17,x17
aaaaf440:	0017d793          	srli	x15,x15,0x1
aaaaf444:	0088f8b3          	and	x17,x17,x8
aaaaf448:	00f8c8b3          	xor	x17,x17,x15
aaaaf44c:	00855713          	srli	x14,x10,0x8
aaaaf450:	01089893          	slli	x17,x17,0x10
aaaaf454:	0ff77713          	zext.b	x14,x14
aaaaf458:	0108d893          	srli	x17,x17,0x10
aaaaf45c:	00175813          	srli	x16,x14,0x1
aaaaf460:	00275313          	srli	x6,x14,0x2
aaaaf464:	00375513          	srli	x10,x14,0x3
aaaaf468:	00475593          	srli	x11,x14,0x4
aaaaf46c:	00575613          	srli	x12,x14,0x5
aaaaf470:	00675693          	srli	x13,x14,0x6
aaaaf474:	00775793          	srli	x15,x14,0x7
aaaaf478:	01174733          	xor	x14,x14,x17
aaaaf47c:	00177713          	andi	x14,x14,1
aaaaf480:	40e00733          	neg	x14,x14
aaaaf484:	00877733          	and	x14,x14,x8
aaaaf488:	0018d893          	srli	x17,x17,0x1
aaaaf48c:	01174733          	xor	x14,x14,x17
aaaaf490:	01071713          	slli	x14,x14,0x10
aaaaf494:	01075713          	srli	x14,x14,0x10
aaaaf498:	00e84833          	xor	x16,x16,x14
aaaaf49c:	00187813          	andi	x16,x16,1
aaaaf4a0:	41000833          	neg	x16,x16
aaaaf4a4:	00175713          	srli	x14,x14,0x1
aaaaf4a8:	00887833          	and	x16,x16,x8
aaaaf4ac:	00e84833          	xor	x16,x16,x14
aaaaf4b0:	01081813          	slli	x16,x16,0x10
aaaaf4b4:	01085813          	srli	x16,x16,0x10
aaaaf4b8:	01034733          	xor	x14,x6,x16
aaaaf4bc:	00177713          	andi	x14,x14,1
aaaaf4c0:	40e00733          	neg	x14,x14
aaaaf4c4:	00877733          	and	x14,x14,x8
aaaaf4c8:	00185813          	srli	x16,x16,0x1
aaaaf4cc:	01074733          	xor	x14,x14,x16
aaaaf4d0:	01071713          	slli	x14,x14,0x10
aaaaf4d4:	01075713          	srli	x14,x14,0x10
aaaaf4d8:	00e54533          	xor	x10,x10,x14
aaaaf4dc:	00157513          	andi	x10,x10,1
aaaaf4e0:	40a00533          	neg	x10,x10
aaaaf4e4:	00175713          	srli	x14,x14,0x1
aaaaf4e8:	00857533          	and	x10,x10,x8
aaaaf4ec:	00e54533          	xor	x10,x10,x14
aaaaf4f0:	01051513          	slli	x10,x10,0x10
aaaaf4f4:	01055513          	srli	x10,x10,0x10
aaaaf4f8:	00a5c733          	xor	x14,x11,x10
aaaaf4fc:	00177713          	andi	x14,x14,1
aaaaf500:	40e00733          	neg	x14,x14
aaaaf504:	00877733          	and	x14,x14,x8
aaaaf508:	00155513          	srli	x10,x10,0x1
aaaaf50c:	00a74733          	xor	x14,x14,x10
aaaaf510:	01071713          	slli	x14,x14,0x10
aaaaf514:	01075713          	srli	x14,x14,0x10
aaaaf518:	00e64633          	xor	x12,x12,x14
aaaaf51c:	00167613          	andi	x12,x12,1
aaaaf520:	40c00633          	neg	x12,x12
aaaaf524:	00175713          	srli	x14,x14,0x1
aaaaf528:	00867633          	and	x12,x12,x8
aaaaf52c:	00e64633          	xor	x12,x12,x14
aaaaf530:	01061613          	slli	x12,x12,0x10
aaaaf534:	01065613          	srli	x12,x12,0x10
aaaaf538:	00c6c733          	xor	x14,x13,x12
aaaaf53c:	00177713          	andi	x14,x14,1
aaaaf540:	40e00733          	neg	x14,x14
aaaaf544:	00877733          	and	x14,x14,x8
aaaaf548:	00165613          	srli	x12,x12,0x1
aaaaf54c:	00c74733          	xor	x14,x14,x12
aaaaf550:	01071713          	slli	x14,x14,0x10
aaaaf554:	01075713          	srli	x14,x14,0x10
aaaaf558:	00e7c7b3          	xor	x15,x15,x14
aaaaf55c:	0017f793          	andi	x15,x15,1
aaaaf560:	40f007b3          	neg	x15,x15
aaaaf564:	00175713          	srli	x14,x14,0x1
aaaaf568:	0087f7b3          	and	x15,x15,x8
aaaaf56c:	00e7c7b3          	xor	x15,x15,x14
aaaaf570:	02012703          	lw	x14,32(x2)
aaaaf574:	01079793          	slli	x15,x15,0x10
aaaaf578:	00148493          	addi	x9,x9,1
aaaaf57c:	0107d793          	srli	x15,x15,0x10
aaaaf580:	b09712e3          	bne	x14,x9,aaaaf084 <main+0x10a8>
aaaaf584:	00402013          	slti	x0,x0,4
aaaaf588:	00202013          	slti	x0,x0,2
aaaaf58c:	0bc12083          	lw	x1,188(x2)
aaaaf590:	0b812403          	lw	x8,184(x2)
aaaaf594:	0b412483          	lw	x9,180(x2)
aaaaf598:	0b012903          	lw	x18,176(x2)
aaaaf59c:	0ac12983          	lw	x19,172(x2)
aaaaf5a0:	0a812a03          	lw	x20,168(x2)
aaaaf5a4:	0a412a83          	lw	x21,164(x2)
aaaaf5a8:	0a012b03          	lw	x22,160(x2)
aaaaf5ac:	09c12b83          	lw	x23,156(x2)
aaaaf5b0:	09812c03          	lw	x24,152(x2)
aaaaf5b4:	09412c83          	lw	x25,148(x2)
aaaaf5b8:	09012d03          	lw	x26,144(x2)
aaaaf5bc:	08c12d83          	lw	x27,140(x2)
aaaaf5c0:	00000513          	li	x10,0
aaaaf5c4:	0c010113          	addi	x2,x2,192
aaaaf5c8:	00008067          	ret
aaaaf5cc:	00000793          	li	x15,0
aaaaf5d0:	02f12e23          	sw	x15,60(x2)
aaaaf5d4:	06600493          	li	x9,102
aaaaf5d8:	afdfe06f          	j	aaaae0d4 <main+0xf8>
aaaaf5dc:	00002797          	auipc	x15,0x2
aaaaf5e0:	a2478793          	addi	x15,x15,-1500 # aaab1000 <static_memblk>
aaaaf5e4:	00f12e23          	sw	x15,28(x2)
aaaaf5e8:	04f12423          	sw	x15,72(x2)
aaaaf5ec:	03c11783          	lh	x15,60(x2)
aaaaf5f0:	05012a03          	lw	x20,80(x2)
aaaaf5f4:	7d000d93          	li	x27,2000
aaaaf5f8:	00f12823          	sw	x15,16(x2)
aaaaf5fc:	7cf00c93          	li	x25,1999
aaaaf600:	01400593          	li	x11,20
aaaaf604:	000d8513          	mv	x10,x27
aaaaf608:	fffff097          	auipc	x1,0xfffff
aaaaf60c:	928080e7          	jalr	-1752(x1) # aaaadf30 <__hidden___udivsi3>
aaaaf610:	04812903          	lw	x18,72(x2)
aaaaf614:	ffe50513          	addi	x10,x10,-2
aaaaf618:	00351893          	slli	x17,x10,0x3
aaaaf61c:	011908b3          	add	x17,x18,x17
aaaaf620:	ffff87b7          	lui	x15,0xffff8
aaaaf624:	00092023          	sw	x0,0(x18)
aaaaf628:	01192223          	sw	x17,4(x18)
aaaaf62c:	08078793          	addi	x15,x15,128 # ffff8080 <_stack_top+0xfff8080>
aaaaf630:	00f89023          	sh	x15,0(x17)
aaaaf634:	00251e13          	slli	x28,x10,0x2
aaaaf638:	00089123          	sh	x0,2(x17)
aaaaf63c:	01090713          	addi	x14,x18,16
aaaaf640:	01c88e33          	add	x28,x17,x28
aaaaf644:	00488793          	addi	x15,x17,4
aaaaf648:	00890b13          	addi	x22,x18,8
aaaaf64c:	ffff8637          	lui	x12,0xffff8
aaaaf650:	71177c63          	bgeu	x14,x17,aaaafd68 <main+0x1d8c>
aaaaf654:	00888693          	addi	x13,x17,8
aaaaf658:	71c6f863          	bgeu	x13,x28,aaaafd68 <main+0x1d8c>
aaaaf65c:	00f92623          	sw	x15,12(x18)
aaaaf660:	00092423          	sw	x0,8(x18)
aaaaf664:	01692023          	sw	x22,0(x18)
aaaaf668:	fff64793          	not	x15,x12
aaaaf66c:	fff00613          	li	x12,-1
aaaaf670:	00f89323          	sh	x15,6(x17)
aaaaf674:	00c89223          	sh	x12,4(x17)
aaaaf678:	ffff8eb7          	lui	x29,0xffff8
aaaaf67c:	00870593          	addi	x11,x14,8
aaaaf680:	01015f03          	lhu	x30,16(x2)
aaaaf684:	fffece93          	not	x29,x29
aaaaf688:	00000613          	li	x12,0
aaaaf68c:	0715f063          	bgeu	x11,x17,aaaaf6ec <main+0x1710>
aaaaf690:	00468313          	addi	x6,x13,4
aaaaf694:	7dc37063          	bgeu	x6,x28,aaaafe54 <main+0x1e78>
aaaaf698:	01061f93          	slli	x31,x12,0x10
aaaaf69c:	010fdf93          	srli	x31,x31,0x10
aaaaf6a0:	01efc7b3          	xor	x15,x31,x30
aaaaf6a4:	00379793          	slli	x15,x15,0x3
aaaaf6a8:	007fff93          	andi	x31,x31,7
aaaaf6ac:	0787f793          	andi	x15,x15,120
aaaaf6b0:	01672023          	sw	x22,0(x14)
aaaaf6b4:	01f7e7b3          	or	x15,x15,x31
aaaaf6b8:	00e92023          	sw	x14,0(x18)
aaaaf6bc:	00879f93          	slli	x31,x15,0x8
aaaaf6c0:	00d72223          	sw	x13,4(x14)
aaaaf6c4:	01f787b3          	add	x15,x15,x31
aaaaf6c8:	01d69123          	sh	x29,2(x13)
aaaaf6cc:	00160613          	addi	x12,x12,1 # ffff8001 <_stack_top+0xfff8001>
aaaaf6d0:	00f69023          	sh	x15,0(x13)
aaaaf6d4:	64a60e63          	beq	x12,x10,aaaafd30 <main+0x1d54>
aaaaf6d8:	00070b13          	mv	x22,x14
aaaaf6dc:	00058713          	mv	x14,x11
aaaaf6e0:	00870593          	addi	x11,x14,8
aaaaf6e4:	00030693          	mv	x13,x6
aaaaf6e8:	fb15e4e3          	bltu	x11,x17,aaaaf690 <main+0x16b4>
aaaaf6ec:	000b2b83          	lw	x23,0(x22)
aaaaf6f0:	080b8063          	beqz	x23,aaaaf770 <main+0x1794>
aaaaf6f4:	00500593          	li	x11,5
aaaaf6f8:	fffff097          	auipc	x1,0xfffff
aaaaf6fc:	838080e7          	jalr	-1992(x1) # aaaadf30 <__hidden___udivsi3>
aaaaf700:	000048b7          	lui	x17,0x4
aaaaf704:	fff88893          	addi	x17,x17,-1 # 3fff <_start-0xaaaa6001>
aaaaf708:	20000793          	li	x15,512
aaaaf70c:	00100713          	li	x14,1
aaaaf710:	0280006f          	j	aaaaf738 <main+0x175c>
aaaaf714:	000ba683          	lw	x13,0(x23)
aaaaf718:	10078793          	addi	x15,x15,256
aaaaf71c:	00e59123          	sh	x14,2(x11)
aaaaf720:	01079793          	slli	x15,x15,0x10
aaaaf724:	0107d793          	srli	x15,x15,0x10
aaaaf728:	00170713          	addi	x14,x14,1
aaaaf72c:	04068263          	beqz	x13,aaaaf770 <main+0x1794>
aaaaf730:	000b8b13          	mv	x22,x23
aaaaf734:	00068b93          	mv	x23,x13
aaaaf738:	004b2583          	lw	x11,4(x22)
aaaaf73c:	fca76ce3          	bltu	x14,x10,aaaaf714 <main+0x1738>
aaaaf740:	01012683          	lw	x13,16(x2)
aaaaf744:	7007f613          	andi	x12,x15,1792
aaaaf748:	10078793          	addi	x15,x15,256
aaaaf74c:	00e6c6b3          	xor	x13,x13,x14
aaaaf750:	00d66633          	or	x12,x12,x13
aaaaf754:	000ba683          	lw	x13,0(x23)
aaaaf758:	01167633          	and	x12,x12,x17
aaaaf75c:	01079793          	slli	x15,x15,0x10
aaaaf760:	00c59123          	sh	x12,2(x11)
aaaaf764:	0107d793          	srli	x15,x15,0x10
aaaaf768:	00170713          	addi	x14,x14,1
aaaaf76c:	fc0692e3          	bnez	x13,aaaaf730 <main+0x1754>
aaaaf770:	00100893          	li	x17,1
aaaaf774:	00088e13          	mv	x28,x17
aaaaf778:	00000513          	li	x10,0
aaaaf77c:	00000693          	li	x13,0
aaaaf780:	00000313          	li	x6,0
aaaaf784:	00130313          	addi	x6,x6,1
aaaaf788:	00090793          	mv	x15,x18
aaaaf78c:	00000713          	li	x14,0
aaaaf790:	01175863          	bge	x14,x17,aaaaf7a0 <main+0x17c4>
aaaaf794:	0007a783          	lw	x15,0(x15)
aaaaf798:	00170713          	addi	x14,x14,1
aaaaf79c:	fe079ae3          	bnez	x15,aaaaf790 <main+0x17b4>
aaaaf7a0:	00088613          	mv	x12,x17
aaaaf7a4:	06e05a63          	blez	x14,aaaaf818 <main+0x183c>
aaaaf7a8:	0a060e63          	beqz	x12,aaaaf864 <main+0x1888>
aaaaf7ac:	10078463          	beqz	x15,aaaaf8b4 <main+0x18d8>
aaaaf7b0:	00492283          	lw	x5,4(x18)
aaaaf7b4:	0047ae83          	lw	x29,4(x15)
aaaaf7b8:	00029583          	lh	x11,0(x5)
aaaaf7bc:	002e9f03          	lh	x30,2(x29) # ffff8002 <_stack_top+0xfff8002>
aaaaf7c0:	00229f83          	lh	x31,2(x5)
aaaaf7c4:	01059393          	slli	x7,x11,0x10
aaaaf7c8:	0103d393          	srli	x7,x7,0x10
aaaaf7cc:	f005f593          	andi	x11,x11,-256
aaaaf7d0:	0083d393          	srli	x7,x7,0x8
aaaaf7d4:	0075e5b3          	or	x11,x11,x7
aaaaf7d8:	00b29023          	sh	x11,0(x5)
aaaaf7dc:	000e9583          	lh	x11,0(x29)
aaaaf7e0:	01059293          	slli	x5,x11,0x10
aaaaf7e4:	0102d293          	srli	x5,x5,0x10
aaaaf7e8:	f005f593          	andi	x11,x11,-256
aaaaf7ec:	0082d293          	srli	x5,x5,0x8
aaaaf7f0:	0055e5b3          	or	x11,x11,x5
aaaaf7f4:	00be9023          	sh	x11,0(x29)
aaaaf7f8:	0bff5e63          	bge	x30,x31,aaaaf8b4 <main+0x18d8>
aaaaf7fc:	00078593          	mv	x11,x15
aaaaf800:	0007a783          	lw	x15,0(x15)
aaaaf804:	fff60613          	addi	x12,x12,-1
aaaaf808:	0a068063          	beqz	x13,aaaaf8a8 <main+0x18cc>
aaaaf80c:	00b6a023          	sw	x11,0(x13)
aaaaf810:	00058693          	mv	x13,x11
aaaaf814:	f8e04ae3          	bgtz	x14,aaaaf7a8 <main+0x17cc>
aaaaf818:	50c05863          	blez	x12,aaaafd28 <main+0x1d4c>
aaaaf81c:	0a078463          	beqz	x15,aaaaf8c4 <main+0x18e8>
aaaaf820:	f80718e3          	bnez	x14,aaaaf7b0 <main+0x17d4>
aaaaf824:	0007a703          	lw	x14,0(x15)
aaaaf828:	fff60613          	addi	x12,x12,-1
aaaaf82c:	02068263          	beqz	x13,aaaaf850 <main+0x1874>
aaaaf830:	00f6a023          	sw	x15,0(x13)
aaaaf834:	02060263          	beqz	x12,aaaaf858 <main+0x187c>
aaaaf838:	00078693          	mv	x13,x15
aaaaf83c:	08070463          	beqz	x14,aaaaf8c4 <main+0x18e8>
aaaaf840:	00070793          	mv	x15,x14
aaaaf844:	0007a703          	lw	x14,0(x15)
aaaaf848:	fff60613          	addi	x12,x12,-1
aaaaf84c:	fe0692e3          	bnez	x13,aaaaf830 <main+0x1854>
aaaaf850:	00078513          	mv	x10,x15
aaaaf854:	fe0612e3          	bnez	x12,aaaaf838 <main+0x185c>
aaaaf858:	00078913          	mv	x18,x15
aaaaf85c:	00070793          	mv	x15,x14
aaaaf860:	0340006f          	j	aaaaf894 <main+0x18b8>
aaaaf864:	00092603          	lw	x12,0(x18)
aaaaf868:	fff70713          	addi	x14,x14,-1
aaaaf86c:	02068063          	beqz	x13,aaaaf88c <main+0x18b0>
aaaaf870:	0126a023          	sw	x18,0(x13)
aaaaf874:	02070063          	beqz	x14,aaaaf894 <main+0x18b8>
aaaaf878:	00090693          	mv	x13,x18
aaaaf87c:	00060913          	mv	x18,x12
aaaaf880:	00092603          	lw	x12,0(x18)
aaaaf884:	fff70713          	addi	x14,x14,-1
aaaaf888:	fe0694e3          	bnez	x13,aaaaf870 <main+0x1894>
aaaaf88c:	00090513          	mv	x10,x18
aaaaf890:	fe0714e3          	bnez	x14,aaaaf878 <main+0x189c>
aaaaf894:	00090693          	mv	x13,x18
aaaaf898:	02078663          	beqz	x15,aaaaf8c4 <main+0x18e8>
aaaaf89c:	00090693          	mv	x13,x18
aaaaf8a0:	00078913          	mv	x18,x15
aaaaf8a4:	ee1ff06f          	j	aaaaf784 <main+0x17a8>
aaaaf8a8:	00058513          	mv	x10,x11
aaaaf8ac:	00058693          	mv	x13,x11
aaaaf8b0:	f65ff06f          	j	aaaaf814 <main+0x1838>
aaaaf8b4:	00090593          	mv	x11,x18
aaaaf8b8:	fff70713          	addi	x14,x14,-1
aaaaf8bc:	00092903          	lw	x18,0(x18)
aaaaf8c0:	f49ff06f          	j	aaaaf808 <main+0x182c>
aaaaf8c4:	0006a023          	sw	x0,0(x13)
aaaaf8c8:	03c30463          	beq	x6,x28,aaaaf8f0 <main+0x1914>
aaaaf8cc:	00189893          	slli	x17,x17,0x1
aaaaf8d0:	00050c63          	beqz	x10,aaaaf8e8 <main+0x190c>
aaaaf8d4:	00050793          	mv	x15,x10
aaaaf8d8:	00000913          	li	x18,0
aaaaf8dc:	00000513          	li	x10,0
aaaaf8e0:	00000313          	li	x6,0
aaaaf8e4:	fb9ff06f          	j	aaaaf89c <main+0x18c0>
aaaaf8e8:	00002023          	sw	x0,0(x0) # 0 <_start-0xaaaaa000>
aaaaf8ec:	00100073          	ebreak
aaaaf8f0:	06a12023          	sw	x10,96(x2)
aaaaf8f4:	2e0a9263          	bnez	x21,aaaafbd8 <main+0x1bfc>
aaaaf8f8:	01812783          	lw	x15,24(x2)
aaaaf8fc:	00079463          	bnez	x15,aaaaf904 <main+0x1928>
aaaaf900:	811fe06f          	j	aaaae110 <main+0x134>
aaaaf904:	01012783          	lw	x15,16(x2)
aaaaf908:	00700613          	li	x12,7
aaaaf90c:	00000693          	li	x13,0
aaaaf910:	00178713          	addi	x14,x15,1
aaaaf914:	01071713          	slli	x14,x14,0x10
aaaaf918:	01075713          	srli	x14,x14,0x10
aaaaf91c:	00375793          	srli	x15,x14,0x3
aaaaf920:	00777e13          	andi	x28,x14,7
aaaaf924:	00000597          	auipc	x11,0x0
aaaaf928:	78c58593          	addi	x11,x11,1932 # aaab00b0 <floatpat>
aaaaf92c:	00400513          	li	x10,4
aaaaf930:	00100893          	li	x17,1
aaaaf934:	02c00313          	li	x6,44
aaaaf938:	0037f793          	andi	x15,x15,3
aaaaf93c:	08ce0663          	beq	x28,x12,aaaaf9c8 <main+0x19ec>
aaaaf940:	23c56663          	bltu	x10,x28,aaaafb6c <main+0x1b90>
aaaaf944:	ffde0e13          	addi	x28,x28,-3
aaaaf948:	010e1e13          	slli	x28,x28,0x10
aaaaf94c:	010e5e13          	srli	x28,x28,0x10
aaaaf950:	09c8e463          	bltu	x17,x28,aaaaf9d8 <main+0x19fc>
aaaaf954:	00279793          	slli	x15,x15,0x2
aaaaf958:	00f587b3          	add	x15,x11,x15
aaaaf95c:	0007ae83          	lw	x29,0(x15)
aaaaf960:	00170713          	addi	x14,x14,1
aaaaf964:	01071713          	slli	x14,x14,0x10
aaaaf968:	00968f13          	addi	x30,x13,9
aaaaf96c:	01075713          	srli	x14,x14,0x10
aaaaf970:	079f7863          	bgeu	x30,x25,aaaaf9e0 <main+0x1a04>
aaaaf974:	00da0e33          	add	x28,x20,x13
aaaaf978:	001e8793          	addi	x15,x29,1
aaaaf97c:	40fe07b3          	sub	x15,x28,x15
aaaaf980:	0037b793          	sltiu	x15,x15,3
aaaaf984:	3c079463          	bnez	x15,aaaafd4c <main+0x1d70>
aaaaf988:	01cee7b3          	or	x15,x29,x28
aaaaf98c:	0037f793          	andi	x15,x15,3
aaaaf990:	3a079e63          	bnez	x15,aaaafd4c <main+0x1d70>
aaaaf994:	000eaf83          	lw	x31,0(x29)
aaaaf998:	00800793          	li	x15,8
aaaaf99c:	01fe2023          	sw	x31,0(x28)
aaaaf9a0:	004eae83          	lw	x29,4(x29)
aaaaf9a4:	01de2223          	sw	x29,4(x28)
aaaaf9a8:	00fa07b3          	add	x15,x20,x15
aaaaf9ac:	00d787b3          	add	x15,x15,x13
aaaaf9b0:	00678023          	sb	x6,0(x15)
aaaaf9b4:	00777e13          	andi	x28,x14,7
aaaaf9b8:	00375793          	srli	x15,x14,0x3
aaaaf9bc:	000f0693          	mv	x13,x30
aaaaf9c0:	0037f793          	andi	x15,x15,3
aaaaf9c4:	f6ce1ee3          	bne	x28,x12,aaaaf940 <main+0x1964>
aaaaf9c8:	00279793          	slli	x15,x15,0x2
aaaaf9cc:	00f587b3          	add	x15,x11,x15
aaaaf9d0:	0207ae83          	lw	x29,32(x15)
aaaaf9d4:	f8dff06f          	j	aaaaf960 <main+0x1984>
aaaaf9d8:	00568f13          	addi	x30,x13,5
aaaaf9dc:	119f6863          	bltu	x30,x25,aaaafaec <main+0x1b10>
aaaaf9e0:	01b6e463          	bltu	x13,x27,aaaaf9e8 <main+0x1a0c>
aaaaf9e4:	f2cfe06f          	j	aaaae110 <main+0x134>
aaaaf9e8:	00168713          	addi	x14,x13,1
aaaaf9ec:	00070593          	mv	x11,x14
aaaaf9f0:	00edb333          	sltu	x6,x27,x14
aaaaf9f4:	40dd87b3          	sub	x15,x27,x13
aaaaf9f8:	00100513          	li	x10,1
aaaaf9fc:	00ede463          	bltu	x27,x14,aaaafa04 <main+0x1a28>
aaaafa00:	00078513          	mv	x10,x15
aaaafa04:	fff78793          	addi	x15,x15,-1
aaaafa08:	00da0e33          	add	x28,x20,x13
aaaafa0c:	0067b613          	sltiu	x12,x15,6
aaaafa10:	41c008b3          	neg	x17,x28
aaaafa14:	0038f793          	andi	x15,x17,3
aaaafa18:	06061663          	bnez	x12,aaaafa84 <main+0x1aa8>
aaaafa1c:	06031463          	bnez	x6,aaaafa84 <main+0x1aa8>
aaaafa20:	34078063          	beqz	x15,aaaafd60 <main+0x1d84>
aaaafa24:	000e0023          	sb	x0,0(x28)
aaaafa28:	0028f893          	andi	x17,x17,2
aaaafa2c:	02088263          	beqz	x17,aaaafa50 <main+0x1a74>
aaaafa30:	00ea0733          	add	x14,x20,x14
aaaafa34:	00070023          	sb	x0,0(x14)
aaaafa38:	00300713          	li	x14,3
aaaafa3c:	00268593          	addi	x11,x13,2
aaaafa40:	00e79863          	bne	x15,x14,aaaafa50 <main+0x1a74>
aaaafa44:	00ba05b3          	add	x11,x20,x11
aaaafa48:	00058023          	sb	x0,0(x11)
aaaafa4c:	00e685b3          	add	x11,x13,x14
aaaafa50:	40f50533          	sub	x10,x10,x15
aaaafa54:	00f687b3          	add	x15,x13,x15
aaaafa58:	00fa07b3          	add	x15,x20,x15
aaaafa5c:	ffc57613          	andi	x12,x10,-4
aaaafa60:	00f60733          	add	x14,x12,x15
aaaafa64:	0007a023          	sw	x0,0(x15)
aaaafa68:	00478793          	addi	x15,x15,4
aaaafa6c:	fef71ce3          	bne	x14,x15,aaaafa64 <main+0x1a88>
aaaafa70:	00b606b3          	add	x13,x12,x11
aaaafa74:	00a61463          	bne	x12,x10,aaaafa7c <main+0x1aa0>
aaaafa78:	e98fe06f          	j	aaaae110 <main+0x134>
aaaafa7c:	00168713          	addi	x14,x13,1
aaaafa80:	00da0e33          	add	x28,x20,x13
aaaafa84:	000e0023          	sb	x0,0(x28)
aaaafa88:	01b76463          	bltu	x14,x27,aaaafa90 <main+0x1ab4>
aaaafa8c:	e84fe06f          	j	aaaae110 <main+0x134>
aaaafa90:	00ea0733          	add	x14,x20,x14
aaaafa94:	00070023          	sb	x0,0(x14)
aaaafa98:	00268793          	addi	x15,x13,2
aaaafa9c:	01b7e463          	bltu	x15,x27,aaaafaa4 <main+0x1ac8>
aaaafaa0:	e70fe06f          	j	aaaae110 <main+0x134>
aaaafaa4:	00fa07b3          	add	x15,x20,x15
aaaafaa8:	00078023          	sb	x0,0(x15)
aaaafaac:	00368793          	addi	x15,x13,3
aaaafab0:	01b7e463          	bltu	x15,x27,aaaafab8 <main+0x1adc>
aaaafab4:	e5cfe06f          	j	aaaae110 <main+0x134>
aaaafab8:	00fa07b3          	add	x15,x20,x15
aaaafabc:	00078023          	sb	x0,0(x15)
aaaafac0:	00468793          	addi	x15,x13,4
aaaafac4:	01b7e463          	bltu	x15,x27,aaaafacc <main+0x1af0>
aaaafac8:	e48fe06f          	j	aaaae110 <main+0x134>
aaaafacc:	00fa07b3          	add	x15,x20,x15
aaaafad0:	00078023          	sb	x0,0(x15)
aaaafad4:	00568693          	addi	x13,x13,5
aaaafad8:	01b6e463          	bltu	x13,x27,aaaafae0 <main+0x1b04>
aaaafadc:	e34fe06f          	j	aaaae110 <main+0x134>
aaaafae0:	00da06b3          	add	x13,x20,x13
aaaafae4:	00068023          	sb	x0,0(x13)
aaaafae8:	e28fe06f          	j	aaaae110 <main+0x134>
aaaafaec:	00000e17          	auipc	x28,0x0
aaaafaf0:	5c4e0e13          	addi	x28,x28,1476 # aaab00b0 <floatpat>
aaaafaf4:	00279793          	slli	x15,x15,0x2
aaaafaf8:	00fe07b3          	add	x15,x28,x15
aaaafafc:	0307ae83          	lw	x29,48(x15)
aaaafb00:	00170713          	addi	x14,x14,1
aaaafb04:	00da0e33          	add	x28,x20,x13
aaaafb08:	000ec783          	lbu	x15,0(x29)
aaaafb0c:	01071713          	slli	x14,x14,0x10
aaaafb10:	01075713          	srli	x14,x14,0x10
aaaafb14:	00fe0023          	sb	x15,0(x28)
aaaafb18:	00168f93          	addi	x31,x13,1
aaaafb1c:	00400793          	li	x15,4
aaaafb20:	001ec383          	lbu	x7,1(x29)
aaaafb24:	01fa0fb3          	add	x31,x20,x31
aaaafb28:	00400293          	li	x5,4
aaaafb2c:	007f8023          	sb	x7,0(x31)
aaaafb30:	002ecf83          	lbu	x31,2(x29)
aaaafb34:	01fe0123          	sb	x31,2(x28)
aaaafb38:	003ecf83          	lbu	x31,3(x29)
aaaafb3c:	01fe01a3          	sb	x31,3(x28)
aaaafb40:	e65784e3          	beq	x15,x5,aaaaf9a8 <main+0x19cc>
aaaafb44:	004ecf83          	lbu	x31,4(x29)
aaaafb48:	00800793          	li	x15,8
aaaafb4c:	01fe0223          	sb	x31,4(x28)
aaaafb50:	005ecf83          	lbu	x31,5(x29)
aaaafb54:	01fe02a3          	sb	x31,5(x28)
aaaafb58:	006ecf83          	lbu	x31,6(x29)
aaaafb5c:	01fe0323          	sb	x31,6(x28)
aaaafb60:	007ece83          	lbu	x29,7(x29)
aaaafb64:	01de03a3          	sb	x29,7(x28)
aaaafb68:	e41ff06f          	j	aaaaf9a8 <main+0x19cc>
aaaafb6c:	00279793          	slli	x15,x15,0x2
aaaafb70:	00f587b3          	add	x15,x11,x15
aaaafb74:	0107ae83          	lw	x29,16(x15)
aaaafb78:	de9ff06f          	j	aaaaf960 <main+0x1984>
aaaafb7c:	001b0993          	addi	x19,x22,1
aaaafb80:	2a079663          	bnez	x15,aaaafe2c <main+0x1e50>
aaaafb84:	00098593          	mv	x11,x19
aaaafb88:	7d000513          	li	x10,2000
aaaafb8c:	ffffe097          	auipc	x1,0xffffe
aaaafb90:	3a4080e7          	jalr	932(x1) # aaaadf30 <__hidden___udivsi3>
aaaafb94:	00001797          	auipc	x15,0x1
aaaafb98:	46c78793          	addi	x15,x15,1132 # aaab1000 <static_memblk>
aaaafb9c:	00f12e23          	sw	x15,28(x2)
aaaafba0:	00050d93          	mv	x27,x10
aaaafba4:	280b1063          	bnez	x22,aaaafe24 <main+0x1e48>
aaaafba8:	414007b3          	neg	x15,x20
aaaafbac:	01b7f7b3          	and	x15,x15,x27
aaaafbb0:	00001717          	auipc	x14,0x1
aaaafbb4:	45070713          	addi	x14,x14,1104 # aaab1000 <static_memblk>
aaaafbb8:	00f707b3          	add	x15,x14,x15
aaaafbbc:	04f12623          	sw	x15,76(x2)
aaaafbc0:	03c11783          	lh	x15,60(x2)
aaaafbc4:	05012a03          	lw	x20,80(x2)
aaaafbc8:	fffd8c93          	addi	x25,x27,-1
aaaafbcc:	00f12823          	sw	x15,16(x2)
aaaafbd0:	220b1e63          	bnez	x22,aaaafe0c <main+0x1e30>
aaaafbd4:	00012c23          	sw	x0,24(x2)
aaaafbd8:	03e11783          	lh	x15,62(x2)
aaaafbdc:	01012683          	lw	x13,16(x2)
aaaafbe0:	04c12703          	lw	x14,76(x2)
aaaafbe4:	01079793          	slli	x15,x15,0x10
aaaafbe8:	00d7e7b3          	or	x15,x15,x13
aaaafbec:	14079663          	bnez	x15,aaaafd38 <main+0x1d5c>
aaaafbf0:	fff70793          	addi	x15,x14,-1
aaaafbf4:	ffc7f793          	andi	x15,x15,-4
aaaafbf8:	00478793          	addi	x15,x15,4
aaaafbfc:	02f12223          	sw	x15,36(x2)
aaaafc00:	00100793          	li	x15,1
aaaafc04:	00000913          	li	x18,0
aaaafc08:	00090b13          	mv	x22,x18
aaaafc0c:	00190913          	addi	x18,x18,1
aaaafc10:	00090593          	mv	x11,x18
aaaafc14:	00090513          	mv	x10,x18
aaaafc18:	00f12623          	sw	x15,12(x2)
aaaafc1c:	ffffe097          	auipc	x1,0xffffe
aaaafc20:	2e8080e7          	jalr	744(x1) # aaaadf04 <__mulsi3>
aaaafc24:	00351713          	slli	x14,x10,0x3
aaaafc28:	00c12783          	lw	x15,12(x2)
aaaafc2c:	fdb76ee3          	bltu	x14,x27,aaaafc08 <main+0x1c2c>
aaaafc30:	000b0593          	mv	x11,x22
aaaafc34:	000b0513          	mv	x10,x22
aaaafc38:	00f12623          	sw	x15,12(x2)
aaaafc3c:	ffffe097          	auipc	x1,0xffffe
aaaafc40:	2c8080e7          	jalr	712(x1) # aaaadf04 <__mulsi3>
aaaafc44:	02412703          	lw	x14,36(x2)
aaaafc48:	00151793          	slli	x15,x10,0x1
aaaafc4c:	02f12423          	sw	x15,40(x2)
aaaafc50:	00f707b3          	add	x15,x14,x15
aaaafc54:	02f12623          	sw	x15,44(x2)
aaaafc58:	120b0063          	beqz	x22,aaaafd78 <main+0x1d9c>
aaaafc5c:	00078c13          	mv	x24,x15
aaaafc60:	40f70ab3          	sub	x21,x14,x15
aaaafc64:	00c12783          	lw	x15,12(x2)
aaaafc68:	001b1693          	slli	x13,x22,0x1
aaaafc6c:	00d12a23          	sw	x13,20(x2)
aaaafc70:	00100993          	li	x19,1
aaaafc74:	00000b93          	li	x23,0
aaaafc78:	01312623          	sw	x19,12(x2)
aaaafc7c:	000c0d13          	mv	x26,x24
aaaafc80:	00078593          	mv	x11,x15
aaaafc84:	00098513          	mv	x10,x19
aaaafc88:	ffffe097          	auipc	x1,0xffffe
aaaafc8c:	27c080e7          	jalr	636(x1) # aaaadf04 <__mulsi3>
aaaafc90:	41f55613          	srai	x12,x10,0x1f
aaaafc94:	01065613          	srli	x12,x12,0x10
aaaafc98:	00c507b3          	add	x15,x10,x12
aaaafc9c:	01079793          	slli	x15,x15,0x10
aaaafca0:	01099713          	slli	x14,x19,0x10
aaaafca4:	0107d793          	srli	x15,x15,0x10
aaaafca8:	01075713          	srli	x14,x14,0x10
aaaafcac:	40c787b3          	sub	x15,x15,x12
aaaafcb0:	00f70633          	add	x12,x14,x15
aaaafcb4:	01061613          	slli	x12,x12,0x10
aaaafcb8:	01065613          	srli	x12,x12,0x10
aaaafcbc:	00e60733          	add	x14,x12,x14
aaaafcc0:	01aa85b3          	add	x11,x21,x26
aaaafcc4:	00cd1023          	sh	x12,0(x26)
aaaafcc8:	0ff77713          	zext.b	x14,x14
aaaafccc:	00198993          	addi	x19,x19,1
aaaafcd0:	00e59023          	sh	x14,0(x11)
aaaafcd4:	002d0d13          	addi	x26,x26,2
aaaafcd8:	fb2994e3          	bne	x19,x18,aaaafc80 <main+0x1ca4>
aaaafcdc:	00c12703          	lw	x14,12(x2)
aaaafce0:	001b8b93          	addi	x23,x23,1
aaaafce4:	01690933          	add	x18,x18,x22
aaaafce8:	016709b3          	add	x19,x14,x22
aaaafcec:	01412703          	lw	x14,20(x2)
aaaafcf0:	00ec0c33          	add	x24,x24,x14
aaaafcf4:	f96b92e3          	bne	x23,x22,aaaafc78 <main+0x1c9c>
aaaafcf8:	02c12703          	lw	x14,44(x2)
aaaafcfc:	02812783          	lw	x15,40(x2)
aaaafd00:	07612223          	sw	x22,100(x2)
aaaafd04:	06e12623          	sw	x14,108(x2)
aaaafd08:	00f707b3          	add	x15,x14,x15
aaaafd0c:	fff78793          	addi	x15,x15,-1
aaaafd10:	ffc7f793          	andi	x15,x15,-4
aaaafd14:	00478793          	addi	x15,x15,4
aaaafd18:	06f12823          	sw	x15,112(x2)
aaaafd1c:	02412783          	lw	x15,36(x2)
aaaafd20:	06f12423          	sw	x15,104(x2)
aaaafd24:	bd5ff06f          	j	aaaaf8f8 <main+0x191c>
aaaafd28:	00068913          	mv	x18,x13
aaaafd2c:	b69ff06f          	j	aaaaf894 <main+0x18b8>
aaaafd30:	00070b13          	mv	x22,x14
aaaafd34:	9b9ff06f          	j	aaaaf6ec <main+0x1710>
aaaafd38:	fff70713          	addi	x14,x14,-1
aaaafd3c:	ffc77713          	andi	x14,x14,-4
aaaafd40:	00470713          	addi	x14,x14,4
aaaafd44:	02e12223          	sw	x14,36(x2)
aaaafd48:	ebdff06f          	j	aaaafc04 <main+0x1c28>
aaaafd4c:	000ec283          	lbu	x5,0(x29)
aaaafd50:	00168f93          	addi	x31,x13,1
aaaafd54:	00800793          	li	x15,8
aaaafd58:	005e0023          	sb	x5,0(x28)
aaaafd5c:	dc5ff06f          	j	aaaafb20 <main+0x1b44>
aaaafd60:	00068593          	mv	x11,x13
aaaafd64:	cedff06f          	j	aaaafa50 <main+0x1a74>
aaaafd68:	000b0713          	mv	x14,x22
aaaafd6c:	00078693          	mv	x13,x15
aaaafd70:	00000b13          	li	x22,0
aaaafd74:	905ff06f          	j	aaaaf678 <main+0x169c>
aaaafd78:	02012423          	sw	x0,40(x2)
aaaafd7c:	f7dff06f          	j	aaaafcf8 <main+0x1d1c>
aaaafd80:	001b0593          	addi	x11,x22,1
aaaafd84:	7d000513          	li	x10,2000
aaaafd88:	ffffe097          	auipc	x1,0xffffe
aaaafd8c:	1a8080e7          	jalr	424(x1) # aaaadf30 <__hidden___udivsi3>
aaaafd90:	00050d93          	mv	x27,x10
aaaafd94:	080b1463          	bnez	x22,aaaafe1c <main+0x1e40>
aaaafd98:	41600a33          	neg	x20,x22
aaaafd9c:	00001797          	auipc	x15,0x1
aaaafda0:	26478793          	addi	x15,x15,612 # aaab1000 <static_memblk>
aaaafda4:	00aa7a33          	and	x20,x20,x10
aaaafda8:	01478a33          	add	x20,x15,x20
aaaafdac:	00f12e23          	sw	x15,28(x2)
aaaafdb0:	03c11783          	lh	x15,60(x2)
aaaafdb4:	05412823          	sw	x20,80(x2)
aaaafdb8:	fff50c93          	addi	x25,x10,-1
aaaafdbc:	00f12823          	sw	x15,16(x2)
aaaafdc0:	b45ff06f          	j	aaaaf904 <main+0x1928>
aaaafdc4:	00100b13          	li	x22,1
aaaafdc8:	01c12903          	lw	x18,28(x2)
aaaafdcc:	414007b3          	neg	x15,x20
aaaafdd0:	01b7f7b3          	and	x15,x15,x27
aaaafdd4:	00f907b3          	add	x15,x18,x15
aaaafdd8:	00098513          	mv	x10,x19
aaaafddc:	000d8593          	mv	x11,x27
aaaafde0:	04f12623          	sw	x15,76(x2)
aaaafde4:	ffffe097          	auipc	x1,0xffffe
aaaafde8:	120080e7          	jalr	288(x1) # aaaadf04 <__mulsi3>
aaaafdec:	03c11783          	lh	x15,60(x2)
aaaafdf0:	00a90a33          	add	x20,x18,x10
aaaafdf4:	05412823          	sw	x20,80(x2)
aaaafdf8:	00f12823          	sw	x15,16(x2)
aaaafdfc:	00400793          	li	x15,4
aaaafe00:	00f12c23          	sw	x15,24(x2)
aaaafe04:	fffd8c93          	addi	x25,x27,-1
aaaafe08:	dc0b08e3          	beqz	x22,aaaafbd8 <main+0x1bfc>
aaaafe0c:	00200a93          	li	x21,2
aaaafe10:	ff0ff06f          	j	aaaaf600 <main+0x1624>
aaaafe14:	06600493          	li	x9,102
aaaafe18:	a54fe06f          	j	aaaae06c <main+0x90>
aaaafe1c:	000b0993          	mv	x19,x22
aaaafe20:	a60fe06f          	j	aaaae080 <main+0xa4>
aaaafe24:	04f12423          	sw	x15,72(x2)
aaaafe28:	d81ff06f          	j	aaaafba8 <main+0x1bcc>
aaaafe2c:	002b0593          	addi	x11,x22,2
aaaafe30:	7d000513          	li	x10,2000
aaaafe34:	ffffe097          	auipc	x1,0xffffe
aaaafe38:	0fc080e7          	jalr	252(x1) # aaaadf30 <__hidden___udivsi3>
aaaafe3c:	00050d93          	mv	x27,x10
aaaafe40:	020b1663          	bnez	x22,aaaafe6c <main+0x1e90>
aaaafe44:	00001797          	auipc	x15,0x1
aaaafe48:	1bc78793          	addi	x15,x15,444 # aaab1000 <static_memblk>
aaaafe4c:	00f12e23          	sw	x15,28(x2)
aaaafe50:	f79ff06f          	j	aaaafdc8 <main+0x1dec>
aaaafe54:	00160613          	addi	x12,x12,1
aaaafe58:	88a60ae3          	beq	x12,x10,aaaaf6ec <main+0x1710>
aaaafe5c:	00070593          	mv	x11,x14
aaaafe60:	00068313          	mv	x6,x13
aaaafe64:	000b0713          	mv	x14,x22
aaaafe68:	871ff06f          	j	aaaaf6d8 <main+0x16fc>
aaaafe6c:	00200a93          	li	x21,2
aaaafe70:	a10fe06f          	j	aaaae080 <main+0xa4>

aaaafe74 <_text_vma_end>:
	...

Disassembly of section .data:

aaab0000 <_data_vma_start>:
aaab0000:	3054                	.insn	2, 0x3054
aaab0002:	332e                	.insn	2, 0x332e
aaab0004:	2d65                	.insn	2, 0x2d65
aaab0006:	4631                	.insn	2, 0x4631
aaab0008:	0000                	.insn	2, 0x
aaab000a:	0000                	.insn	2, 0x
aaab000c:	542d                	.insn	2, 0x542d
aaab000e:	542e                	.insn	2, 0x542e
aaab0010:	71542b2b          	.insn	4, 0x71542b2b
aaab0014:	0000                	.insn	2, 0x
aaab0016:	0000                	.insn	2, 0x
aaab0018:	5431                	.insn	2, 0x5431
aaab001a:	65342e33          	.insn	4, 0x65342e33
aaab001e:	7a34                	.insn	2, 0x7a34
aaab0020:	0000                	.insn	2, 0x
aaab0022:	0000                	.insn	2, 0x
aaab0024:	302e3433          	.insn	4, 0x302e3433
aaab0028:	2d65                	.insn	2, 0x2d65
aaab002a:	5e54                	.insn	2, 0x5e54
aaab002c:	0000                	.insn	2, 0x
aaab002e:	0000                	.insn	2, 0x
aaab0030:	2e35                	.insn	2, 0x2e35
aaab0032:	3035                	.insn	2, 0x3035
aaab0034:	6530                	.insn	2, 0x6530
aaab0036:	0000332b          	.insn	4, 0x332b
aaab003a:	0000                	.insn	2, 0x
aaab003c:	2e2d                	.insn	2, 0x2e2d
aaab003e:	3231                	.insn	2, 0x3231
aaab0040:	322d6533          	.insn	4, 0x322d6533
aaab0044:	0000                	.insn	2, 0x
aaab0046:	0000                	.insn	2, 0x
aaab0048:	382d                	.insn	2, 0x382d
aaab004a:	382b6537          	lui	x10,0x382b6
aaab004e:	00003233          	snez	x4,x0
aaab0052:	0000                	.insn	2, 0x
aaab0054:	362e302b          	.insn	4, 0x362e302b
aaab0058:	2d65                	.insn	2, 0x2d65
aaab005a:	3231                	.insn	2, 0x3231
aaab005c:	0000                	.insn	2, 0x
aaab005e:	0000                	.insn	2, 0x
aaab0060:	352e3533          	.insn	4, 0x352e3533
aaab0064:	3434                	.insn	2, 0x3434
aaab0066:	3030                	.insn	2, 0x3030
aaab0068:	0000                	.insn	2, 0x
aaab006a:	0000                	.insn	2, 0x
aaab006c:	312e                	.insn	2, 0x312e
aaab006e:	3332                	.insn	2, 0x3332
aaab0070:	3534                	.insn	2, 0x3534
aaab0072:	3030                	.insn	2, 0x3030
aaab0074:	0000                	.insn	2, 0x
aaab0076:	0000                	.insn	2, 0x
aaab0078:	312d                	.insn	2, 0x312d
aaab007a:	3031                	.insn	2, 0x3031
aaab007c:	372e                	.insn	2, 0x372e
aaab007e:	3030                	.insn	2, 0x3030
aaab0080:	0000                	.insn	2, 0x
aaab0082:	0000                	.insn	2, 0x
aaab0084:	362e302b          	.insn	4, 0x362e302b
aaab0088:	3434                	.insn	2, 0x3434
aaab008a:	3030                	.insn	2, 0x3030
aaab008c:	0000                	.insn	2, 0x
aaab008e:	0000                	.insn	2, 0x
aaab0090:	3035                	.insn	2, 0x3035
aaab0092:	3231                	.insn	2, 0x3231
aaab0094:	0000                	.insn	2, 0x
aaab0096:	0000                	.insn	2, 0x
aaab0098:	3231                	.insn	2, 0x3231
aaab009a:	00003433          	snez	x8,x0
aaab009e:	0000                	.insn	2, 0x
aaab00a0:	382d                	.insn	2, 0x382d
aaab00a2:	00003437          	lui	x8,0x3
aaab00a6:	0000                	.insn	2, 0x
aaab00a8:	3232312b          	.insn	4, 0x3232312b
aaab00ac:	0000                	.insn	2, 0x
	...

aaab00b0 <floatpat>:
aaab00b0:	0060                	.insn	2, 0x0060
aaab00b2:	006caaab          	.insn	4, 0x006caaab
aaab00b6:	0078aaab          	.insn	4, 0x0078aaab
aaab00ba:	0084aaab          	.insn	4, 0x0084aaab
aaab00be:	          	.insn	4, 0x0030aaab

aaab00c0 <scipat>:
aaab00c0:	0030                	.insn	2, 0x0030
aaab00c2:	003caaab          	.insn	4, 0x003caaab
aaab00c6:	0048aaab          	.insn	4, 0x0048aaab
aaab00ca:	0054aaab          	.insn	4, 0x0054aaab
aaab00ce:	          	.insn	4, 0xaaab

aaab00d0 <errpat>:
aaab00d0:	0000                	.insn	2, 0x
aaab00d2:	000caaab          	.insn	4, 0x000caaab
aaab00d6:	0018aaab          	.insn	4, 0x0018aaab
aaab00da:	0024aaab          	.insn	4, 0x0024aaab
aaab00de:	          	.insn	4, 0x0090aaab

aaab00e0 <intpat>:
aaab00e0:	0090                	.insn	2, 0x0090
aaab00e2:	0098aaab          	.insn	4, 0x0098aaab
aaab00e6:	00a0aaab          	.insn	4, 0x00a0aaab
aaab00ea:	00a8aaab          	.insn	4, 0x00a8aaab
aaab00ee:	          	.insn	4, 0x0001aaab

aaab00f0 <seed4_volatile>:
aaab00f0:	0001                	.insn	2, 0x0001
	...

aaab00f4 <seed3_volatile>:
aaab00f4:	0066                	.insn	2, 0x0066
	...

aaab00f8 <_data_vma_end>:
	...
