
../testcode/dna.elf:     file format elf32-littleriscv


Disassembly of section .text.swinit1:

60000000 <_start>:
60000000:	00001317          	auipc	x6,0x1
60000004:	94c30313          	addi	x6,x6,-1716 # 6000094c <_bss_vma_end>
60000008:	00001397          	auipc	x7,0x1
6000000c:	94438393          	addi	x7,x7,-1724 # 6000094c <_bss_vma_end>
60000010:	00730863          	beq	x6,x7,60000020 <_setup>

60000014 <_initbss_loop>:
60000014:	00032023          	sw	x0,0(x6)
60000018:	00430313          	addi	x6,x6,4
6000001c:	fe736ce3          	bltu	x6,x7,60000014 <_initbss_loop>

60000020 <_setup>:
60000020:	20000117          	auipc	x2,0x20000
60000024:	fe010113          	addi	x2,x2,-32 # 80000000 <_stack_top>
60000028:	00010433          	add	x8,x2,x0
6000002c:	00000097          	auipc	x1,0x0
60000030:	4f4080e7          	jalr	1268(x1) # 60000520 <main>
60000034:	f0002013          	slti	x0,x0,-256
60000038:	00000097          	auipc	x1,0x0
6000003c:	0e4080e7          	jalr	228(x1) # 6000011c <_fini>

Disassembly of section .text:

60000040 <memset>:
60000040:	00f00313          	li	x6,15
60000044:	00050713          	mv	x14,x10
60000048:	02c37e63          	bgeu	x6,x12,60000084 <memset+0x44>
6000004c:	00f77793          	andi	x15,x14,15
60000050:	0a079063          	bnez	x15,600000f0 <memset+0xb0>
60000054:	08059263          	bnez	x11,600000d8 <memset+0x98>
60000058:	ff067693          	andi	x13,x12,-16
6000005c:	00f67613          	andi	x12,x12,15
60000060:	00e686b3          	add	x13,x13,x14
60000064:	00b72023          	sw	x11,0(x14)
60000068:	00b72223          	sw	x11,4(x14)
6000006c:	00b72423          	sw	x11,8(x14)
60000070:	00b72623          	sw	x11,12(x14)
60000074:	01070713          	addi	x14,x14,16
60000078:	fed766e3          	bltu	x14,x13,60000064 <memset+0x24>
6000007c:	00061463          	bnez	x12,60000084 <memset+0x44>
60000080:	00008067          	ret
60000084:	40c306b3          	sub	x13,x6,x12
60000088:	00269693          	slli	x13,x13,0x2
6000008c:	00000297          	auipc	x5,0x0
60000090:	005686b3          	add	x13,x13,x5
60000094:	00c68067          	jr	12(x13)
60000098:	00b70723          	sb	x11,14(x14)
6000009c:	00b706a3          	sb	x11,13(x14)
600000a0:	00b70623          	sb	x11,12(x14)
600000a4:	00b705a3          	sb	x11,11(x14)
600000a8:	00b70523          	sb	x11,10(x14)
600000ac:	00b704a3          	sb	x11,9(x14)
600000b0:	00b70423          	sb	x11,8(x14)
600000b4:	00b703a3          	sb	x11,7(x14)
600000b8:	00b70323          	sb	x11,6(x14)
600000bc:	00b702a3          	sb	x11,5(x14)
600000c0:	00b70223          	sb	x11,4(x14)
600000c4:	00b701a3          	sb	x11,3(x14)
600000c8:	00b70123          	sb	x11,2(x14)
600000cc:	00b700a3          	sb	x11,1(x14)
600000d0:	00b70023          	sb	x11,0(x14)
600000d4:	00008067          	ret
600000d8:	0ff5f593          	zext.b	x11,x11
600000dc:	00859693          	slli	x13,x11,0x8
600000e0:	00d5e5b3          	or	x11,x11,x13
600000e4:	01059693          	slli	x13,x11,0x10
600000e8:	00d5e5b3          	or	x11,x11,x13
600000ec:	f6dff06f          	j	60000058 <memset+0x18>
600000f0:	00279693          	slli	x13,x15,0x2
600000f4:	00000297          	auipc	x5,0x0
600000f8:	005686b3          	add	x13,x13,x5
600000fc:	00008293          	mv	x5,x1
60000100:	fa0680e7          	jalr	-96(x13)
60000104:	00028093          	mv	x1,x5
60000108:	ff078793          	addi	x15,x15,-16
6000010c:	40f70733          	sub	x14,x14,x15
60000110:	00f60633          	add	x12,x12,x15
60000114:	f6c378e3          	bgeu	x6,x12,60000084 <memset+0x44>
60000118:	f3dff06f          	j	60000054 <memset+0x14>

6000011c <_fini>:
6000011c:	00000063          	beqz	x0,6000011c <_fini>
60000120:	00000013          	nop
60000124:	00000013          	nop
60000128:	00000013          	nop
6000012c:	00000013          	nop
60000130:	00000013          	nop
60000134:	00000013          	nop
60000138:	00000013          	nop
6000013c:	00000013          	nop
60000140:	00000013          	nop
60000144:	00000013          	nop
60000148:	00000013          	nop
6000014c:	00000013          	nop
60000150:	00000013          	nop
60000154:	00000013          	nop
60000158:	00000013          	nop
6000015c:	00000013          	nop
60000160:	00000013          	nop
60000164:	00000013          	nop
60000168:	00000013          	nop
6000016c:	00000013          	nop
60000170:	00000013          	nop
60000174:	00000013          	nop
60000178:	00000013          	nop
6000017c:	00000013          	nop
60000180:	00000013          	nop
60000184:	00000013          	nop
60000188:	00000013          	nop
6000018c:	00000013          	nop
60000190:	00000013          	nop
60000194:	00000013          	nop
60000198:	00000013          	nop
6000019c:	00000013          	nop
600001a0:	00000013          	nop
600001a4:	00000013          	nop
600001a8:	00000013          	nop
600001ac:	00000013          	nop
600001b0:	00000013          	nop
600001b4:	00000013          	nop
600001b8:	00000013          	nop
600001bc:	00000013          	nop
600001c0:	00000013          	nop
600001c4:	00000013          	nop
600001c8:	00000013          	nop
600001cc:	00000013          	nop
600001d0:	00000013          	nop
600001d4:	00000013          	nop
600001d8:	00000013          	nop
600001dc:	00000013          	nop
600001e0:	00000013          	nop
600001e4:	00000013          	nop
600001e8:	00000013          	nop
600001ec:	00000013          	nop
600001f0:	00000013          	nop
600001f4:	00000013          	nop
600001f8:	00000013          	nop
600001fc:	00000013          	nop
60000200:	00000013          	nop
60000204:	00000013          	nop
60000208:	00000013          	nop
6000020c:	00000013          	nop
60000210:	00000013          	nop
60000214:	00000013          	nop
60000218:	00000013          	nop
6000021c:	00000013          	nop
60000220:	00000013          	nop
60000224:	00000013          	nop
60000228:	00000013          	nop
6000022c:	00000013          	nop
60000230:	00000013          	nop
60000234:	00000013          	nop
60000238:	00000013          	nop
6000023c:	00000013          	nop
60000240:	00000013          	nop
60000244:	00000013          	nop
60000248:	00000013          	nop
6000024c:	00000013          	nop
60000250:	00000013          	nop
60000254:	00000013          	nop
60000258:	00000013          	nop
6000025c:	00000013          	nop
60000260:	00000013          	nop
60000264:	00000013          	nop
60000268:	00000013          	nop
6000026c:	00000013          	nop
60000270:	00000013          	nop
60000274:	00000013          	nop
60000278:	00000013          	nop
6000027c:	00000013          	nop
60000280:	00000013          	nop
60000284:	00000013          	nop
60000288:	00000013          	nop
6000028c:	00000013          	nop
60000290:	00000013          	nop
60000294:	00000013          	nop
60000298:	00000013          	nop
6000029c:	00000013          	nop
600002a0:	00000013          	nop
600002a4:	00000013          	nop
600002a8:	00000013          	nop
600002ac:	00000013          	nop
600002b0:	00000013          	nop
600002b4:	00000013          	nop
600002b8:	00000013          	nop
600002bc:	00000013          	nop
600002c0:	00000013          	nop
600002c4:	00000013          	nop
600002c8:	00000013          	nop
600002cc:	00000013          	nop
600002d0:	00000013          	nop
600002d4:	00000013          	nop
600002d8:	00000013          	nop
600002dc:	00000013          	nop
600002e0:	00000013          	nop
600002e4:	00000013          	nop
600002e8:	00000013          	nop
600002ec:	00000013          	nop
600002f0:	00000013          	nop
600002f4:	00000013          	nop
600002f8:	00000013          	nop
600002fc:	00000013          	nop
60000300:	00000013          	nop
60000304:	00000013          	nop
60000308:	00000013          	nop
6000030c:	00000013          	nop
60000310:	00000013          	nop
60000314:	00000013          	nop
60000318:	00000013          	nop
6000031c:	00000013          	nop
60000320:	00000013          	nop
60000324:	00000013          	nop
60000328:	00000013          	nop
6000032c:	00000013          	nop
60000330:	00000013          	nop
60000334:	00000013          	nop
60000338:	00000013          	nop
6000033c:	00000013          	nop
60000340:	00000013          	nop
60000344:	00000013          	nop
60000348:	00000013          	nop
6000034c:	00000013          	nop
60000350:	00000013          	nop
60000354:	00000013          	nop
60000358:	00000013          	nop
6000035c:	00000013          	nop
60000360:	00000013          	nop
60000364:	00000013          	nop
60000368:	00000013          	nop
6000036c:	00000013          	nop
60000370:	00000013          	nop
60000374:	00000013          	nop
60000378:	00000013          	nop
6000037c:	00000013          	nop
60000380:	00000013          	nop
60000384:	00000013          	nop
60000388:	00000013          	nop
6000038c:	00000013          	nop
60000390:	00000013          	nop
60000394:	00000013          	nop
60000398:	00000013          	nop
6000039c:	00000013          	nop
600003a0:	00000013          	nop
600003a4:	00000013          	nop
600003a8:	00000013          	nop
600003ac:	00000013          	nop
600003b0:	00000013          	nop
600003b4:	00000013          	nop
600003b8:	00000013          	nop
600003bc:	00000013          	nop
600003c0:	00000013          	nop
600003c4:	00000013          	nop
600003c8:	00000013          	nop
600003cc:	00000013          	nop
600003d0:	00000013          	nop
600003d4:	00000013          	nop
600003d8:	00000013          	nop
600003dc:	00000013          	nop
600003e0:	00000013          	nop
600003e4:	00000013          	nop
600003e8:	00000013          	nop
600003ec:	00000013          	nop
600003f0:	00000013          	nop
600003f4:	00000013          	nop
600003f8:	00000013          	nop
600003fc:	00000013          	nop
60000400:	00000013          	nop
60000404:	00000013          	nop
60000408:	00000013          	nop
6000040c:	00000013          	nop
60000410:	00000013          	nop
60000414:	00000013          	nop
60000418:	00000013          	nop
6000041c:	00000013          	nop
60000420:	00000013          	nop
60000424:	00000013          	nop
60000428:	00000013          	nop
6000042c:	00000013          	nop
60000430:	00000013          	nop
60000434:	00000013          	nop
60000438:	00000013          	nop
6000043c:	00000013          	nop
60000440:	00000013          	nop
60000444:	00000013          	nop
60000448:	00000013          	nop
6000044c:	00000013          	nop
60000450:	00000013          	nop
60000454:	00000013          	nop
60000458:	00000013          	nop
6000045c:	00000013          	nop
60000460:	00000013          	nop
60000464:	00000013          	nop
60000468:	00000013          	nop
6000046c:	00000013          	nop
60000470:	00000013          	nop
60000474:	00000013          	nop
60000478:	00000013          	nop
6000047c:	00000013          	nop
60000480:	00000013          	nop
60000484:	00000013          	nop
60000488:	00000013          	nop
6000048c:	00000013          	nop
60000490:	00000013          	nop
60000494:	00000013          	nop
60000498:	00000013          	nop
6000049c:	00000013          	nop
600004a0:	00000013          	nop
600004a4:	00000013          	nop
600004a8:	00000013          	nop
600004ac:	00000013          	nop
600004b0:	00000013          	nop
600004b4:	00000013          	nop
600004b8:	00000013          	nop
600004bc:	00000013          	nop
600004c0:	00000013          	nop
600004c4:	00000013          	nop
600004c8:	00000013          	nop
600004cc:	00000013          	nop
600004d0:	00000013          	nop
600004d4:	00000013          	nop
600004d8:	00000013          	nop
600004dc:	00000013          	nop
600004e0:	00000013          	nop
600004e4:	00000013          	nop
600004e8:	00000013          	nop
600004ec:	00000013          	nop
600004f0:	00000013          	nop
600004f4:	00000013          	nop
600004f8:	00000013          	nop
600004fc:	00000013          	nop
60000500:	00000013          	nop
60000504:	00000013          	nop
60000508:	00000013          	nop
6000050c:	00000013          	nop
60000510:	00000013          	nop
60000514:	00000013          	nop
60000518:	00000013          	nop
6000051c:	00000013          	nop

60000520 <main>:
60000520:	f2010113          	addi	x2,x2,-224
60000524:	0c112e23          	sw	x1,220(x2)
60000528:	0c812c23          	sw	x8,216(x2)
6000052c:	0c912a23          	sw	x9,212(x2)
60000530:	00102013          	slti	x0,x0,1
60000534:	02100613          	li	x12,33
60000538:	00000597          	auipc	x11,0x0
6000053c:	3c858593          	addi	x11,x11,968 # 60000900 <_data_vma_start>
60000540:	06c10513          	addi	x10,x2,108
60000544:	00000097          	auipc	x1,0x0
60000548:	13c080e7          	jalr	316(x1) # 60000680 <memcpy>
6000054c:	04300613          	li	x12,67
60000550:	00000593          	li	x11,0
60000554:	08d10513          	addi	x10,x2,141
60000558:	00000097          	auipc	x1,0x0
6000055c:	ae8080e7          	jalr	-1304(x1) # 60000040 <memset>
60000560:	02500613          	li	x12,37
60000564:	00000597          	auipc	x11,0x0
60000568:	3c058593          	addi	x11,x11,960 # 60000924 <_data_vma_start+0x24>
6000056c:	00810513          	addi	x10,x2,8
60000570:	00000097          	auipc	x1,0x0
60000574:	110080e7          	jalr	272(x1) # 60000680 <memcpy>
60000578:	03f00613          	li	x12,63
6000057c:	00000593          	li	x11,0
60000580:	02d10513          	addi	x10,x2,45
60000584:	00000097          	auipc	x1,0x0
60000588:	abc080e7          	jalr	-1348(x1) # 60000040 <memset>
6000058c:	00302013          	slti	x0,x0,3
60000590:	06c10513          	addi	x10,x2,108
60000594:	00000493          	li	x9,0
60000598:	00000097          	auipc	x1,0x0
6000059c:	05c080e7          	jalr	92(x1) # 600005f4 <strlen>
600005a0:	02a4fa63          	bgeu	x9,x10,600005d4 <main+0xb4>
600005a4:	00000413          	li	x8,0
600005a8:	0080006f          	j	600005b0 <main+0x90>
600005ac:	00140413          	addi	x8,x8,1
600005b0:	00810513          	addi	x10,x2,8
600005b4:	00000097          	auipc	x1,0x0
600005b8:	040080e7          	jalr	64(x1) # 600005f4 <strlen>
600005bc:	fea468e3          	bltu	x8,x10,600005ac <main+0x8c>
600005c0:	06c10513          	addi	x10,x2,108
600005c4:	00148493          	addi	x9,x9,1
600005c8:	00000097          	auipc	x1,0x0
600005cc:	02c080e7          	jalr	44(x1) # 600005f4 <strlen>
600005d0:	fca4eae3          	bltu	x9,x10,600005a4 <main+0x84>
600005d4:	00402013          	slti	x0,x0,4
600005d8:	00202013          	slti	x0,x0,2
600005dc:	0dc12083          	lw	x1,220(x2)
600005e0:	0d812403          	lw	x8,216(x2)
600005e4:	0d412483          	lw	x9,212(x2)
600005e8:	00000513          	li	x10,0
600005ec:	0e010113          	addi	x2,x2,224
600005f0:	00008067          	ret

600005f4 <strlen>:
600005f4:	00357793          	andi	x15,x10,3
600005f8:	00050713          	mv	x14,x10
600005fc:	04079c63          	bnez	x15,60000654 <strlen+0x60>
60000600:	7f7f86b7          	lui	x13,0x7f7f8
60000604:	f7f68693          	addi	x13,x13,-129 # 7f7f7f7f <_end+0x1f7f761f>
60000608:	fff00593          	li	x11,-1
6000060c:	00072603          	lw	x12,0(x14)
60000610:	00470713          	addi	x14,x14,4
60000614:	00d677b3          	and	x15,x12,x13
60000618:	00d787b3          	add	x15,x15,x13
6000061c:	00c7e7b3          	or	x15,x15,x12
60000620:	00d7e7b3          	or	x15,x15,x13
60000624:	feb784e3          	beq	x15,x11,6000060c <strlen+0x18>
60000628:	ffc74683          	lbu	x13,-4(x14)
6000062c:	40a707b3          	sub	x15,x14,x10
60000630:	04068463          	beqz	x13,60000678 <strlen+0x84>
60000634:	ffd74683          	lbu	x13,-3(x14)
60000638:	02068c63          	beqz	x13,60000670 <strlen+0x7c>
6000063c:	ffe74503          	lbu	x10,-2(x14)
60000640:	00a03533          	snez	x10,x10
60000644:	00f50533          	add	x10,x10,x15
60000648:	ffe50513          	addi	x10,x10,-2
6000064c:	00008067          	ret
60000650:	fa0688e3          	beqz	x13,60000600 <strlen+0xc>
60000654:	00074783          	lbu	x15,0(x14)
60000658:	00170713          	addi	x14,x14,1
6000065c:	00377693          	andi	x13,x14,3
60000660:	fe0798e3          	bnez	x15,60000650 <strlen+0x5c>
60000664:	40a70733          	sub	x14,x14,x10
60000668:	fff70513          	addi	x10,x14,-1
6000066c:	00008067          	ret
60000670:	ffd78513          	addi	x10,x15,-3
60000674:	00008067          	ret
60000678:	ffc78513          	addi	x10,x15,-4
6000067c:	00008067          	ret

60000680 <memcpy>:
60000680:	00a5c7b3          	xor	x15,x11,x10
60000684:	0037f793          	andi	x15,x15,3
60000688:	00c508b3          	add	x17,x10,x12
6000068c:	06079463          	bnez	x15,600006f4 <memcpy+0x74>
60000690:	00300793          	li	x15,3
60000694:	06c7f063          	bgeu	x15,x12,600006f4 <memcpy+0x74>
60000698:	00357793          	andi	x15,x10,3
6000069c:	00050713          	mv	x14,x10
600006a0:	06079a63          	bnez	x15,60000714 <memcpy+0x94>
600006a4:	ffc8f613          	andi	x12,x17,-4
600006a8:	40e606b3          	sub	x13,x12,x14
600006ac:	02000793          	li	x15,32
600006b0:	08d7ce63          	blt	x15,x13,6000074c <memcpy+0xcc>
600006b4:	00058693          	mv	x13,x11
600006b8:	00070793          	mv	x15,x14
600006bc:	02c77863          	bgeu	x14,x12,600006ec <memcpy+0x6c>
600006c0:	0006a803          	lw	x16,0(x13)
600006c4:	00478793          	addi	x15,x15,4
600006c8:	00468693          	addi	x13,x13,4
600006cc:	ff07ae23          	sw	x16,-4(x15)
600006d0:	fec7e8e3          	bltu	x15,x12,600006c0 <memcpy+0x40>
600006d4:	fff60793          	addi	x15,x12,-1
600006d8:	40e787b3          	sub	x15,x15,x14
600006dc:	ffc7f793          	andi	x15,x15,-4
600006e0:	00478793          	addi	x15,x15,4
600006e4:	00f70733          	add	x14,x14,x15
600006e8:	00f585b3          	add	x11,x11,x15
600006ec:	01176863          	bltu	x14,x17,600006fc <memcpy+0x7c>
600006f0:	00008067          	ret
600006f4:	00050713          	mv	x14,x10
600006f8:	05157863          	bgeu	x10,x17,60000748 <memcpy+0xc8>
600006fc:	0005c783          	lbu	x15,0(x11)
60000700:	00170713          	addi	x14,x14,1
60000704:	00158593          	addi	x11,x11,1
60000708:	fef70fa3          	sb	x15,-1(x14)
6000070c:	fee898e3          	bne	x17,x14,600006fc <memcpy+0x7c>
60000710:	00008067          	ret
60000714:	0005c683          	lbu	x13,0(x11)
60000718:	00170713          	addi	x14,x14,1
6000071c:	00377793          	andi	x15,x14,3
60000720:	fed70fa3          	sb	x13,-1(x14)
60000724:	00158593          	addi	x11,x11,1
60000728:	f6078ee3          	beqz	x15,600006a4 <memcpy+0x24>
6000072c:	0005c683          	lbu	x13,0(x11)
60000730:	00170713          	addi	x14,x14,1
60000734:	00377793          	andi	x15,x14,3
60000738:	fed70fa3          	sb	x13,-1(x14)
6000073c:	00158593          	addi	x11,x11,1
60000740:	fc079ae3          	bnez	x15,60000714 <memcpy+0x94>
60000744:	f61ff06f          	j	600006a4 <memcpy+0x24>
60000748:	00008067          	ret
6000074c:	ff010113          	addi	x2,x2,-16
60000750:	00812623          	sw	x8,12(x2)
60000754:	02000413          	li	x8,32
60000758:	0005a383          	lw	x7,0(x11)
6000075c:	0045a283          	lw	x5,4(x11)
60000760:	0085af83          	lw	x31,8(x11)
60000764:	00c5af03          	lw	x30,12(x11)
60000768:	0105ae83          	lw	x29,16(x11)
6000076c:	0145ae03          	lw	x28,20(x11)
60000770:	0185a303          	lw	x6,24(x11)
60000774:	01c5a803          	lw	x16,28(x11)
60000778:	0205a683          	lw	x13,32(x11)
6000077c:	02470713          	addi	x14,x14,36
60000780:	40e607b3          	sub	x15,x12,x14
60000784:	fc772e23          	sw	x7,-36(x14)
60000788:	fe572023          	sw	x5,-32(x14)
6000078c:	fff72223          	sw	x31,-28(x14)
60000790:	ffe72423          	sw	x30,-24(x14)
60000794:	ffd72623          	sw	x29,-20(x14)
60000798:	ffc72823          	sw	x28,-16(x14)
6000079c:	fe672a23          	sw	x6,-12(x14)
600007a0:	ff072c23          	sw	x16,-8(x14)
600007a4:	fed72e23          	sw	x13,-4(x14)
600007a8:	02458593          	addi	x11,x11,36
600007ac:	faf446e3          	blt	x8,x15,60000758 <memcpy+0xd8>
600007b0:	00058693          	mv	x13,x11
600007b4:	00070793          	mv	x15,x14
600007b8:	02c77863          	bgeu	x14,x12,600007e8 <memcpy+0x168>
600007bc:	0006a803          	lw	x16,0(x13)
600007c0:	00478793          	addi	x15,x15,4
600007c4:	00468693          	addi	x13,x13,4
600007c8:	ff07ae23          	sw	x16,-4(x15)
600007cc:	fec7e8e3          	bltu	x15,x12,600007bc <memcpy+0x13c>
600007d0:	fff60793          	addi	x15,x12,-1
600007d4:	40e787b3          	sub	x15,x15,x14
600007d8:	ffc7f793          	andi	x15,x15,-4
600007dc:	00478793          	addi	x15,x15,4
600007e0:	00f70733          	add	x14,x14,x15
600007e4:	00f585b3          	add	x11,x11,x15
600007e8:	01176863          	bltu	x14,x17,600007f8 <memcpy+0x178>
600007ec:	00c12403          	lw	x8,12(x2)
600007f0:	01010113          	addi	x2,x2,16
600007f4:	00008067          	ret
600007f8:	0005c783          	lbu	x15,0(x11)
600007fc:	00170713          	addi	x14,x14,1
60000800:	00158593          	addi	x11,x11,1
60000804:	fef70fa3          	sb	x15,-1(x14)
60000808:	fee882e3          	beq	x17,x14,600007ec <memcpy+0x16c>
6000080c:	0005c783          	lbu	x15,0(x11)
60000810:	00170713          	addi	x14,x14,1
60000814:	00158593          	addi	x11,x11,1
60000818:	fef70fa3          	sb	x15,-1(x14)
6000081c:	fce89ee3          	bne	x17,x14,600007f8 <memcpy+0x178>
60000820:	fcdff06f          	j	600007ec <memcpy+0x16c>

Disassembly of section .data:

60000824 <_data_vma_start-0xdc>:
	...

60000900 <_data_vma_start>:
60000900:	4341                	.insn	2, 0x4341
60000902:	4754                	.insn	2, 0x4754
60000904:	4154                	.insn	2, 0x4154
60000906:	54474347          	.insn	4, 0x54474347
6000090a:	43544347          	.insn	4, 0x43544347
6000090e:	47435447          	.insn	4, 0x47435447
60000912:	4354                	.insn	2, 0x4354
60000914:	4341                	.insn	2, 0x4341
60000916:	4741                	.insn	2, 0x4741
60000918:	4354                	.insn	2, 0x4354
6000091a:	54414347          	.insn	4, 0x54414347
6000091e:	4354                	.insn	2, 0x4354
60000920:	0000                	.insn	2, 0x
60000922:	0000                	.insn	2, 0x
60000924:	4741                	.insn	2, 0x4741
60000926:	47415443          	.insn	4, 0x47415443
6000092a:	54475443          	.insn	4, 0x54475443
6000092e:	43544747          	.insn	4, 0x43544747
60000932:	43475447          	.insn	4, 0x43475447
60000936:	4754                	.insn	2, 0x4754
60000938:	41545443          	.insn	4, 0x41545443
6000093c:	4141                	.insn	2, 0x4141
6000093e:	43544343          	.insn	4, 0x43544343
60000942:	43544347          	.insn	4, 0x43544347
60000946:	00004347          	.insn	4, 0x4347
	...

Disassembly of section .tohost:

6000094c <tohost-0x4>:
6000094c:	0000                	.insn	2, 0x
	...

60000950 <tohost>:
	...

Disassembly of section .fromhost:

60000958 <fromhost>:
	...
