
../testcode/fft.elf:     file format elf32-littleriscv


Disassembly of section .text.swinit1:

60000000 <_start>:
60000000:	00003317          	auipc	x6,0x3
60000004:	80030313          	addi	x6,x6,-2048 # 60002800 <_bss_vma_end>
60000008:	00002397          	auipc	x7,0x2
6000000c:	7f838393          	addi	x7,x7,2040 # 60002800 <_bss_vma_end>
60000010:	00730863          	beq	x6,x7,60000020 <_setup>

60000014 <_initbss_loop>:
60000014:	00032023          	sw	x0,0(x6)
60000018:	00430313          	addi	x6,x6,4
6000001c:	fe736ce3          	bltu	x6,x7,60000014 <_initbss_loop>

60000020 <_setup>:
60000020:	20000117          	auipc	x2,0x20000
60000024:	fe010113          	addi	x2,x2,-32 # 80000000 <_stack_top>
60000028:	00010433          	add	x8,x2,x0
6000002c:	00001097          	auipc	x1,0x1
60000030:	718080e7          	jalr	1816(x1) # 60001744 <main>
60000034:	f0002013          	slti	x0,x0,-256
60000038:	00001097          	auipc	x1,0x1
6000003c:	308080e7          	jalr	776(x1) # 60001340 <_fini>

Disassembly of section .text:

60000040 <memset>:
60000040:	00f00313          	li	x6,15
60000044:	00050713          	mv	x14,x10
60000048:	02c37e63          	bgeu	x6,x12,60000084 <memset+0x44>
6000004c:	00f77793          	andi	x15,x14,15
60000050:	0a079063          	bnez	x15,600000f0 <memset+0xb0>
60000054:	08059263          	bnez	x11,600000d8 <memset+0x98>
60000058:	ff067693          	andi	x13,x12,-16
6000005c:	00f67613          	andi	x12,x12,15
60000060:	00e686b3          	add	x13,x13,x14
60000064:	00b72023          	sw	x11,0(x14)
60000068:	00b72223          	sw	x11,4(x14)
6000006c:	00b72423          	sw	x11,8(x14)
60000070:	00b72623          	sw	x11,12(x14)
60000074:	01070713          	addi	x14,x14,16
60000078:	fed766e3          	bltu	x14,x13,60000064 <memset+0x24>
6000007c:	00061463          	bnez	x12,60000084 <memset+0x44>
60000080:	00008067          	ret
60000084:	40c306b3          	sub	x13,x6,x12
60000088:	00269693          	slli	x13,x13,0x2
6000008c:	00000297          	auipc	x5,0x0
60000090:	005686b3          	add	x13,x13,x5
60000094:	00c68067          	jr	12(x13)
60000098:	00b70723          	sb	x11,14(x14)
6000009c:	00b706a3          	sb	x11,13(x14)
600000a0:	00b70623          	sb	x11,12(x14)
600000a4:	00b705a3          	sb	x11,11(x14)
600000a8:	00b70523          	sb	x11,10(x14)
600000ac:	00b704a3          	sb	x11,9(x14)
600000b0:	00b70423          	sb	x11,8(x14)
600000b4:	00b703a3          	sb	x11,7(x14)
600000b8:	00b70323          	sb	x11,6(x14)
600000bc:	00b702a3          	sb	x11,5(x14)
600000c0:	00b70223          	sb	x11,4(x14)
600000c4:	00b701a3          	sb	x11,3(x14)
600000c8:	00b70123          	sb	x11,2(x14)
600000cc:	00b700a3          	sb	x11,1(x14)
600000d0:	00b70023          	sb	x11,0(x14)
600000d4:	00008067          	ret
600000d8:	0ff5f593          	zext.b	x11,x11
600000dc:	00859693          	slli	x13,x11,0x8
600000e0:	00d5e5b3          	or	x11,x11,x13
600000e4:	01059693          	slli	x13,x11,0x10
600000e8:	00d5e5b3          	or	x11,x11,x13
600000ec:	f6dff06f          	j	60000058 <memset+0x18>
600000f0:	00279693          	slli	x13,x15,0x2
600000f4:	00000297          	auipc	x5,0x0
600000f8:	005686b3          	add	x13,x13,x5
600000fc:	00008293          	mv	x5,x1
60000100:	fa0680e7          	jalr	-96(x13)
60000104:	00028093          	mv	x1,x5
60000108:	ff078793          	addi	x15,x15,-16
6000010c:	40f70733          	sub	x14,x14,x15
60000110:	00f60633          	add	x12,x12,x15
60000114:	f6c378e3          	bgeu	x6,x12,60000084 <memset+0x44>
60000118:	f3dff06f          	j	60000054 <memset+0x14>

6000011c <fft>:
6000011c:	00100793          	li	x15,1
60000120:	28f58e63          	beq	x11,x15,600003bc <fft+0x2a0>
60000124:	fd010113          	addi	x2,x2,-48
60000128:	01512a23          	sw	x21,20(x2)
6000012c:	4015da93          	srai	x21,x11,0x1
60000130:	01812423          	sw	x24,8(x2)
60000134:	002a9c13          	slli	x24,x21,0x2
60000138:	00fc0793          	addi	x15,x24,15
6000013c:	02812423          	sw	x8,40(x2)
60000140:	02912223          	sw	x9,36(x2)
60000144:	03212023          	sw	x18,32(x2)
60000148:	01312e23          	sw	x19,28(x2)
6000014c:	01412c23          	sw	x20,24(x2)
60000150:	01612823          	sw	x22,16(x2)
60000154:	01712623          	sw	x23,12(x2)
60000158:	01912223          	sw	x25,4(x2)
6000015c:	ff07f793          	andi	x15,x15,-16
60000160:	02112623          	sw	x1,44(x2)
60000164:	01a12023          	sw	x26,0(x2)
60000168:	03010413          	addi	x8,x2,48
6000016c:	00010493          	mv	x9,x2
60000170:	40f10133          	sub	x2,x2,x15
60000174:	00050b13          	mv	x22,x10
60000178:	00010513          	mv	x10,x2
6000017c:	40f10133          	sub	x2,x2,x15
60000180:	00010c93          	mv	x25,x2
60000184:	003a9593          	slli	x11,x21,0x3
60000188:	00060b93          	mv	x23,x12
6000018c:	000b0913          	mv	x18,x22
60000190:	00050993          	mv	x19,x10
60000194:	000c8a13          	mv	x20,x25
60000198:	016585b3          	add	x11,x11,x22
6000019c:	000c8693          	mv	x13,x25
600001a0:	00050713          	mv	x14,x10
600001a4:	000b0793          	mv	x15,x22
600001a8:	0007de03          	lhu	x28,0(x15)
600001ac:	0027d303          	lhu	x6,2(x15)
600001b0:	0047d883          	lhu	x17,4(x15)
600001b4:	0067d803          	lhu	x16,6(x15)
600001b8:	01c71023          	sh	x28,0(x14)
600001bc:	00671123          	sh	x6,2(x14)
600001c0:	01169023          	sh	x17,0(x13)
600001c4:	01069123          	sh	x16,2(x13)
600001c8:	00878793          	addi	x15,x15,8
600001cc:	00470713          	addi	x14,x14,4
600001d0:	00468693          	addi	x13,x13,4
600001d4:	fcf59ae3          	bne	x11,x15,600001a8 <fft+0x8c>
600001d8:	fffb8d13          	addi	x26,x23,-1
600001dc:	000d0613          	mv	x12,x26
600001e0:	000a8593          	mv	x11,x21
600001e4:	00000097          	auipc	x1,0x0
600001e8:	f38080e7          	jalr	-200(x1) # 6000011c <fft>
600001ec:	000d0613          	mv	x12,x26
600001f0:	000a8593          	mv	x11,x21
600001f4:	000c8513          	mv	x10,x25
600001f8:	00000097          	auipc	x1,0x0
600001fc:	f24080e7          	jalr	-220(x1) # 6000011c <fft>
60000200:	ffff8637          	lui	x12,0xffff8
60000204:	41765633          	sra	x12,x12,x23
60000208:	00f61613          	slli	x12,x12,0xf
6000020c:	01061613          	slli	x12,x12,0x10
60000210:	41065613          	srai	x12,x12,0x10
60000214:	ffff87b7          	lui	x15,0xffff8
60000218:	02c78333          	mul	x6,x15,x12
6000021c:	018b0533          	add	x10,x22,x24
60000220:	000085b7          	lui	x11,0x8
60000224:	00050813          	mv	x16,x10
60000228:	00000713          	li	x14,0
6000022c:	fff58593          	addi	x11,x11,-1 # 7fff <_start-0x5fff8001>
60000230:	002a5f03          	lhu	x30,2(x20)
60000234:	000a5e83          	lhu	x29,0(x20)
60000238:	01079893          	slli	x17,x15,0x10
6000023c:	01071293          	slli	x5,x14,0x10
60000240:	02c706b3          	mul	x13,x14,x12
60000244:	0102d293          	srli	x5,x5,0x10
60000248:	0108d893          	srli	x17,x17,0x10
6000024c:	0009de03          	lhu	x28,0(x19)
60000250:	0029df83          	lhu	x31,2(x19)
60000254:	00490913          	addi	x18,x18,4
60000258:	00450513          	addi	x10,x10,4
6000025c:	004a0a13          	addi	x20,x20,4
60000260:	00498993          	addi	x19,x19,4
60000264:	40d30333          	sub	x6,x6,x13
60000268:	41f35793          	srai	x15,x6,0x1f
6000026c:	00b7f7b3          	and	x15,x15,x11
60000270:	03d88733          	mul	x14,x17,x29
60000274:	006787b3          	add	x15,x15,x6
60000278:	40f7d793          	srai	x15,x15,0xf
6000027c:	01079793          	slli	x15,x15,0x10
60000280:	4107d793          	srai	x15,x15,0x10
60000284:	03e28333          	mul	x6,x5,x30
60000288:	40670333          	sub	x6,x14,x6
6000028c:	01031313          	slli	x6,x6,0x10
60000290:	025e8eb3          	mul	x29,x29,x5
60000294:	41035313          	srai	x6,x6,0x10
60000298:	41f35713          	srai	x14,x6,0x1f
6000029c:	00b77733          	and	x14,x14,x11
600002a0:	00670733          	add	x14,x14,x6
600002a4:	40f75713          	srai	x14,x14,0xf
600002a8:	01071713          	slli	x14,x14,0x10
600002ac:	01075713          	srli	x14,x14,0x10
600002b0:	00ee0333          	add	x6,x28,x14
600002b4:	01031313          	slli	x6,x6,0x10
600002b8:	03e888b3          	mul	x17,x17,x30
600002bc:	40ee0733          	sub	x14,x28,x14
600002c0:	41035313          	srai	x6,x6,0x10
600002c4:	01071713          	slli	x14,x14,0x10
600002c8:	41075713          	srai	x14,x14,0x10
600002cc:	41f35f13          	srai	x30,x6,0x1f
600002d0:	41f75e13          	srai	x28,x14,0x1f
600002d4:	00bf7f33          	and	x30,x30,x11
600002d8:	006f0f33          	add	x30,x30,x6
600002dc:	00be7e33          	and	x28,x28,x11
600002e0:	01d888b3          	add	x17,x17,x29
600002e4:	01089893          	slli	x17,x17,0x10
600002e8:	4108d893          	srai	x17,x17,0x10
600002ec:	02c78333          	mul	x6,x15,x12
600002f0:	00ee0e33          	add	x28,x28,x14
600002f4:	41f8d713          	srai	x14,x17,0x1f
600002f8:	00b77733          	and	x14,x14,x11
600002fc:	01170733          	add	x14,x14,x17
60000300:	40f75713          	srai	x14,x14,0xf
60000304:	01071713          	slli	x14,x14,0x10
60000308:	01075713          	srli	x14,x14,0x10
6000030c:	00ef82b3          	add	x5,x31,x14
60000310:	01029293          	slli	x5,x5,0x10
60000314:	40ef8fb3          	sub	x31,x31,x14
60000318:	4102d293          	srai	x5,x5,0x10
6000031c:	010f9f93          	slli	x31,x31,0x10
60000320:	410fdf93          	srai	x31,x31,0x10
60000324:	00d30733          	add	x14,x6,x13
60000328:	41f2de93          	srai	x29,x5,0x1f
6000032c:	41f75693          	srai	x13,x14,0x1f
60000330:	00befeb3          	and	x29,x29,x11
60000334:	41ffd893          	srai	x17,x31,0x1f
60000338:	005e8eb3          	add	x29,x29,x5
6000033c:	00b8f8b3          	and	x17,x17,x11
60000340:	00b6f6b3          	and	x13,x13,x11
60000344:	40ff5f13          	srai	x30,x30,0xf
60000348:	40fede93          	srai	x29,x29,0xf
6000034c:	01f888b3          	add	x17,x17,x31
60000350:	00e68733          	add	x14,x13,x14
60000354:	ffe91e23          	sh	x30,-4(x18)
60000358:	ffd91f23          	sh	x29,-2(x18)
6000035c:	40fe5e13          	srai	x28,x28,0xf
60000360:	40f8d893          	srai	x17,x17,0xf
60000364:	40f75713          	srai	x14,x14,0xf
60000368:	01071713          	slli	x14,x14,0x10
6000036c:	ffc51e23          	sh	x28,-4(x10)
60000370:	ff151f23          	sh	x17,-2(x10)
60000374:	41075713          	srai	x14,x14,0x10
60000378:	eb281ce3          	bne	x16,x18,60000230 <fft+0x114>
6000037c:	00048113          	mv	x2,x9
60000380:	fd040113          	addi	x2,x8,-48
60000384:	02c12083          	lw	x1,44(x2)
60000388:	02812403          	lw	x8,40(x2)
6000038c:	02412483          	lw	x9,36(x2)
60000390:	02012903          	lw	x18,32(x2)
60000394:	01c12983          	lw	x19,28(x2)
60000398:	01812a03          	lw	x20,24(x2)
6000039c:	01412a83          	lw	x21,20(x2)
600003a0:	01012b03          	lw	x22,16(x2)
600003a4:	00c12b83          	lw	x23,12(x2)
600003a8:	00812c03          	lw	x24,8(x2)
600003ac:	00412c83          	lw	x25,4(x2)
600003b0:	00012d03          	lw	x26,0(x2)
600003b4:	03010113          	addi	x2,x2,48
600003b8:	00008067          	ret
600003bc:	00008067          	ret

600003c0 <fft.constprop.7>:
600003c0:	00a55783          	lhu	x15,10(x10)
600003c4:	fd010113          	addi	x2,x2,-48
600003c8:	00055603          	lhu	x12,0(x10)
600003cc:	00255683          	lhu	x13,2(x10)
600003d0:	00f11b23          	sh	x15,22(x2)
600003d4:	00e55783          	lhu	x15,14(x10)
600003d8:	00855703          	lhu	x14,8(x10)
600003dc:	00c11823          	sh	x12,16(x2)
600003e0:	00d11923          	sh	x13,18(x2)
600003e4:	00f11f23          	sh	x15,30(x2)
600003e8:	01012783          	lw	x15,16(x2)
600003ec:	00e11a23          	sh	x14,20(x2)
600003f0:	00455803          	lhu	x16,4(x10)
600003f4:	00655683          	lhu	x13,6(x10)
600003f8:	00c55703          	lhu	x14,12(x10)
600003fc:	00f12423          	sw	x15,8(x2)
60000400:	01412783          	lw	x15,20(x2)
60000404:	02812423          	sw	x8,40(x2)
60000408:	00000613          	li	x12,0
6000040c:	00050413          	mv	x8,x10
60000410:	00100593          	li	x11,1
60000414:	00810513          	addi	x10,x2,8
60000418:	02112623          	sw	x1,44(x2)
6000041c:	01011c23          	sh	x16,24(x2)
60000420:	00d11d23          	sh	x13,26(x2)
60000424:	00e11e23          	sh	x14,28(x2)
60000428:	00f12623          	sw	x15,12(x2)
6000042c:	00000097          	auipc	x1,0x0
60000430:	cf0080e7          	jalr	-784(x1) # 6000011c <fft>
60000434:	00c10513          	addi	x10,x2,12
60000438:	00000613          	li	x12,0
6000043c:	00100593          	li	x11,1
60000440:	00000097          	auipc	x1,0x0
60000444:	cdc080e7          	jalr	-804(x1) # 6000011c <fft>
60000448:	01812783          	lw	x15,24(x2)
6000044c:	00810513          	addi	x10,x2,8
60000450:	00000613          	li	x12,0
60000454:	00f12423          	sw	x15,8(x2)
60000458:	01c12783          	lw	x15,28(x2)
6000045c:	00100593          	li	x11,1
60000460:	00f12623          	sw	x15,12(x2)
60000464:	00000097          	auipc	x1,0x0
60000468:	cb8080e7          	jalr	-840(x1) # 6000011c <fft>
6000046c:	00c10513          	addi	x10,x2,12
60000470:	00000613          	li	x12,0
60000474:	00100593          	li	x11,1
60000478:	00000097          	auipc	x1,0x0
6000047c:	ca4080e7          	jalr	-860(x1) # 6000011c <fft>
60000480:	02c12083          	lw	x1,44(x2)
60000484:	00041023          	sh	x0,0(x8)
60000488:	00041123          	sh	x0,2(x8)
6000048c:	00041423          	sh	x0,8(x8)
60000490:	00041523          	sh	x0,10(x8)
60000494:	00041223          	sh	x0,4(x8)
60000498:	00041323          	sh	x0,6(x8)
6000049c:	00041623          	sh	x0,12(x8)
600004a0:	00041723          	sh	x0,14(x8)
600004a4:	02812403          	lw	x8,40(x2)
600004a8:	03010113          	addi	x2,x2,48
600004ac:	00008067          	ret

600004b0 <fft.constprop.6>:
600004b0:	fc010113          	addi	x2,x2,-64
600004b4:	02912a23          	sw	x9,52(x2)
600004b8:	03212823          	sw	x18,48(x2)
600004bc:	00455383          	lhu	x7,4(x10)
600004c0:	00655283          	lhu	x5,6(x10)
600004c4:	00855f83          	lhu	x31,8(x10)
600004c8:	00a55f03          	lhu	x30,10(x10)
600004cc:	00c55e83          	lhu	x29,12(x10)
600004d0:	00e55e03          	lhu	x28,14(x10)
600004d4:	00055903          	lhu	x18,0(x10)
600004d8:	00255483          	lhu	x9,2(x10)
600004dc:	01255883          	lhu	x17,18(x10)
600004e0:	01455803          	lhu	x16,20(x10)
600004e4:	01655583          	lhu	x11,22(x10)
600004e8:	01855603          	lhu	x12,24(x10)
600004ec:	01a55683          	lhu	x13,26(x10)
600004f0:	01c55703          	lhu	x14,28(x10)
600004f4:	01e55783          	lhu	x15,30(x10)
600004f8:	01055303          	lhu	x6,16(x10)
600004fc:	02112e23          	sw	x1,60(x2)
60000500:	02812c23          	sw	x8,56(x2)
60000504:	03312623          	sw	x19,44(x2)
60000508:	00050413          	mv	x8,x10
6000050c:	03412423          	sw	x20,40(x2)
60000510:	03512223          	sw	x21,36(x2)
60000514:	03612023          	sw	x22,32(x2)
60000518:	00711823          	sh	x7,16(x2)
6000051c:	00511923          	sh	x5,18(x2)
60000520:	01f11223          	sh	x31,4(x2)
60000524:	01e11323          	sh	x30,6(x2)
60000528:	01d11a23          	sh	x29,20(x2)
6000052c:	01c11b23          	sh	x28,22(x2)
60000530:	00010513          	mv	x10,x2
60000534:	01211023          	sh	x18,0(x2)
60000538:	00911123          	sh	x9,2(x2)
6000053c:	00611423          	sh	x6,8(x2)
60000540:	01111523          	sh	x17,10(x2)
60000544:	01011c23          	sh	x16,24(x2)
60000548:	00b11d23          	sh	x11,26(x2)
6000054c:	00c11623          	sh	x12,12(x2)
60000550:	00d11723          	sh	x13,14(x2)
60000554:	00e11e23          	sh	x14,28(x2)
60000558:	00f11f23          	sh	x15,30(x2)
6000055c:	00000097          	auipc	x1,0x0
60000560:	e64080e7          	jalr	-412(x1) # 600003c0 <fft.constprop.7>
60000564:	01010513          	addi	x10,x2,16
60000568:	00000097          	auipc	x1,0x0
6000056c:	e58080e7          	jalr	-424(x1) # 600003c0 <fft.constprop.7>
60000570:	01215583          	lhu	x11,18(x2)
60000574:	01015603          	lhu	x12,16(x2)
60000578:	000087b7          	lui	x15,0x8
6000057c:	00f59593          	slli	x11,x11,0xf
60000580:	00f61613          	slli	x12,x12,0xf
60000584:	01059593          	slli	x11,x11,0x10
60000588:	01061613          	slli	x12,x12,0x10
6000058c:	4105d593          	srai	x11,x11,0x10
60000590:	41065613          	srai	x12,x12,0x10
60000594:	fff78793          	addi	x15,x15,-1 # 7fff <_start-0x5fff8001>
60000598:	41f5d713          	srai	x14,x11,0x1f
6000059c:	41f65693          	srai	x13,x12,0x1f
600005a0:	00f77733          	and	x14,x14,x15
600005a4:	00f6f6b3          	and	x13,x13,x15
600005a8:	00b70733          	add	x14,x14,x11
600005ac:	00c686b3          	add	x13,x13,x12
600005b0:	00215503          	lhu	x10,2(x2)
600005b4:	00015f83          	lhu	x31,0(x2)
600005b8:	40f75713          	srai	x14,x14,0xf
600005bc:	40f6d693          	srai	x13,x13,0xf
600005c0:	01069693          	slli	x13,x13,0x10
600005c4:	01071713          	slli	x14,x14,0x10
600005c8:	0106d693          	srli	x13,x13,0x10
600005cc:	01075713          	srli	x14,x14,0x10
600005d0:	00411a03          	lh	x20,4(x2)
600005d4:	00611983          	lh	x19,6(x2)
600005d8:	00811903          	lh	x18,8(x2)
600005dc:	00a11483          	lh	x9,10(x2)
600005e0:	00c11383          	lh	x7,12(x2)
600005e4:	00e11283          	lh	x5,14(x2)
600005e8:	01f68f33          	add	x30,x13,x31
600005ec:	00a70ab3          	add	x21,x14,x10
600005f0:	40df8fb3          	sub	x31,x31,x13
600005f4:	40e50733          	sub	x14,x10,x14
600005f8:	010f1f13          	slli	x30,x30,0x10
600005fc:	010a9a93          	slli	x21,x21,0x10
60000600:	010f9f93          	slli	x31,x31,0x10
60000604:	01071713          	slli	x14,x14,0x10
60000608:	410ada93          	srai	x21,x21,0x10
6000060c:	41075713          	srai	x14,x14,0x10
60000610:	410f5f13          	srai	x30,x30,0x10
60000614:	410fdf93          	srai	x31,x31,0x10
60000618:	41fade13          	srai	x28,x21,0x1f
6000061c:	41f75893          	srai	x17,x14,0x1f
60000620:	41fa5813          	srai	x16,x20,0x1f
60000624:	41f9d513          	srai	x10,x19,0x1f
60000628:	41f95593          	srai	x11,x18,0x1f
6000062c:	41f4d613          	srai	x12,x9,0x1f
60000630:	41f2db13          	srai	x22,x5,0x1f
60000634:	41ff5e93          	srai	x29,x30,0x1f
60000638:	41ffd313          	srai	x6,x31,0x1f
6000063c:	41f3d693          	srai	x13,x7,0x1f
60000640:	00f6f6b3          	and	x13,x13,x15
60000644:	00fefeb3          	and	x29,x29,x15
60000648:	00fe7e33          	and	x28,x28,x15
6000064c:	00f37333          	and	x6,x6,x15
60000650:	00f8f8b3          	and	x17,x17,x15
60000654:	00f87833          	and	x16,x16,x15
60000658:	00f57533          	and	x10,x10,x15
6000065c:	00f5f5b3          	and	x11,x11,x15
60000660:	00f67633          	and	x12,x12,x15
60000664:	00fb77b3          	and	x15,x22,x15
60000668:	015e0e33          	add	x28,x28,x21
6000066c:	00e888b3          	add	x17,x17,x14
60000670:	01480833          	add	x16,x16,x20
60000674:	01350533          	add	x10,x10,x19
60000678:	012585b3          	add	x11,x11,x18
6000067c:	00960633          	add	x12,x12,x9
60000680:	00768733          	add	x14,x13,x7
60000684:	01ee8eb3          	add	x29,x29,x30
60000688:	01f30333          	add	x6,x6,x31
6000068c:	005787b3          	add	x15,x15,x5
60000690:	40f85813          	srai	x16,x16,0xf
60000694:	40f55513          	srai	x10,x10,0xf
60000698:	40f5d593          	srai	x11,x11,0xf
6000069c:	40f65693          	srai	x13,x12,0xf
600006a0:	40f75713          	srai	x14,x14,0xf
600006a4:	40f7d793          	srai	x15,x15,0xf
600006a8:	40fede93          	srai	x29,x29,0xf
600006ac:	40fe5e13          	srai	x28,x28,0xf
600006b0:	40f35313          	srai	x6,x6,0xf
600006b4:	40f8d893          	srai	x17,x17,0xf
600006b8:	03c12083          	lw	x1,60(x2)
600006bc:	01d41023          	sh	x29,0(x8)
600006c0:	01c41123          	sh	x28,2(x8)
600006c4:	00641823          	sh	x6,16(x8)
600006c8:	01141923          	sh	x17,18(x8)
600006cc:	01041223          	sh	x16,4(x8)
600006d0:	00a41323          	sh	x10,6(x8)
600006d4:	01041a23          	sh	x16,20(x8)
600006d8:	00a41b23          	sh	x10,22(x8)
600006dc:	00b41423          	sh	x11,8(x8)
600006e0:	00d41523          	sh	x13,10(x8)
600006e4:	00b41c23          	sh	x11,24(x8)
600006e8:	00d41d23          	sh	x13,26(x8)
600006ec:	00e41623          	sh	x14,12(x8)
600006f0:	00f41723          	sh	x15,14(x8)
600006f4:	00e41e23          	sh	x14,28(x8)
600006f8:	00f41f23          	sh	x15,30(x8)
600006fc:	03812403          	lw	x8,56(x2)
60000700:	03412483          	lw	x9,52(x2)
60000704:	03012903          	lw	x18,48(x2)
60000708:	02c12983          	lw	x19,44(x2)
6000070c:	02812a03          	lw	x20,40(x2)
60000710:	02412a83          	lw	x21,36(x2)
60000714:	02012b03          	lw	x22,32(x2)
60000718:	04010113          	addi	x2,x2,64
6000071c:	00008067          	ret

60000720 <fft.constprop.5>:
60000720:	f9010113          	addi	x2,x2,-112
60000724:	06912223          	sw	x9,100(x2)
60000728:	00255383          	lhu	x7,2(x10)
6000072c:	00055483          	lhu	x9,0(x10)
60000730:	00455283          	lhu	x5,4(x10)
60000734:	00655f83          	lhu	x31,6(x10)
60000738:	06812423          	sw	x8,104(x2)
6000073c:	00855f03          	lhu	x30,8(x10)
60000740:	00050413          	mv	x8,x10
60000744:	00a55e83          	lhu	x29,10(x10)
60000748:	00c55e03          	lhu	x28,12(x10)
6000074c:	00e55303          	lhu	x6,14(x10)
60000750:	01055883          	lhu	x17,16(x10)
60000754:	01255803          	lhu	x16,18(x10)
60000758:	01645583          	lhu	x11,22(x8)
6000075c:	01845603          	lhu	x12,24(x8)
60000760:	01a45683          	lhu	x13,26(x8)
60000764:	01c45703          	lhu	x14,28(x8)
60000768:	01e45783          	lhu	x15,30(x8)
6000076c:	06112623          	sw	x1,108(x2)
60000770:	07212023          	sw	x18,96(x2)
60000774:	05312e23          	sw	x19,92(x2)
60000778:	05412c23          	sw	x20,88(x2)
6000077c:	05512a23          	sw	x21,84(x2)
60000780:	05612823          	sw	x22,80(x2)
60000784:	05712623          	sw	x23,76(x2)
60000788:	05812423          	sw	x24,72(x2)
6000078c:	05912223          	sw	x25,68(x2)
60000790:	05a12023          	sw	x26,64(x2)
60000794:	00911023          	sh	x9,0(x2)
60000798:	00711123          	sh	x7,2(x2)
6000079c:	02511023          	sh	x5,32(x2)
600007a0:	03f11123          	sh	x31,34(x2)
600007a4:	01455503          	lhu	x10,20(x10)
600007a8:	01e11223          	sh	x30,4(x2)
600007ac:	02445383          	lhu	x7,36(x8)
600007b0:	02645283          	lhu	x5,38(x8)
600007b4:	02845f83          	lhu	x31,40(x8)
600007b8:	02045903          	lhu	x18,32(x8)
600007bc:	02245483          	lhu	x9,34(x8)
600007c0:	02a45f03          	lhu	x30,42(x8)
600007c4:	01d11323          	sh	x29,6(x2)
600007c8:	03c11223          	sh	x28,36(x2)
600007cc:	02c45e83          	lhu	x29,44(x8)
600007d0:	02e45e03          	lhu	x28,46(x8)
600007d4:	02611323          	sh	x6,38(x2)
600007d8:	01111423          	sh	x17,8(x2)
600007dc:	03045303          	lhu	x6,48(x8)
600007e0:	03245883          	lhu	x17,50(x8)
600007e4:	01011523          	sh	x16,10(x2)
600007e8:	02b11523          	sh	x11,42(x2)
600007ec:	03445803          	lhu	x16,52(x8)
600007f0:	03645583          	lhu	x11,54(x8)
600007f4:	00c11623          	sh	x12,12(x2)
600007f8:	00d11723          	sh	x13,14(x2)
600007fc:	03845603          	lhu	x12,56(x8)
60000800:	03a45683          	lhu	x13,58(x8)
60000804:	02e11623          	sh	x14,44(x2)
60000808:	02f11723          	sh	x15,46(x2)
6000080c:	03c45703          	lhu	x14,60(x8)
60000810:	03e45783          	lhu	x15,62(x8)
60000814:	02711823          	sh	x7,48(x2)
60000818:	02511923          	sh	x5,50(x2)
6000081c:	01f11a23          	sh	x31,20(x2)
60000820:	02a11423          	sh	x10,40(x2)
60000824:	01211823          	sh	x18,16(x2)
60000828:	00010513          	mv	x10,x2
6000082c:	00911923          	sh	x9,18(x2)
60000830:	01e11b23          	sh	x30,22(x2)
60000834:	03d11a23          	sh	x29,52(x2)
60000838:	03c11b23          	sh	x28,54(x2)
6000083c:	00611c23          	sh	x6,24(x2)
60000840:	01111d23          	sh	x17,26(x2)
60000844:	03011c23          	sh	x16,56(x2)
60000848:	02b11d23          	sh	x11,58(x2)
6000084c:	00c11e23          	sh	x12,28(x2)
60000850:	00d11f23          	sh	x13,30(x2)
60000854:	02e11e23          	sh	x14,60(x2)
60000858:	02f11f23          	sh	x15,62(x2)
6000085c:	00000097          	auipc	x1,0x0
60000860:	c54080e7          	jalr	-940(x1) # 600004b0 <fft.constprop.6>
60000864:	02010513          	addi	x10,x2,32
60000868:	00000097          	auipc	x1,0x0
6000086c:	c48080e7          	jalr	-952(x1) # 600004b0 <fft.constprop.6>
60000870:	02215583          	lhu	x11,34(x2)
60000874:	02015603          	lhu	x12,32(x2)
60000878:	000087b7          	lui	x15,0x8
6000087c:	00f59593          	slli	x11,x11,0xf
60000880:	00f61613          	slli	x12,x12,0xf
60000884:	01059593          	slli	x11,x11,0x10
60000888:	01061613          	slli	x12,x12,0x10
6000088c:	4105d593          	srai	x11,x11,0x10
60000890:	41065613          	srai	x12,x12,0x10
60000894:	fff78793          	addi	x15,x15,-1 # 7fff <_start-0x5fff8001>
60000898:	41f5d713          	srai	x14,x11,0x1f
6000089c:	41f65693          	srai	x13,x12,0x1f
600008a0:	00f77733          	and	x14,x14,x15
600008a4:	00f6f6b3          	and	x13,x13,x15
600008a8:	00b70733          	add	x14,x14,x11
600008ac:	00c686b3          	add	x13,x13,x12
600008b0:	00215503          	lhu	x10,2(x2)
600008b4:	00015c83          	lhu	x25,0(x2)
600008b8:	40f75713          	srai	x14,x14,0xf
600008bc:	40f6d693          	srai	x13,x13,0xf
600008c0:	01069693          	slli	x13,x13,0x10
600008c4:	01071713          	slli	x14,x14,0x10
600008c8:	0106d693          	srli	x13,x13,0x10
600008cc:	01075713          	srli	x14,x14,0x10
600008d0:	00411c03          	lh	x24,4(x2)
600008d4:	00611b83          	lh	x23,6(x2)
600008d8:	00811b03          	lh	x22,8(x2)
600008dc:	00a11a83          	lh	x21,10(x2)
600008e0:	00c11a03          	lh	x20,12(x2)
600008e4:	00e11983          	lh	x19,14(x2)
600008e8:	01011903          	lh	x18,16(x2)
600008ec:	01211483          	lh	x9,18(x2)
600008f0:	019683b3          	add	x7,x13,x25
600008f4:	00a70d33          	add	x26,x14,x10
600008f8:	40dc8cb3          	sub	x25,x25,x13
600008fc:	40e50733          	sub	x14,x10,x14
60000900:	01039393          	slli	x7,x7,0x10
60000904:	010d1d13          	slli	x26,x26,0x10
60000908:	010c9c93          	slli	x25,x25,0x10
6000090c:	01071713          	slli	x14,x14,0x10
60000910:	410d5d13          	srai	x26,x26,0x10
60000914:	410cdc93          	srai	x25,x25,0x10
60000918:	41075713          	srai	x14,x14,0x10
6000091c:	4103d393          	srai	x7,x7,0x10
60000920:	41fd5e93          	srai	x29,x26,0x1f
60000924:	41fcde13          	srai	x28,x25,0x1f
60000928:	41f75f93          	srai	x31,x14,0x1f
6000092c:	41fc5293          	srai	x5,x24,0x1f
60000930:	41fbd313          	srai	x6,x23,0x1f
60000934:	41fb5893          	srai	x17,x22,0x1f
60000938:	41fad813          	srai	x16,x21,0x1f
6000093c:	41fa5513          	srai	x10,x20,0x1f
60000940:	41f9d593          	srai	x11,x19,0x1f
60000944:	41f95613          	srai	x12,x18,0x1f
60000948:	41f4d693          	srai	x13,x9,0x1f
6000094c:	41f3df13          	srai	x30,x7,0x1f
60000950:	00f6f6b3          	and	x13,x13,x15
60000954:	00ff7f33          	and	x30,x30,x15
60000958:	00fefeb3          	and	x29,x29,x15
6000095c:	00fe7e33          	and	x28,x28,x15
60000960:	00ffffb3          	and	x31,x31,x15
60000964:	00f2f2b3          	and	x5,x5,x15
60000968:	00f37333          	and	x6,x6,x15
6000096c:	00f8f8b3          	and	x17,x17,x15
60000970:	00f87833          	and	x16,x16,x15
60000974:	00f57533          	and	x10,x10,x15
60000978:	00f5f5b3          	and	x11,x11,x15
6000097c:	00f67633          	and	x12,x12,x15
60000980:	01260633          	add	x12,x12,x18
60000984:	01ae8eb3          	add	x29,x29,x26
60000988:	019e0e33          	add	x28,x28,x25
6000098c:	00ef8fb3          	add	x31,x31,x14
60000990:	018282b3          	add	x5,x5,x24
60000994:	00968733          	add	x14,x13,x9
60000998:	01730333          	add	x6,x6,x23
6000099c:	016888b3          	add	x17,x17,x22
600009a0:	01580833          	add	x16,x16,x21
600009a4:	01450533          	add	x10,x10,x20
600009a8:	013585b3          	add	x11,x11,x19
600009ac:	007f0f33          	add	x30,x30,x7
600009b0:	40f65693          	srai	x13,x12,0xf
600009b4:	40f35313          	srai	x6,x6,0xf
600009b8:	40f8d893          	srai	x17,x17,0xf
600009bc:	40f85813          	srai	x16,x16,0xf
600009c0:	40f55513          	srai	x10,x10,0xf
600009c4:	40f5d593          	srai	x11,x11,0xf
600009c8:	40f75713          	srai	x14,x14,0xf
600009cc:	40f2d293          	srai	x5,x5,0xf
600009d0:	40ff5f13          	srai	x30,x30,0xf
600009d4:	40fede93          	srai	x29,x29,0xf
600009d8:	40fe5e13          	srai	x28,x28,0xf
600009dc:	40ffdf93          	srai	x31,x31,0xf
600009e0:	01e41023          	sh	x30,0(x8)
600009e4:	01d41123          	sh	x29,2(x8)
600009e8:	03c41023          	sh	x28,32(x8)
600009ec:	00641323          	sh	x6,6(x8)
600009f0:	02641323          	sh	x6,38(x8)
600009f4:	01141423          	sh	x17,8(x8)
600009f8:	01041523          	sh	x16,10(x8)
600009fc:	03141423          	sh	x17,40(x8)
60000a00:	03041523          	sh	x16,42(x8)
60000a04:	00a41623          	sh	x10,12(x8)
60000a08:	00b41723          	sh	x11,14(x8)
60000a0c:	02a41623          	sh	x10,44(x8)
60000a10:	02b41723          	sh	x11,46(x8)
60000a14:	00d41823          	sh	x13,16(x8)
60000a18:	00e41923          	sh	x14,18(x8)
60000a1c:	02d41823          	sh	x13,48(x8)
60000a20:	02e41923          	sh	x14,50(x8)
60000a24:	03f41123          	sh	x31,34(x8)
60000a28:	00541223          	sh	x5,4(x8)
60000a2c:	02541223          	sh	x5,36(x8)
60000a30:	01411f83          	lh	x31,20(x2)
60000a34:	01611f03          	lh	x30,22(x2)
60000a38:	01811e83          	lh	x29,24(x2)
60000a3c:	01a11e03          	lh	x28,26(x2)
60000a40:	01c11303          	lh	x6,28(x2)
60000a44:	01e11883          	lh	x17,30(x2)
60000a48:	41ffd813          	srai	x16,x31,0x1f
60000a4c:	41ff5513          	srai	x10,x30,0x1f
60000a50:	41f8d713          	srai	x14,x17,0x1f
60000a54:	41fed593          	srai	x11,x29,0x1f
60000a58:	41fe5613          	srai	x12,x28,0x1f
60000a5c:	41f35693          	srai	x13,x6,0x1f
60000a60:	00f6f6b3          	and	x13,x13,x15
60000a64:	00f87833          	and	x16,x16,x15
60000a68:	00f57533          	and	x10,x10,x15
60000a6c:	00f5f5b3          	and	x11,x11,x15
60000a70:	00f67633          	and	x12,x12,x15
60000a74:	00f777b3          	and	x15,x14,x15
60000a78:	01f80833          	add	x16,x16,x31
60000a7c:	00668733          	add	x14,x13,x6
60000a80:	01e50533          	add	x10,x10,x30
60000a84:	01d585b3          	add	x11,x11,x29
60000a88:	01c60633          	add	x12,x12,x28
60000a8c:	011787b3          	add	x15,x15,x17
60000a90:	40f85813          	srai	x16,x16,0xf
60000a94:	40f55513          	srai	x10,x10,0xf
60000a98:	40f5d593          	srai	x11,x11,0xf
60000a9c:	40f65693          	srai	x13,x12,0xf
60000aa0:	40f75713          	srai	x14,x14,0xf
60000aa4:	40f7d793          	srai	x15,x15,0xf
60000aa8:	06c12083          	lw	x1,108(x2)
60000aac:	01041a23          	sh	x16,20(x8)
60000ab0:	00a41b23          	sh	x10,22(x8)
60000ab4:	03041a23          	sh	x16,52(x8)
60000ab8:	02a41b23          	sh	x10,54(x8)
60000abc:	00b41c23          	sh	x11,24(x8)
60000ac0:	00d41d23          	sh	x13,26(x8)
60000ac4:	02b41c23          	sh	x11,56(x8)
60000ac8:	02d41d23          	sh	x13,58(x8)
60000acc:	00e41e23          	sh	x14,28(x8)
60000ad0:	00f41f23          	sh	x15,30(x8)
60000ad4:	02e41e23          	sh	x14,60(x8)
60000ad8:	02f41f23          	sh	x15,62(x8)
60000adc:	06812403          	lw	x8,104(x2)
60000ae0:	06412483          	lw	x9,100(x2)
60000ae4:	06012903          	lw	x18,96(x2)
60000ae8:	05c12983          	lw	x19,92(x2)
60000aec:	05812a03          	lw	x20,88(x2)
60000af0:	05412a83          	lw	x21,84(x2)
60000af4:	05012b03          	lw	x22,80(x2)
60000af8:	04c12b83          	lw	x23,76(x2)
60000afc:	04812c03          	lw	x24,72(x2)
60000b00:	04412c83          	lw	x25,68(x2)
60000b04:	04012d03          	lw	x26,64(x2)
60000b08:	07010113          	addi	x2,x2,112
60000b0c:	00008067          	ret

60000b10 <fft.constprop.4>:
60000b10:	f7010113          	addi	x2,x2,-144
60000b14:	08812423          	sw	x8,136(x2)
60000b18:	00050413          	mv	x8,x10
60000b1c:	00255383          	lhu	x7,2(x10)
60000b20:	00455283          	lhu	x5,4(x10)
60000b24:	00655f83          	lhu	x31,6(x10)
60000b28:	00855f03          	lhu	x30,8(x10)
60000b2c:	00a55e83          	lhu	x29,10(x10)
60000b30:	00c55e03          	lhu	x28,12(x10)
60000b34:	00e55303          	lhu	x6,14(x10)
60000b38:	01055883          	lhu	x17,16(x10)
60000b3c:	01255803          	lhu	x16,18(x10)
60000b40:	01645583          	lhu	x11,22(x8)
60000b44:	01845603          	lhu	x12,24(x8)
60000b48:	08112623          	sw	x1,140(x2)
60000b4c:	00055083          	lhu	x1,0(x10)
60000b50:	01455503          	lhu	x10,20(x10)
60000b54:	01a45683          	lhu	x13,26(x8)
60000b58:	01c45703          	lhu	x14,28(x8)
60000b5c:	01e45783          	lhu	x15,30(x8)
60000b60:	08912223          	sw	x9,132(x2)
60000b64:	00111023          	sh	x1,0(x2)
60000b68:	00711123          	sh	x7,2(x2)
60000b6c:	04511023          	sh	x5,64(x2)
60000b70:	05f11123          	sh	x31,66(x2)
60000b74:	01e11223          	sh	x30,4(x2)
60000b78:	01d11323          	sh	x29,6(x2)
60000b7c:	05c11223          	sh	x28,68(x2)
60000b80:	04611323          	sh	x6,70(x2)
60000b84:	01111423          	sh	x17,8(x2)
60000b88:	01011523          	sh	x16,10(x2)
60000b8c:	04a11423          	sh	x10,72(x2)
60000b90:	04b11523          	sh	x11,74(x2)
60000b94:	00c11623          	sh	x12,12(x2)
60000b98:	00d11723          	sh	x13,14(x2)
60000b9c:	02045083          	lhu	x1,32(x8)
60000ba0:	02245383          	lhu	x7,34(x8)
60000ba4:	02445283          	lhu	x5,36(x8)
60000ba8:	02645f83          	lhu	x31,38(x8)
60000bac:	02845f03          	lhu	x30,40(x8)
60000bb0:	02a45e83          	lhu	x29,42(x8)
60000bb4:	02c45e03          	lhu	x28,44(x8)
60000bb8:	02e45303          	lhu	x6,46(x8)
60000bbc:	03045883          	lhu	x17,48(x8)
60000bc0:	03245803          	lhu	x16,50(x8)
60000bc4:	03445503          	lhu	x10,52(x8)
60000bc8:	03645583          	lhu	x11,54(x8)
60000bcc:	03845603          	lhu	x12,56(x8)
60000bd0:	03a45683          	lhu	x13,58(x8)
60000bd4:	04e11623          	sh	x14,76(x2)
60000bd8:	03c45703          	lhu	x14,60(x8)
60000bdc:	04f11723          	sh	x15,78(x2)
60000be0:	03e45783          	lhu	x15,62(x8)
60000be4:	00111823          	sh	x1,16(x2)
60000be8:	00711923          	sh	x7,18(x2)
60000bec:	04511823          	sh	x5,80(x2)
60000bf0:	05f11923          	sh	x31,82(x2)
60000bf4:	01e11a23          	sh	x30,20(x2)
60000bf8:	01d11b23          	sh	x29,22(x2)
60000bfc:	05c11a23          	sh	x28,84(x2)
60000c00:	04611b23          	sh	x6,86(x2)
60000c04:	01111c23          	sh	x17,24(x2)
60000c08:	01011d23          	sh	x16,26(x2)
60000c0c:	04a11c23          	sh	x10,88(x2)
60000c10:	04b11d23          	sh	x11,90(x2)
60000c14:	00c11e23          	sh	x12,28(x2)
60000c18:	00d11f23          	sh	x13,30(x2)
60000c1c:	04e11e23          	sh	x14,92(x2)
60000c20:	04045083          	lhu	x1,64(x8)
60000c24:	04245383          	lhu	x7,66(x8)
60000c28:	04445283          	lhu	x5,68(x8)
60000c2c:	04645f83          	lhu	x31,70(x8)
60000c30:	04845f03          	lhu	x30,72(x8)
60000c34:	04a45e83          	lhu	x29,74(x8)
60000c38:	04c45e03          	lhu	x28,76(x8)
60000c3c:	04e45303          	lhu	x6,78(x8)
60000c40:	05045883          	lhu	x17,80(x8)
60000c44:	05245803          	lhu	x16,82(x8)
60000c48:	05445503          	lhu	x10,84(x8)
60000c4c:	05645583          	lhu	x11,86(x8)
60000c50:	05845603          	lhu	x12,88(x8)
60000c54:	05a45683          	lhu	x13,90(x8)
60000c58:	05c45703          	lhu	x14,92(x8)
60000c5c:	04f11f23          	sh	x15,94(x2)
60000c60:	05e45783          	lhu	x15,94(x8)
60000c64:	02111023          	sh	x1,32(x2)
60000c68:	02711123          	sh	x7,34(x2)
60000c6c:	06511023          	sh	x5,96(x2)
60000c70:	07f11123          	sh	x31,98(x2)
60000c74:	03e11223          	sh	x30,36(x2)
60000c78:	03d11323          	sh	x29,38(x2)
60000c7c:	07c11223          	sh	x28,100(x2)
60000c80:	06611323          	sh	x6,102(x2)
60000c84:	03111423          	sh	x17,40(x2)
60000c88:	03011523          	sh	x16,42(x2)
60000c8c:	06a11423          	sh	x10,104(x2)
60000c90:	06b11523          	sh	x11,106(x2)
60000c94:	02c11623          	sh	x12,44(x2)
60000c98:	02d11723          	sh	x13,46(x2)
60000c9c:	06e11623          	sh	x14,108(x2)
60000ca0:	06f11723          	sh	x15,110(x2)
60000ca4:	07245883          	lhu	x17,114(x8)
60000ca8:	07445803          	lhu	x16,116(x8)
60000cac:	07645583          	lhu	x11,118(x8)
60000cb0:	07845603          	lhu	x12,120(x8)
60000cb4:	06245083          	lhu	x1,98(x8)
60000cb8:	06445383          	lhu	x7,100(x8)
60000cbc:	06645283          	lhu	x5,102(x8)
60000cc0:	06845f83          	lhu	x31,104(x8)
60000cc4:	06a45f03          	lhu	x30,106(x8)
60000cc8:	06c45e83          	lhu	x29,108(x8)
60000ccc:	06e45e03          	lhu	x28,110(x8)
60000cd0:	07045303          	lhu	x6,112(x8)
60000cd4:	07a45683          	lhu	x13,122(x8)
60000cd8:	07c45703          	lhu	x14,124(x8)
60000cdc:	07e45783          	lhu	x15,126(x8)
60000ce0:	06045483          	lhu	x9,96(x8)
60000ce4:	00010513          	mv	x10,x2
60000ce8:	03111d23          	sh	x17,58(x2)
60000cec:	07011c23          	sh	x16,120(x2)
60000cf0:	06b11d23          	sh	x11,122(x2)
60000cf4:	02c11e23          	sh	x12,60(x2)
60000cf8:	02111923          	sh	x1,50(x2)
60000cfc:	06711823          	sh	x7,112(x2)
60000d00:	06511923          	sh	x5,114(x2)
60000d04:	03f11a23          	sh	x31,52(x2)
60000d08:	03e11b23          	sh	x30,54(x2)
60000d0c:	07d11a23          	sh	x29,116(x2)
60000d10:	07c11b23          	sh	x28,118(x2)
60000d14:	02611c23          	sh	x6,56(x2)
60000d18:	02d11f23          	sh	x13,62(x2)
60000d1c:	06e11e23          	sh	x14,124(x2)
60000d20:	06f11f23          	sh	x15,126(x2)
60000d24:	02911823          	sh	x9,48(x2)
60000d28:	00000097          	auipc	x1,0x0
60000d2c:	9f8080e7          	jalr	-1544(x1) # 60000720 <fft.constprop.5>
60000d30:	04010513          	addi	x10,x2,64
60000d34:	00000097          	auipc	x1,0x0
60000d38:	9ec080e7          	jalr	-1556(x1) # 60000720 <fft.constprop.5>
60000d3c:	00008637          	lui	x12,0x8
60000d40:	04010593          	addi	x11,x2,64
60000d44:	00010513          	mv	x10,x2
60000d48:	08010893          	addi	x17,x2,128
60000d4c:	ffff8837          	lui	x16,0xffff8
60000d50:	fff60613          	addi	x12,x12,-1 # 7fff <_start-0x5fff8001>
60000d54:	0025d683          	lhu	x13,2(x11)
60000d58:	01081713          	slli	x14,x16,0x10
60000d5c:	01075713          	srli	x14,x14,0x10
60000d60:	02d706b3          	mul	x13,x14,x13
60000d64:	0005d783          	lhu	x15,0(x11)
60000d68:	00255e03          	lhu	x28,2(x10)
60000d6c:	00055e83          	lhu	x29,0(x10)
60000d70:	00440413          	addi	x8,x8,4
60000d74:	00458593          	addi	x11,x11,4
60000d78:	00450513          	addi	x10,x10,4
60000d7c:	00000813          	li	x16,0
60000d80:	02f70733          	mul	x14,x14,x15
60000d84:	01069693          	slli	x13,x13,0x10
60000d88:	4106d693          	srai	x13,x13,0x10
60000d8c:	41f6d793          	srai	x15,x13,0x1f
60000d90:	00c7f7b3          	and	x15,x15,x12
60000d94:	00d787b3          	add	x15,x15,x13
60000d98:	40f7d793          	srai	x15,x15,0xf
60000d9c:	01079793          	slli	x15,x15,0x10
60000da0:	0107d793          	srli	x15,x15,0x10
60000da4:	00fe0f33          	add	x30,x28,x15
60000da8:	01071713          	slli	x14,x14,0x10
60000dac:	41075713          	srai	x14,x14,0x10
60000db0:	40fe0e33          	sub	x28,x28,x15
60000db4:	41f75793          	srai	x15,x14,0x1f
60000db8:	00c7f7b3          	and	x15,x15,x12
60000dbc:	00e787b3          	add	x15,x15,x14
60000dc0:	40f7d793          	srai	x15,x15,0xf
60000dc4:	01079793          	slli	x15,x15,0x10
60000dc8:	0107d793          	srli	x15,x15,0x10
60000dcc:	00fe8fb3          	add	x31,x29,x15
60000dd0:	40fe8eb3          	sub	x29,x29,x15
60000dd4:	010f1f13          	slli	x30,x30,0x10
60000dd8:	010f9f93          	slli	x31,x31,0x10
60000ddc:	010e9e93          	slli	x29,x29,0x10
60000de0:	010e1e13          	slli	x28,x28,0x10
60000de4:	410f5f13          	srai	x30,x30,0x10
60000de8:	410fdf93          	srai	x31,x31,0x10
60000dec:	410ede93          	srai	x29,x29,0x10
60000df0:	410e5e13          	srai	x28,x28,0x10
60000df4:	41ffd313          	srai	x6,x31,0x1f
60000df8:	41ff5693          	srai	x13,x30,0x1f
60000dfc:	41fed713          	srai	x14,x29,0x1f
60000e00:	41fe5793          	srai	x15,x28,0x1f
60000e04:	00c37333          	and	x6,x6,x12
60000e08:	00c6f6b3          	and	x13,x13,x12
60000e0c:	00c77733          	and	x14,x14,x12
60000e10:	00c7f7b3          	and	x15,x15,x12
60000e14:	01f30333          	add	x6,x6,x31
60000e18:	01e686b3          	add	x13,x13,x30
60000e1c:	01d70733          	add	x14,x14,x29
60000e20:	01c787b3          	add	x15,x15,x28
60000e24:	40f35313          	srai	x6,x6,0xf
60000e28:	40f6d693          	srai	x13,x13,0xf
60000e2c:	40f75713          	srai	x14,x14,0xf
60000e30:	40f7d793          	srai	x15,x15,0xf
60000e34:	fe641e23          	sh	x6,-4(x8)
60000e38:	fed41f23          	sh	x13,-2(x8)
60000e3c:	02e41e23          	sh	x14,60(x8)
60000e40:	02f41f23          	sh	x15,62(x8)
60000e44:	f0b898e3          	bne	x17,x11,60000d54 <fft.constprop.4+0x244>
60000e48:	08c12083          	lw	x1,140(x2)
60000e4c:	08812403          	lw	x8,136(x2)
60000e50:	08412483          	lw	x9,132(x2)
60000e54:	09010113          	addi	x2,x2,144
60000e58:	00008067          	ret

60000e5c <fft.constprop.3>:
60000e5c:	ef010113          	addi	x2,x2,-272
60000e60:	10912223          	sw	x9,260(x2)
60000e64:	08010493          	addi	x9,x2,128
60000e68:	10812423          	sw	x8,264(x2)
60000e6c:	11212023          	sw	x18,256(x2)
60000e70:	10112623          	sw	x1,268(x2)
60000e74:	00050413          	mv	x8,x10
60000e78:	00010913          	mv	x18,x2
60000e7c:	00048693          	mv	x13,x9
60000e80:	00010713          	mv	x14,x2
60000e84:	00050793          	mv	x15,x10
60000e88:	0007d803          	lhu	x16,0(x15)
60000e8c:	0027d503          	lhu	x10,2(x15)
60000e90:	0047d583          	lhu	x11,4(x15)
60000e94:	0067d603          	lhu	x12,6(x15)
60000e98:	01071023          	sh	x16,0(x14)
60000e9c:	00a71123          	sh	x10,2(x14)
60000ea0:	00b69023          	sh	x11,0(x13)
60000ea4:	00c69123          	sh	x12,2(x13)
60000ea8:	00470713          	addi	x14,x14,4
60000eac:	00878793          	addi	x15,x15,8
60000eb0:	00468693          	addi	x13,x13,4
60000eb4:	fce49ae3          	bne	x9,x14,60000e88 <fft.constprop.3+0x2c>
60000eb8:	00010513          	mv	x10,x2
60000ebc:	00000097          	auipc	x1,0x0
60000ec0:	c54080e7          	jalr	-940(x1) # 60000b10 <fft.constprop.4>
60000ec4:	00048513          	mv	x10,x9
60000ec8:	00000097          	auipc	x1,0x0
60000ecc:	c48080e7          	jalr	-952(x1) # 60000b10 <fft.constprop.4>
60000ed0:	00008637          	lui	x12,0x8
60000ed4:	10010513          	addi	x10,x2,256
60000ed8:	ffff85b7          	lui	x11,0xffff8
60000edc:	fff60613          	addi	x12,x12,-1 # 7fff <_start-0x5fff8001>
60000ee0:	0024d683          	lhu	x13,2(x9)
60000ee4:	01059713          	slli	x14,x11,0x10
60000ee8:	01075713          	srli	x14,x14,0x10
60000eec:	02d706b3          	mul	x13,x14,x13
60000ef0:	0004d783          	lhu	x15,0(x9)
60000ef4:	00295883          	lhu	x17,2(x18)
60000ef8:	00095303          	lhu	x6,0(x18)
60000efc:	00440413          	addi	x8,x8,4
60000f00:	00448493          	addi	x9,x9,4
60000f04:	00490913          	addi	x18,x18,4
60000f08:	00000593          	li	x11,0
60000f0c:	02f70733          	mul	x14,x14,x15
60000f10:	01069693          	slli	x13,x13,0x10
60000f14:	4106d693          	srai	x13,x13,0x10
60000f18:	41f6d793          	srai	x15,x13,0x1f
60000f1c:	00c7f7b3          	and	x15,x15,x12
60000f20:	00d787b3          	add	x15,x15,x13
60000f24:	40f7d793          	srai	x15,x15,0xf
60000f28:	01079793          	slli	x15,x15,0x10
60000f2c:	0107d793          	srli	x15,x15,0x10
60000f30:	00f88e33          	add	x28,x17,x15
60000f34:	01071713          	slli	x14,x14,0x10
60000f38:	41075713          	srai	x14,x14,0x10
60000f3c:	40f888b3          	sub	x17,x17,x15
60000f40:	41f75793          	srai	x15,x14,0x1f
60000f44:	00c7f7b3          	and	x15,x15,x12
60000f48:	00e787b3          	add	x15,x15,x14
60000f4c:	40f7d793          	srai	x15,x15,0xf
60000f50:	01079793          	slli	x15,x15,0x10
60000f54:	0107d793          	srli	x15,x15,0x10
60000f58:	00f30eb3          	add	x29,x6,x15
60000f5c:	40f30333          	sub	x6,x6,x15
60000f60:	010e1e13          	slli	x28,x28,0x10
60000f64:	010e9e93          	slli	x29,x29,0x10
60000f68:	01031313          	slli	x6,x6,0x10
60000f6c:	01089893          	slli	x17,x17,0x10
60000f70:	410e5e13          	srai	x28,x28,0x10
60000f74:	410ede93          	srai	x29,x29,0x10
60000f78:	41035313          	srai	x6,x6,0x10
60000f7c:	4108d893          	srai	x17,x17,0x10
60000f80:	41fed813          	srai	x16,x29,0x1f
60000f84:	41fe5693          	srai	x13,x28,0x1f
60000f88:	41f35713          	srai	x14,x6,0x1f
60000f8c:	41f8d793          	srai	x15,x17,0x1f
60000f90:	00c87833          	and	x16,x16,x12
60000f94:	00c6f6b3          	and	x13,x13,x12
60000f98:	00c77733          	and	x14,x14,x12
60000f9c:	00c7f7b3          	and	x15,x15,x12
60000fa0:	01d80833          	add	x16,x16,x29
60000fa4:	01c686b3          	add	x13,x13,x28
60000fa8:	00670733          	add	x14,x14,x6
60000fac:	011787b3          	add	x15,x15,x17
60000fb0:	40f85813          	srai	x16,x16,0xf
60000fb4:	40f6d693          	srai	x13,x13,0xf
60000fb8:	40f75713          	srai	x14,x14,0xf
60000fbc:	40f7d793          	srai	x15,x15,0xf
60000fc0:	ff041e23          	sh	x16,-4(x8)
60000fc4:	fed41f23          	sh	x13,-2(x8)
60000fc8:	06e41e23          	sh	x14,124(x8)
60000fcc:	06f41f23          	sh	x15,126(x8)
60000fd0:	f09518e3          	bne	x10,x9,60000ee0 <fft.constprop.3+0x84>
60000fd4:	10c12083          	lw	x1,268(x2)
60000fd8:	10812403          	lw	x8,264(x2)
60000fdc:	10412483          	lw	x9,260(x2)
60000fe0:	10012903          	lw	x18,256(x2)
60000fe4:	11010113          	addi	x2,x2,272
60000fe8:	00008067          	ret

60000fec <fft.constprop.2>:
60000fec:	df010113          	addi	x2,x2,-528
60000ff0:	20912223          	sw	x9,516(x2)
60000ff4:	10010493          	addi	x9,x2,256
60000ff8:	20812423          	sw	x8,520(x2)
60000ffc:	21212023          	sw	x18,512(x2)
60001000:	20112623          	sw	x1,524(x2)
60001004:	00050413          	mv	x8,x10
60001008:	00010913          	mv	x18,x2
6000100c:	00048693          	mv	x13,x9
60001010:	00010713          	mv	x14,x2
60001014:	00050793          	mv	x15,x10
60001018:	0007d803          	lhu	x16,0(x15)
6000101c:	0027d503          	lhu	x10,2(x15)
60001020:	0047d583          	lhu	x11,4(x15)
60001024:	0067d603          	lhu	x12,6(x15)
60001028:	01071023          	sh	x16,0(x14)
6000102c:	00a71123          	sh	x10,2(x14)
60001030:	00b69023          	sh	x11,0(x13)
60001034:	00c69123          	sh	x12,2(x13)
60001038:	00470713          	addi	x14,x14,4
6000103c:	00878793          	addi	x15,x15,8
60001040:	00468693          	addi	x13,x13,4
60001044:	fce49ae3          	bne	x9,x14,60001018 <fft.constprop.2+0x2c>
60001048:	00010513          	mv	x10,x2
6000104c:	00000097          	auipc	x1,0x0
60001050:	e10080e7          	jalr	-496(x1) # 60000e5c <fft.constprop.3>
60001054:	00048513          	mv	x10,x9
60001058:	00000097          	auipc	x1,0x0
6000105c:	e04080e7          	jalr	-508(x1) # 60000e5c <fft.constprop.3>
60001060:	00008637          	lui	x12,0x8
60001064:	20010513          	addi	x10,x2,512
60001068:	ffff85b7          	lui	x11,0xffff8
6000106c:	fff60613          	addi	x12,x12,-1 # 7fff <_start-0x5fff8001>
60001070:	0024d683          	lhu	x13,2(x9)
60001074:	01059713          	slli	x14,x11,0x10
60001078:	01075713          	srli	x14,x14,0x10
6000107c:	02d706b3          	mul	x13,x14,x13
60001080:	0004d783          	lhu	x15,0(x9)
60001084:	00295883          	lhu	x17,2(x18)
60001088:	00095303          	lhu	x6,0(x18)
6000108c:	00440413          	addi	x8,x8,4
60001090:	00448493          	addi	x9,x9,4
60001094:	00490913          	addi	x18,x18,4
60001098:	00000593          	li	x11,0
6000109c:	02f70733          	mul	x14,x14,x15
600010a0:	01069693          	slli	x13,x13,0x10
600010a4:	4106d693          	srai	x13,x13,0x10
600010a8:	41f6d793          	srai	x15,x13,0x1f
600010ac:	00c7f7b3          	and	x15,x15,x12
600010b0:	00d787b3          	add	x15,x15,x13
600010b4:	40f7d793          	srai	x15,x15,0xf
600010b8:	01079793          	slli	x15,x15,0x10
600010bc:	0107d793          	srli	x15,x15,0x10
600010c0:	00f88e33          	add	x28,x17,x15
600010c4:	01071713          	slli	x14,x14,0x10
600010c8:	41075713          	srai	x14,x14,0x10
600010cc:	40f888b3          	sub	x17,x17,x15
600010d0:	41f75793          	srai	x15,x14,0x1f
600010d4:	00c7f7b3          	and	x15,x15,x12
600010d8:	00e787b3          	add	x15,x15,x14
600010dc:	40f7d793          	srai	x15,x15,0xf
600010e0:	01079793          	slli	x15,x15,0x10
600010e4:	0107d793          	srli	x15,x15,0x10
600010e8:	00f30eb3          	add	x29,x6,x15
600010ec:	40f30333          	sub	x6,x6,x15
600010f0:	010e1e13          	slli	x28,x28,0x10
600010f4:	010e9e93          	slli	x29,x29,0x10
600010f8:	01031313          	slli	x6,x6,0x10
600010fc:	01089893          	slli	x17,x17,0x10
60001100:	410e5e13          	srai	x28,x28,0x10
60001104:	410ede93          	srai	x29,x29,0x10
60001108:	41035313          	srai	x6,x6,0x10
6000110c:	4108d893          	srai	x17,x17,0x10
60001110:	41fed813          	srai	x16,x29,0x1f
60001114:	41fe5693          	srai	x13,x28,0x1f
60001118:	41f35713          	srai	x14,x6,0x1f
6000111c:	41f8d793          	srai	x15,x17,0x1f
60001120:	00c87833          	and	x16,x16,x12
60001124:	00c6f6b3          	and	x13,x13,x12
60001128:	00c77733          	and	x14,x14,x12
6000112c:	00c7f7b3          	and	x15,x15,x12
60001130:	01d80833          	add	x16,x16,x29
60001134:	01c686b3          	add	x13,x13,x28
60001138:	00670733          	add	x14,x14,x6
6000113c:	011787b3          	add	x15,x15,x17
60001140:	40f85813          	srai	x16,x16,0xf
60001144:	40f6d693          	srai	x13,x13,0xf
60001148:	40f75713          	srai	x14,x14,0xf
6000114c:	40f7d793          	srai	x15,x15,0xf
60001150:	ff041e23          	sh	x16,-4(x8)
60001154:	fed41f23          	sh	x13,-2(x8)
60001158:	0ee41e23          	sh	x14,252(x8)
6000115c:	0ef41f23          	sh	x15,254(x8)
60001160:	f09518e3          	bne	x10,x9,60001070 <fft.constprop.2+0x84>
60001164:	20c12083          	lw	x1,524(x2)
60001168:	20812403          	lw	x8,520(x2)
6000116c:	20412483          	lw	x9,516(x2)
60001170:	20012903          	lw	x18,512(x2)
60001174:	21010113          	addi	x2,x2,528
60001178:	00008067          	ret

6000117c <fft.constprop.1>:
6000117c:	fe010113          	addi	x2,x2,-32
60001180:	00812c23          	sw	x8,24(x2)
60001184:	00912a23          	sw	x9,20(x2)
60001188:	01212823          	sw	x18,16(x2)
6000118c:	01312623          	sw	x19,12(x2)
60001190:	01412423          	sw	x20,8(x2)
60001194:	01512223          	sw	x21,4(x2)
60001198:	00112e23          	sw	x1,28(x2)
6000119c:	02010413          	addi	x8,x2,32
600011a0:	e0010113          	addi	x2,x2,-512
600011a4:	00010313          	mv	x6,x2
600011a8:	e0010113          	addi	x2,x2,-512
600011ac:	00010a93          	mv	x21,x2
600011b0:	00050a13          	mv	x20,x10
600011b4:	00030493          	mv	x9,x6
600011b8:	000a8913          	mv	x18,x21
600011bc:	00450793          	addi	x15,x10,4
600011c0:	20030993          	addi	x19,x6,512
600011c4:	000a8693          	mv	x13,x21
600011c8:	00030713          	mv	x14,x6
600011cc:	ffc7d883          	lhu	x17,-4(x15)
600011d0:	ffe7d803          	lhu	x16,-2(x15)
600011d4:	0007d583          	lhu	x11,0(x15)
600011d8:	0027d603          	lhu	x12,2(x15)
600011dc:	01171023          	sh	x17,0(x14)
600011e0:	01071123          	sh	x16,2(x14)
600011e4:	00b69023          	sh	x11,0(x13)
600011e8:	00c69123          	sh	x12,2(x13)
600011ec:	00470713          	addi	x14,x14,4
600011f0:	00468693          	addi	x13,x13,4
600011f4:	00878793          	addi	x15,x15,8
600011f8:	fce99ae3          	bne	x19,x14,600011cc <fft.constprop.1+0x50>
600011fc:	00030513          	mv	x10,x6
60001200:	00000097          	auipc	x1,0x0
60001204:	dec080e7          	jalr	-532(x1) # 60000fec <fft.constprop.2>
60001208:	000a8513          	mv	x10,x21
6000120c:	00000097          	auipc	x1,0x0
60001210:	de0080e7          	jalr	-544(x1) # 60000fec <fft.constprop.2>
60001214:	00008637          	lui	x12,0x8
60001218:	000a0513          	mv	x10,x20
6000121c:	ffff85b7          	lui	x11,0xffff8
60001220:	fff60613          	addi	x12,x12,-1 # 7fff <_start-0x5fff8001>
60001224:	00295683          	lhu	x13,2(x18)
60001228:	01059713          	slli	x14,x11,0x10
6000122c:	01075713          	srli	x14,x14,0x10
60001230:	02d706b3          	mul	x13,x14,x13
60001234:	00095783          	lhu	x15,0(x18)
60001238:	0024d883          	lhu	x17,2(x9)
6000123c:	0004d303          	lhu	x6,0(x9)
60001240:	00450513          	addi	x10,x10,4
60001244:	00448493          	addi	x9,x9,4
60001248:	00490913          	addi	x18,x18,4
6000124c:	00000593          	li	x11,0
60001250:	02f70733          	mul	x14,x14,x15
60001254:	01069693          	slli	x13,x13,0x10
60001258:	4106d693          	srai	x13,x13,0x10
6000125c:	41f6d793          	srai	x15,x13,0x1f
60001260:	00c7f7b3          	and	x15,x15,x12
60001264:	00d787b3          	add	x15,x15,x13
60001268:	40f7d793          	srai	x15,x15,0xf
6000126c:	01079793          	slli	x15,x15,0x10
60001270:	0107d793          	srli	x15,x15,0x10
60001274:	00f88e33          	add	x28,x17,x15
60001278:	01071713          	slli	x14,x14,0x10
6000127c:	41075713          	srai	x14,x14,0x10
60001280:	40f888b3          	sub	x17,x17,x15
60001284:	41f75793          	srai	x15,x14,0x1f
60001288:	00c7f7b3          	and	x15,x15,x12
6000128c:	00e787b3          	add	x15,x15,x14
60001290:	40f7d793          	srai	x15,x15,0xf
60001294:	01079793          	slli	x15,x15,0x10
60001298:	0107d793          	srli	x15,x15,0x10
6000129c:	00f30eb3          	add	x29,x6,x15
600012a0:	40f30333          	sub	x6,x6,x15
600012a4:	010e1e13          	slli	x28,x28,0x10
600012a8:	010e9e93          	slli	x29,x29,0x10
600012ac:	01031313          	slli	x6,x6,0x10
600012b0:	01089893          	slli	x17,x17,0x10
600012b4:	410e5e13          	srai	x28,x28,0x10
600012b8:	410ede93          	srai	x29,x29,0x10
600012bc:	41035313          	srai	x6,x6,0x10
600012c0:	4108d893          	srai	x17,x17,0x10
600012c4:	41fed813          	srai	x16,x29,0x1f
600012c8:	41fe5693          	srai	x13,x28,0x1f
600012cc:	41f35713          	srai	x14,x6,0x1f
600012d0:	41f8d793          	srai	x15,x17,0x1f
600012d4:	00c87833          	and	x16,x16,x12
600012d8:	00c6f6b3          	and	x13,x13,x12
600012dc:	00c77733          	and	x14,x14,x12
600012e0:	00c7f7b3          	and	x15,x15,x12
600012e4:	01d80833          	add	x16,x16,x29
600012e8:	01c686b3          	add	x13,x13,x28
600012ec:	00670733          	add	x14,x14,x6
600012f0:	011787b3          	add	x15,x15,x17
600012f4:	40f85813          	srai	x16,x16,0xf
600012f8:	40f6d693          	srai	x13,x13,0xf
600012fc:	40f75713          	srai	x14,x14,0xf
60001300:	40f7d793          	srai	x15,x15,0xf
60001304:	ff051e23          	sh	x16,-4(x10)
60001308:	fed51f23          	sh	x13,-2(x10)
6000130c:	1ee51e23          	sh	x14,508(x10)
60001310:	1ef51f23          	sh	x15,510(x10)
60001314:	f09998e3          	bne	x19,x9,60001224 <fft.constprop.1+0xa8>
60001318:	fe040113          	addi	x2,x8,-32
6000131c:	01c12083          	lw	x1,28(x2)
60001320:	01812403          	lw	x8,24(x2)
60001324:	01412483          	lw	x9,20(x2)
60001328:	01012903          	lw	x18,16(x2)
6000132c:	00c12983          	lw	x19,12(x2)
60001330:	00812a03          	lw	x20,8(x2)
60001334:	00412a83          	lw	x21,4(x2)
60001338:	02010113          	addi	x2,x2,32
6000133c:	00008067          	ret

60001340 <_fini>:
60001340:	00000063          	beqz	x0,60001340 <_fini>
60001344:	00000013          	nop
60001348:	00000013          	nop
6000134c:	00000013          	nop
60001350:	00000013          	nop
60001354:	00000013          	nop
60001358:	00000013          	nop
6000135c:	00000013          	nop
60001360:	00000013          	nop
60001364:	00000013          	nop
60001368:	00000013          	nop
6000136c:	00000013          	nop
60001370:	00000013          	nop
60001374:	00000013          	nop
60001378:	00000013          	nop
6000137c:	00000013          	nop
60001380:	00000013          	nop
60001384:	00000013          	nop
60001388:	00000013          	nop
6000138c:	00000013          	nop
60001390:	00000013          	nop
60001394:	00000013          	nop
60001398:	00000013          	nop
6000139c:	00000013          	nop
600013a0:	00000013          	nop
600013a4:	00000013          	nop
600013a8:	00000013          	nop
600013ac:	00000013          	nop
600013b0:	00000013          	nop
600013b4:	00000013          	nop
600013b8:	00000013          	nop
600013bc:	00000013          	nop
600013c0:	00000013          	nop
600013c4:	00000013          	nop
600013c8:	00000013          	nop
600013cc:	00000013          	nop
600013d0:	00000013          	nop
600013d4:	00000013          	nop
600013d8:	00000013          	nop
600013dc:	00000013          	nop
600013e0:	00000013          	nop
600013e4:	00000013          	nop
600013e8:	00000013          	nop
600013ec:	00000013          	nop
600013f0:	00000013          	nop
600013f4:	00000013          	nop
600013f8:	00000013          	nop
600013fc:	00000013          	nop
60001400:	00000013          	nop
60001404:	00000013          	nop
60001408:	00000013          	nop
6000140c:	00000013          	nop
60001410:	00000013          	nop
60001414:	00000013          	nop
60001418:	00000013          	nop
6000141c:	00000013          	nop
60001420:	00000013          	nop
60001424:	00000013          	nop
60001428:	00000013          	nop
6000142c:	00000013          	nop
60001430:	00000013          	nop
60001434:	00000013          	nop
60001438:	00000013          	nop
6000143c:	00000013          	nop
60001440:	00000013          	nop
60001444:	00000013          	nop
60001448:	00000013          	nop
6000144c:	00000013          	nop
60001450:	00000013          	nop
60001454:	00000013          	nop
60001458:	00000013          	nop
6000145c:	00000013          	nop
60001460:	00000013          	nop
60001464:	00000013          	nop
60001468:	00000013          	nop
6000146c:	00000013          	nop
60001470:	00000013          	nop
60001474:	00000013          	nop
60001478:	00000013          	nop
6000147c:	00000013          	nop
60001480:	00000013          	nop
60001484:	00000013          	nop
60001488:	00000013          	nop
6000148c:	00000013          	nop
60001490:	00000013          	nop
60001494:	00000013          	nop
60001498:	00000013          	nop
6000149c:	00000013          	nop
600014a0:	00000013          	nop
600014a4:	00000013          	nop
600014a8:	00000013          	nop
600014ac:	00000013          	nop
600014b0:	00000013          	nop
600014b4:	00000013          	nop
600014b8:	00000013          	nop
600014bc:	00000013          	nop
600014c0:	00000013          	nop
600014c4:	00000013          	nop
600014c8:	00000013          	nop
600014cc:	00000013          	nop
600014d0:	00000013          	nop
600014d4:	00000013          	nop
600014d8:	00000013          	nop
600014dc:	00000013          	nop
600014e0:	00000013          	nop
600014e4:	00000013          	nop
600014e8:	00000013          	nop
600014ec:	00000013          	nop
600014f0:	00000013          	nop
600014f4:	00000013          	nop
600014f8:	00000013          	nop
600014fc:	00000013          	nop
60001500:	00000013          	nop
60001504:	00000013          	nop
60001508:	00000013          	nop
6000150c:	00000013          	nop
60001510:	00000013          	nop
60001514:	00000013          	nop
60001518:	00000013          	nop
6000151c:	00000013          	nop
60001520:	00000013          	nop
60001524:	00000013          	nop
60001528:	00000013          	nop
6000152c:	00000013          	nop
60001530:	00000013          	nop
60001534:	00000013          	nop
60001538:	00000013          	nop
6000153c:	00000013          	nop
60001540:	00000013          	nop
60001544:	00000013          	nop
60001548:	00000013          	nop
6000154c:	00000013          	nop
60001550:	00000013          	nop
60001554:	00000013          	nop
60001558:	00000013          	nop
6000155c:	00000013          	nop
60001560:	00000013          	nop
60001564:	00000013          	nop
60001568:	00000013          	nop
6000156c:	00000013          	nop
60001570:	00000013          	nop
60001574:	00000013          	nop
60001578:	00000013          	nop
6000157c:	00000013          	nop
60001580:	00000013          	nop
60001584:	00000013          	nop
60001588:	00000013          	nop
6000158c:	00000013          	nop
60001590:	00000013          	nop
60001594:	00000013          	nop
60001598:	00000013          	nop
6000159c:	00000013          	nop
600015a0:	00000013          	nop
600015a4:	00000013          	nop
600015a8:	00000013          	nop
600015ac:	00000013          	nop
600015b0:	00000013          	nop
600015b4:	00000013          	nop
600015b8:	00000013          	nop
600015bc:	00000013          	nop
600015c0:	00000013          	nop
600015c4:	00000013          	nop
600015c8:	00000013          	nop
600015cc:	00000013          	nop
600015d0:	00000013          	nop
600015d4:	00000013          	nop
600015d8:	00000013          	nop
600015dc:	00000013          	nop
600015e0:	00000013          	nop
600015e4:	00000013          	nop
600015e8:	00000013          	nop
600015ec:	00000013          	nop
600015f0:	00000013          	nop
600015f4:	00000013          	nop
600015f8:	00000013          	nop
600015fc:	00000013          	nop
60001600:	00000013          	nop
60001604:	00000013          	nop
60001608:	00000013          	nop
6000160c:	00000013          	nop
60001610:	00000013          	nop
60001614:	00000013          	nop
60001618:	00000013          	nop
6000161c:	00000013          	nop
60001620:	00000013          	nop
60001624:	00000013          	nop
60001628:	00000013          	nop
6000162c:	00000013          	nop
60001630:	00000013          	nop
60001634:	00000013          	nop
60001638:	00000013          	nop
6000163c:	00000013          	nop
60001640:	00000013          	nop
60001644:	00000013          	nop
60001648:	00000013          	nop
6000164c:	00000013          	nop
60001650:	00000013          	nop
60001654:	00000013          	nop
60001658:	00000013          	nop
6000165c:	00000013          	nop
60001660:	00000013          	nop
60001664:	00000013          	nop
60001668:	00000013          	nop
6000166c:	00000013          	nop
60001670:	00000013          	nop
60001674:	00000013          	nop
60001678:	00000013          	nop
6000167c:	00000013          	nop
60001680:	00000013          	nop
60001684:	00000013          	nop
60001688:	00000013          	nop
6000168c:	00000013          	nop
60001690:	00000013          	nop
60001694:	00000013          	nop
60001698:	00000013          	nop
6000169c:	00000013          	nop
600016a0:	00000013          	nop
600016a4:	00000013          	nop
600016a8:	00000013          	nop
600016ac:	00000013          	nop
600016b0:	00000013          	nop
600016b4:	00000013          	nop
600016b8:	00000013          	nop
600016bc:	00000013          	nop
600016c0:	00000013          	nop
600016c4:	00000013          	nop
600016c8:	00000013          	nop
600016cc:	00000013          	nop
600016d0:	00000013          	nop
600016d4:	00000013          	nop
600016d8:	00000013          	nop
600016dc:	00000013          	nop
600016e0:	00000013          	nop
600016e4:	00000013          	nop
600016e8:	00000013          	nop
600016ec:	00000013          	nop
600016f0:	00000013          	nop
600016f4:	00000013          	nop
600016f8:	00000013          	nop
600016fc:	00000013          	nop
60001700:	00000013          	nop
60001704:	00000013          	nop
60001708:	00000013          	nop
6000170c:	00000013          	nop
60001710:	00000013          	nop
60001714:	00000013          	nop
60001718:	00000013          	nop
6000171c:	00000013          	nop
60001720:	00000013          	nop
60001724:	00000013          	nop
60001728:	00000013          	nop
6000172c:	00000013          	nop
60001730:	00000013          	nop
60001734:	00000013          	nop
60001738:	00000013          	nop
6000173c:	00000013          	nop
60001740:	00000013          	nop

60001744 <main>:
60001744:	f3010113          	addi	x2,x2,-208
60001748:	09b12e23          	sw	x27,156(x2)
6000174c:	fffffdb7          	lui	x27,0xfffff
60001750:	0c112623          	sw	x1,204(x2)
60001754:	0c812423          	sw	x8,200(x2)
60001758:	0c912223          	sw	x9,196(x2)
6000175c:	0d010413          	addi	x8,x2,208
60001760:	0d212023          	sw	x18,192(x2)
60001764:	0b312e23          	sw	x19,188(x2)
60001768:	0b412c23          	sw	x20,184(x2)
6000176c:	0b512a23          	sw	x21,180(x2)
60001770:	0b612823          	sw	x22,176(x2)
60001774:	0b712623          	sw	x23,172(x2)
60001778:	0b812423          	sw	x24,168(x2)
6000177c:	0b912223          	sw	x25,164(x2)
60001780:	0ba12023          	sw	x26,160(x2)
60001784:	7c0d8713          	addi	x14,x27,1984 # fffff7c0 <_stack_top+0x7ffff7c0>
60001788:	fffff2b7          	lui	x5,0xfffff
6000178c:	00001637          	lui	x12,0x1
60001790:	00e40533          	add	x10,x8,x14
60001794:	00510133          	add	x2,x2,x5
60001798:	80060613          	addi	x12,x12,-2048 # 800 <_start-0x5ffff800>
6000179c:	00000593          	li	x11,0
600017a0:	fffff097          	auipc	x1,0xfffff
600017a4:	8a0080e7          	jalr	-1888(x1) # 60000040 <memset>
600017a8:	fffff7b7          	lui	x15,0xfffff
600017ac:	025b0737          	lui	x14,0x25b0
600017b0:	fbc78793          	addi	x15,x15,-68 # ffffefbc <_stack_top+0x7fffefbc>
600017b4:	008787b3          	add	x15,x15,x8
600017b8:	1a270713          	addi	x14,x14,418 # 25b01a2 <_start-0x5da4fe5e>
600017bc:	00e7a023          	sw	x14,0(x15)
600017c0:	fffff7b7          	lui	x15,0xfffff
600017c4:	01010737          	lui	x14,0x1010
600017c8:	fb878793          	addi	x15,x15,-72 # ffffefb8 <_stack_top+0x7fffefb8>
600017cc:	008787b3          	add	x15,x15,x8
600017d0:	37f70713          	addi	x14,x14,895 # 101037f <_start-0x5efefc81>
600017d4:	00e7a023          	sw	x14,0(x15)
600017d8:	fffff737          	lui	x14,0xfffff
600017dc:	008b07b7          	lui	x15,0x8b0
600017e0:	fb470713          	addi	x14,x14,-76 # ffffefb4 <_stack_top+0x7fffefb4>
600017e4:	00870733          	add	x14,x14,x8
600017e8:	28078793          	addi	x15,x15,640 # 8b0280 <_start-0x5f74fd80>
600017ec:	00f72023          	sw	x15,0(x14)
600017f0:	02cb0737          	lui	x14,0x2cb0
600017f4:	1e270793          	addi	x15,x14,482 # 2cb01e2 <_start-0x5d34fe1e>
600017f8:	fffff737          	lui	x14,0xfffff
600017fc:	fb070713          	addi	x14,x14,-80 # ffffefb0 <_stack_top+0x7fffefb0>
60001800:	00870733          	add	x14,x14,x8
60001804:	00f72023          	sw	x15,0(x14)
60001808:	fffff7b7          	lui	x15,0xfffff
6000180c:	02480737          	lui	x14,0x2480
60001810:	fac78793          	addi	x15,x15,-84 # ffffefac <_stack_top+0x7fffefac>
60001814:	008787b3          	add	x15,x15,x8
60001818:	16f70713          	addi	x14,x14,367 # 248016f <_start-0x5db7fe91>
6000181c:	00e7a023          	sw	x14,0(x15)
60001820:	fffff7b7          	lui	x15,0xfffff
60001824:	01320737          	lui	x14,0x1320
60001828:	fa878793          	addi	x15,x15,-88 # ffffefa8 <_stack_top+0x7fffefa8>
6000182c:	008787b3          	add	x15,x15,x8
60001830:	39970713          	addi	x14,x14,921 # 1320399 <_start-0x5ecdfc67>
60001834:	00e7a023          	sw	x14,0(x15)
60001838:	fffff7b7          	lui	x15,0xfffff
6000183c:	01ac0737          	lui	x14,0x1ac0
60001840:	fa478793          	addi	x15,x15,-92 # ffffefa4 <_stack_top+0x7fffefa4>
60001844:	008787b3          	add	x15,x15,x8
60001848:	2f770713          	addi	x14,x14,759 # 1ac02f7 <_start-0x5e53fd09>
6000184c:	00e7a023          	sw	x14,0(x15)
60001850:	fffff7b7          	lui	x15,0xfffff
60001854:	00078713          	mv	x14,x15
60001858:	03580db7          	lui	x27,0x3580
6000185c:	7c078793          	addi	x15,x15,1984 # fffff7c0 <_stack_top+0x7ffff7c0>
60001860:	008787b3          	add	x15,x15,x8
60001864:	2e3d8d93          	addi	x27,x27,739 # 35802e3 <_start-0x5ca7fd1d>
60001868:	01b7a023          	sw	x27,0(x15)
6000186c:	023d0d37          	lui	x26,0x23d0
60001870:	7c470793          	addi	x15,x14,1988
60001874:	008787b3          	add	x15,x15,x8
60001878:	1a5d0d13          	addi	x26,x26,421 # 23d01a5 <_start-0x5dc2fe5b>
6000187c:	01a7a023          	sw	x26,0(x15)
60001880:	02730cb7          	lui	x25,0x2730
60001884:	7c870793          	addi	x15,x14,1992
60001888:	008787b3          	add	x15,x15,x8
6000188c:	0c6c8c93          	addi	x25,x25,198 # 27300c6 <_start-0x5d8cff3a>
60001890:	0197a023          	sw	x25,0(x15)
60001894:	01ec0c37          	lui	x24,0x1ec0
60001898:	7cc70793          	addi	x15,x14,1996
6000189c:	008787b3          	add	x15,x15,x8
600018a0:	136c0c13          	addi	x24,x24,310 # 1ec0136 <_start-0x5e13feca>
600018a4:	0187a023          	sw	x24,0(x15)
600018a8:	00860bb7          	lui	x23,0x860
600018ac:	7d070793          	addi	x15,x14,2000
600018b0:	008787b3          	add	x15,x15,x8
600018b4:	224b8b93          	addi	x23,x23,548 # 860224 <_start-0x5f79fddc>
600018b8:	0177a023          	sw	x23,0(x15)
600018bc:	028b0b37          	lui	x22,0x28b0
600018c0:	7d470793          	addi	x15,x14,2004
600018c4:	008787b3          	add	x15,x15,x8
600018c8:	11fb0b13          	addi	x22,x22,287 # 28b011f <_start-0x5d74fee1>
600018cc:	0167a023          	sw	x22,0(x15)
600018d0:	02c40ab7          	lui	x21,0x2c40
600018d4:	7d870793          	addi	x15,x14,2008
600018d8:	008787b3          	add	x15,x15,x8
600018dc:	3b1a8a93          	addi	x21,x21,945 # 2c403b1 <_start-0x5d3bfc4f>
600018e0:	0157a023          	sw	x21,0(x15)
600018e4:	02080a37          	lui	x20,0x2080
600018e8:	7dc70793          	addi	x15,x14,2012
600018ec:	008787b3          	add	x15,x15,x8
600018f0:	16ca0a13          	addi	x20,x20,364 # 208016c <_start-0x5df7fe94>
600018f4:	0147a023          	sw	x20,0(x15)
600018f8:	017e09b7          	lui	x19,0x17e0
600018fc:	7e070793          	addi	x15,x14,2016
60001900:	008787b3          	add	x15,x15,x8
60001904:	09c98993          	addi	x19,x19,156 # 17e009c <_start-0x5e81ff64>
60001908:	0137a023          	sw	x19,0(x15)
6000190c:	02cf0937          	lui	x18,0x2cf0
60001910:	7e470793          	addi	x15,x14,2020
60001914:	008787b3          	add	x15,x15,x8
60001918:	35f90913          	addi	x18,x18,863 # 2cf035f <_start-0x5d30fca1>
6000191c:	0127a023          	sw	x18,0(x15)
60001920:	025d04b7          	lui	x9,0x25d0
60001924:	7e870793          	addi	x15,x14,2024
60001928:	008787b3          	add	x15,x15,x8
6000192c:	12348493          	addi	x9,x9,291 # 25d0123 <_start-0x5da2fedd>
60001930:	0097a023          	sw	x9,0(x15)
60001934:	039c00b7          	lui	x1,0x39c0
60001938:	7ec70793          	addi	x15,x14,2028
6000193c:	008787b3          	add	x15,x15,x8
60001940:	1b508093          	addi	x1,x1,437 # 39c01b5 <_start-0x5c63fe4b>
60001944:	0017a023          	sw	x1,0(x15)
60001948:	021f03b7          	lui	x7,0x21f0
6000194c:	7f070793          	addi	x15,x14,2032
60001950:	008787b3          	add	x15,x15,x8
60001954:	2a638393          	addi	x7,x7,678 # 21f02a6 <_start-0x5de0fd5a>
60001958:	0077a023          	sw	x7,0(x15)
6000195c:	016d02b7          	lui	x5,0x16d0
60001960:	7f470793          	addi	x15,x14,2036
60001964:	008787b3          	add	x15,x15,x8
60001968:	33528293          	addi	x5,x5,821 # 16d0335 <_start-0x5e92fccb>
6000196c:	0057a023          	sw	x5,0(x15)
60001970:	00ad0fb7          	lui	x31,0xad0
60001974:	7f870793          	addi	x15,x14,2040
60001978:	008787b3          	add	x15,x15,x8
6000197c:	1f2f8f93          	addi	x31,x31,498 # ad01f2 <_start-0x5f52fe0e>
60001980:	01f7a023          	sw	x31,0(x15)
60001984:	00f00f37          	lui	x30,0xf00
60001988:	7fc70793          	addi	x15,x14,2044
6000198c:	008787b3          	add	x15,x15,x8
60001990:	3bcf0f13          	addi	x30,x30,956 # f003bc <_start-0x5f0ffc44>
60001994:	01e7a023          	sw	x30,0(x15)
60001998:	fffff7b7          	lui	x15,0xfffff
6000199c:	01a10eb7          	lui	x29,0x1a10
600019a0:	023c0e37          	lui	x28,0x23c0
600019a4:	03800337          	lui	x6,0x3800
600019a8:	026d08b7          	lui	x17,0x26d0
600019ac:	03870837          	lui	x16,0x3870
600019b0:	00d80537          	lui	x10,0xd80
600019b4:	027a05b7          	lui	x11,0x27a0
600019b8:	00ac0637          	lui	x12,0xac0
600019bc:	03b806b7          	lui	x13,0x3b80
600019c0:	fbc78793          	addi	x15,x15,-68 # ffffefbc <_stack_top+0x7fffefbc>
600019c4:	2aae8e93          	addi	x29,x29,682 # 1a102aa <_start-0x5e5efd56>
600019c8:	347e0e13          	addi	x28,x28,839 # 23c0347 <_start-0x5dc3fcb9>
600019cc:	08630313          	addi	x6,x6,134 # 3800086 <_start-0x5c7fff7a>
600019d0:	2e988893          	addi	x17,x17,745 # 26d02e9 <_start-0x5d92fd17>
600019d4:	16680813          	addi	x16,x16,358 # 3870166 <_start-0x5c78fe9a>
600019d8:	1eb50513          	addi	x10,x10,491 # d801eb <_start-0x5f27fe15>
600019dc:	2f858593          	addi	x11,x11,760 # 27a02f8 <_start-0x5d85fd08>
600019e0:	24d60613          	addi	x12,x12,589 # ac024d <_start-0x5f53fdb3>
600019e4:	17868693          	addi	x13,x13,376 # 3b80178 <_start-0x5c47fe88>
600019e8:	008787b3          	add	x15,x15,x8
600019ec:	81d42023          	sw	x29,-2048(x8)
600019f0:	81c42223          	sw	x28,-2044(x8)
600019f4:	80642423          	sw	x6,-2040(x8)
600019f8:	81142623          	sw	x17,-2036(x8)
600019fc:	81042823          	sw	x16,-2032(x8)
60001a00:	80a42a23          	sw	x10,-2028(x8)
60001a04:	80b42c23          	sw	x11,-2024(x8)
60001a08:	80c42e23          	sw	x12,-2020(x8)
60001a0c:	82d42023          	sw	x13,-2016(x8)
60001a10:	0007a783          	lw	x15,0(x15)
60001a14:	82f42223          	sw	x15,-2012(x8)
60001a18:	fffff7b7          	lui	x15,0xfffff
60001a1c:	fb878793          	addi	x15,x15,-72 # ffffefb8 <_stack_top+0x7fffefb8>
60001a20:	008787b3          	add	x15,x15,x8
60001a24:	0007a703          	lw	x14,0(x15)
60001a28:	fffff7b7          	lui	x15,0xfffff
60001a2c:	fb478793          	addi	x15,x15,-76 # ffffefb4 <_stack_top+0x7fffefb4>
60001a30:	008787b3          	add	x15,x15,x8
60001a34:	0007a783          	lw	x15,0(x15)
60001a38:	82e42423          	sw	x14,-2008(x8)
60001a3c:	82f42623          	sw	x15,-2004(x8)
60001a40:	fffff7b7          	lui	x15,0xfffff
60001a44:	fb078793          	addi	x15,x15,-80 # ffffefb0 <_stack_top+0x7fffefb0>
60001a48:	008787b3          	add	x15,x15,x8
60001a4c:	0007a783          	lw	x15,0(x15)
60001a50:	82f42823          	sw	x15,-2000(x8)
60001a54:	fffff7b7          	lui	x15,0xfffff
60001a58:	fac78793          	addi	x15,x15,-84 # ffffefac <_stack_top+0x7fffefac>
60001a5c:	008787b3          	add	x15,x15,x8
60001a60:	0007a703          	lw	x14,0(x15)
60001a64:	fffff7b7          	lui	x15,0xfffff
60001a68:	fa878793          	addi	x15,x15,-88 # ffffefa8 <_stack_top+0x7fffefa8>
60001a6c:	008787b3          	add	x15,x15,x8
60001a70:	82e42a23          	sw	x14,-1996(x8)
60001a74:	0007a703          	lw	x14,0(x15)
60001a78:	fffff7b7          	lui	x15,0xfffff
60001a7c:	fa478793          	addi	x15,x15,-92 # ffffefa4 <_stack_top+0x7fffefa4>
60001a80:	008787b3          	add	x15,x15,x8
60001a84:	82e42c23          	sw	x14,-1992(x8)
60001a88:	0007a703          	lw	x14,0(x15)
60001a8c:	020c07b7          	lui	x15,0x20c0
60001a90:	35f78693          	addi	x13,x15,863 # 20c035f <_start-0x5df3fca1>
60001a94:	036707b7          	lui	x15,0x3670
60001a98:	82e42e23          	sw	x14,-1988(x8)
60001a9c:	12778593          	addi	x11,x15,295 # 3670127 <_start-0x5c98fed9>
60001aa0:	02800737          	lui	x14,0x2800
60001aa4:	00c507b7          	lui	x15,0xc50
60001aa8:	31770613          	addi	x12,x14,791 # 2800317 <_start-0x5d7ffce9>
60001aac:	23d78813          	addi	x16,x15,573 # c5023d <_start-0x5f3afdc3>
60001ab0:	02740737          	lui	x14,0x2740
60001ab4:	032a07b7          	lui	x15,0x32a0
60001ab8:	1b770513          	addi	x10,x14,439 # 27401b7 <_start-0x5d8bfe49>
60001abc:	2e678313          	addi	x6,x15,742 # 32a02e6 <_start-0x5cd5fd1a>
60001ac0:	03bc0737          	lui	x14,0x3bc0
60001ac4:	037e07b7          	lui	x15,0x37e0
60001ac8:	18170893          	addi	x17,x14,385 # 3bc0181 <_start-0x5c43fe7f>
60001acc:	2a078e93          	addi	x29,x15,672 # 37e02a0 <_start-0x5c81fd60>
60001ad0:	01d10737          	lui	x14,0x1d10
60001ad4:	03a807b7          	lui	x15,0x3a80
60001ad8:	0d570e13          	addi	x28,x14,213 # 1d100d5 <_start-0x5e2eff2b>
60001adc:	21c78f93          	addi	x31,x15,540 # 3a8021c <_start-0x5c57fde4>
60001ae0:	00da0737          	lui	x14,0xda0
60001ae4:	019807b7          	lui	x15,0x1980
60001ae8:	16570f13          	addi	x30,x14,357 # da0165 <_start-0x5f25fe9b>
60001aec:	27778393          	addi	x7,x15,631 # 1980277 <_start-0x5e67fd89>
60001af0:	034d0737          	lui	x14,0x34d0
60001af4:	02fc07b7          	lui	x15,0x2fc0
60001af8:	0c070293          	addi	x5,x14,192 # 34d00c0 <_start-0x5cb2ff40>
60001afc:	39978493          	addi	x9,x15,921 # 2fc0399 <_start-0x5d03fc67>
60001b00:	01590737          	lui	x14,0x1590
60001b04:	027407b7          	lui	x15,0x2740
60001b08:	24370093          	addi	x1,x14,579 # 1590243 <_start-0x5ea6fdbd>
60001b0c:	0ad78993          	addi	x19,x15,173 # 27400ad <_start-0x5d8bff53>
60001b10:	01ea0737          	lui	x14,0x1ea0
60001b14:	014407b7          	lui	x15,0x1440
60001b18:	24670913          	addi	x18,x14,582 # 1ea0246 <_start-0x5e15fdba>
60001b1c:	36178a93          	addi	x21,x15,865 # 1440361 <_start-0x5ebbfc9f>
60001b20:	02ef0737          	lui	x14,0x2ef0
60001b24:	017707b7          	lui	x15,0x1770
60001b28:	1b770a13          	addi	x20,x14,439 # 2ef01b7 <_start-0x5d10fe49>
60001b2c:	26a78b93          	addi	x23,x15,618 # 177026a <_start-0x5e88fd96>
60001b30:	03d60737          	lui	x14,0x3d60
60001b34:	009c07b7          	lui	x15,0x9c0
60001b38:	1fb70b13          	addi	x22,x14,507 # 3d601fb <_start-0x5c29fe05>
60001b3c:	37d78c93          	addi	x25,x15,893 # 9c037d <_start-0x5f63fc83>
60001b40:	02340737          	lui	x14,0x2340
60001b44:	034807b7          	lui	x15,0x3480
60001b48:	1ad70c13          	addi	x24,x14,429 # 23401ad <_start-0x5dcbfe53>
60001b4c:	39f78d93          	addi	x27,x15,927 # 348039f <_start-0x5cb7fc61>
60001b50:	01050737          	lui	x14,0x1050
60001b54:	fffff7b7          	lui	x15,0xfffff
60001b58:	2c070d13          	addi	x26,x14,704 # 10502c0 <_start-0x5efafd40>
60001b5c:	fbc78793          	addi	x15,x15,-68 # ffffefbc <_stack_top+0x7fffefbc>
60001b60:	016c0737          	lui	x14,0x16c0
60001b64:	008787b3          	add	x15,x15,x8
60001b68:	20570713          	addi	x14,x14,517 # 16c0205 <_start-0x5e93fdfb>
60001b6c:	00e7a023          	sw	x14,0(x15)
60001b70:	fffff737          	lui	x14,0xfffff
60001b74:	034907b7          	lui	x15,0x3490
60001b78:	fb870713          	addi	x14,x14,-72 # ffffefb8 <_stack_top+0x7fffefb8>
60001b7c:	00870733          	add	x14,x14,x8
60001b80:	2b478793          	addi	x15,x15,692 # 34902b4 <_start-0x5cb6fd4c>
60001b84:	00f72023          	sw	x15,0(x14)
60001b88:	fffff7b7          	lui	x15,0xfffff
60001b8c:	026a0737          	lui	x14,0x26a0
60001b90:	fb478793          	addi	x15,x15,-76 # ffffefb4 <_stack_top+0x7fffefb4>
60001b94:	008787b3          	add	x15,x15,x8
60001b98:	0fd70713          	addi	x14,x14,253 # 26a00fd <_start-0x5d95ff03>
60001b9c:	00e7a023          	sw	x14,0(x15)
60001ba0:	fffff737          	lui	x14,0xfffff
60001ba4:	02e307b7          	lui	x15,0x2e30
60001ba8:	fb070713          	addi	x14,x14,-80 # ffffefb0 <_stack_top+0x7fffefb0>
60001bac:	00870733          	add	x14,x14,x8
60001bb0:	1c278793          	addi	x15,x15,450 # 2e301c2 <_start-0x5d1cfe3e>
60001bb4:	00f72023          	sw	x15,0(x14)
60001bb8:	fffff7b7          	lui	x15,0xfffff
60001bbc:	00b70737          	lui	x14,0xb70
60001bc0:	fac78793          	addi	x15,x15,-84 # ffffefac <_stack_top+0x7fffefac>
60001bc4:	008787b3          	add	x15,x15,x8
60001bc8:	25470713          	addi	x14,x14,596 # b70254 <_start-0x5f48fdac>
60001bcc:	00e7a023          	sw	x14,0(x15)
60001bd0:	fffff737          	lui	x14,0xfffff
60001bd4:	01f507b7          	lui	x15,0x1f50
60001bd8:	fa870713          	addi	x14,x14,-88 # ffffefa8 <_stack_top+0x7fffefa8>
60001bdc:	00870733          	add	x14,x14,x8
60001be0:	0f778793          	addi	x15,x15,247 # 1f500f7 <_start-0x5e0aff09>
60001be4:	00f72023          	sw	x15,0(x14)
60001be8:	fffff7b7          	lui	x15,0xfffff
60001bec:	01490737          	lui	x14,0x1490
60001bf0:	fa478793          	addi	x15,x15,-92 # ffffefa4 <_stack_top+0x7fffefa4>
60001bf4:	008787b3          	add	x15,x15,x8
60001bf8:	36c70713          	addi	x14,x14,876 # 149036c <_start-0x5eb6fc94>
60001bfc:	00e7a023          	sw	x14,0(x15)
60001c00:	fffff737          	lui	x14,0xfffff
60001c04:	032e07b7          	lui	x15,0x32e0
60001c08:	fa070713          	addi	x14,x14,-96 # ffffefa0 <_stack_top+0x7fffefa0>
60001c0c:	00870733          	add	x14,x14,x8
60001c10:	25078793          	addi	x15,x15,592 # 32e0250 <_start-0x5cd1fdb0>
60001c14:	00f72023          	sw	x15,0(x14)
60001c18:	02ee07b7          	lui	x15,0x2ee0
60001c1c:	84d42023          	sw	x13,-1984(x8)
60001c20:	18278693          	addi	x13,x15,386 # 2ee0182 <_start-0x5d11fe7e>
60001c24:	fffff7b7          	lui	x15,0xfffff
60001c28:	fbc78793          	addi	x15,x15,-68 # ffffefbc <_stack_top+0x7fffefbc>
60001c2c:	84c42223          	sw	x12,-1980(x8)
60001c30:	84b42423          	sw	x11,-1976(x8)
60001c34:	84a42623          	sw	x10,-1972(x8)
60001c38:	85042823          	sw	x16,-1968(x8)
60001c3c:	85142a23          	sw	x17,-1964(x8)
60001c40:	84642c23          	sw	x6,-1960(x8)
60001c44:	85c42e23          	sw	x28,-1956(x8)
60001c48:	87d42023          	sw	x29,-1952(x8)
60001c4c:	87e42223          	sw	x30,-1948(x8)
60001c50:	008787b3          	add	x15,x15,x8
60001c54:	87f42423          	sw	x31,-1944(x8)
60001c58:	0007a703          	lw	x14,0(x15)
60001c5c:	fffff7b7          	lui	x15,0xfffff
60001c60:	fb878793          	addi	x15,x15,-72 # ffffefb8 <_stack_top+0x7fffefb8>
60001c64:	008787b3          	add	x15,x15,x8
60001c68:	0007a783          	lw	x15,0(x15)
60001c6c:	8ae42223          	sw	x14,-1884(x8)
60001c70:	86542623          	sw	x5,-1940(x8)
60001c74:	8af42423          	sw	x15,-1880(x8)
60001c78:	fffff7b7          	lui	x15,0xfffff
60001c7c:	fb478793          	addi	x15,x15,-76 # ffffefb4 <_stack_top+0x7fffefb4>
60001c80:	008787b3          	add	x15,x15,x8
60001c84:	0007a703          	lw	x14,0(x15)
60001c88:	fffff7b7          	lui	x15,0xfffff
60001c8c:	fb078793          	addi	x15,x15,-80 # ffffefb0 <_stack_top+0x7fffefb0>
60001c90:	008787b3          	add	x15,x15,x8
60001c94:	0007a783          	lw	x15,0(x15)
60001c98:	8ae42623          	sw	x14,-1876(x8)
60001c9c:	86742823          	sw	x7,-1936(x8)
60001ca0:	8af42823          	sw	x15,-1872(x8)
60001ca4:	fffff7b7          	lui	x15,0xfffff
60001ca8:	fac78793          	addi	x15,x15,-84 # ffffefac <_stack_top+0x7fffefac>
60001cac:	008787b3          	add	x15,x15,x8
60001cb0:	0007a703          	lw	x14,0(x15)
60001cb4:	fffff7b7          	lui	x15,0xfffff
60001cb8:	fa878793          	addi	x15,x15,-88 # ffffefa8 <_stack_top+0x7fffefa8>
60001cbc:	008787b3          	add	x15,x15,x8
60001cc0:	0007a783          	lw	x15,0(x15)
60001cc4:	8ae42a23          	sw	x14,-1868(x8)
60001cc8:	86142a23          	sw	x1,-1932(x8)
60001ccc:	8af42c23          	sw	x15,-1864(x8)
60001cd0:	fffff7b7          	lui	x15,0xfffff
60001cd4:	fa478793          	addi	x15,x15,-92 # ffffefa4 <_stack_top+0x7fffefa4>
60001cd8:	008787b3          	add	x15,x15,x8
60001cdc:	0007a703          	lw	x14,0(x15)
60001ce0:	fffff7b7          	lui	x15,0xfffff
60001ce4:	fa078793          	addi	x15,x15,-96 # ffffefa0 <_stack_top+0x7fffefa0>
60001ce8:	008787b3          	add	x15,x15,x8
60001cec:	0007a783          	lw	x15,0(x15)
60001cf0:	8ae42e23          	sw	x14,-1860(x8)
60001cf4:	01d40737          	lui	x14,0x1d40
60001cf8:	8cf42023          	sw	x15,-1856(x8)
60001cfc:	39b70793          	addi	x15,x14,923 # 1d4039b <_start-0x5e2bfc65>
60001d00:	fffff737          	lui	x14,0xfffff
60001d04:	fbc70713          	addi	x14,x14,-68 # ffffefbc <_stack_top+0x7fffefbc>
60001d08:	00870733          	add	x14,x14,x8
60001d0c:	00f72023          	sw	x15,0(x14)
60001d10:	fffff7b7          	lui	x15,0xfffff
60001d14:	01360737          	lui	x14,0x1360
60001d18:	fb878793          	addi	x15,x15,-72 # ffffefb8 <_stack_top+0x7fffefb8>
60001d1c:	24370613          	addi	x12,x14,579 # 1360243 <_start-0x5ec9fdbd>
60001d20:	008787b3          	add	x15,x15,x8
60001d24:	00c7a023          	sw	x12,0(x15)
60001d28:	fffff7b7          	lui	x15,0xfffff
60001d2c:	01010737          	lui	x14,0x1010
60001d30:	fb478793          	addi	x15,x15,-76 # ffffefb4 <_stack_top+0x7fffefb4>
60001d34:	86942c23          	sw	x9,-1928(x8)
60001d38:	87242e23          	sw	x18,-1924(x8)
60001d3c:	89342023          	sw	x19,-1920(x8)
60001d40:	89442223          	sw	x20,-1916(x8)
60001d44:	89542423          	sw	x21,-1912(x8)
60001d48:	89642623          	sw	x22,-1908(x8)
60001d4c:	89742823          	sw	x23,-1904(x8)
60001d50:	89842a23          	sw	x24,-1900(x8)
60001d54:	89942c23          	sw	x25,-1896(x8)
60001d58:	89a42e23          	sw	x26,-1892(x8)
60001d5c:	8bb42023          	sw	x27,-1888(x8)
60001d60:	28170593          	addi	x11,x14,641 # 1010281 <_start-0x5efefd7f>
60001d64:	008787b3          	add	x15,x15,x8
60001d68:	00b7a023          	sw	x11,0(x15)
60001d6c:	fffff7b7          	lui	x15,0xfffff
60001d70:	01ef0737          	lui	x14,0x1ef0
60001d74:	fb078793          	addi	x15,x15,-80 # ffffefb0 <_stack_top+0x7fffefb0>
60001d78:	34270513          	addi	x10,x14,834 # 1ef0342 <_start-0x5e10fcbe>
60001d7c:	008787b3          	add	x15,x15,x8
60001d80:	00a7a023          	sw	x10,0(x15)
60001d84:	fffff7b7          	lui	x15,0xfffff
60001d88:	01460737          	lui	x14,0x1460
60001d8c:	fac78793          	addi	x15,x15,-84 # ffffefac <_stack_top+0x7fffefac>
60001d90:	0b070813          	addi	x16,x14,176 # 14600b0 <_start-0x5eb9ff50>
60001d94:	008787b3          	add	x15,x15,x8
60001d98:	0107a023          	sw	x16,0(x15)
60001d9c:	fffff7b7          	lui	x15,0xfffff
60001da0:	01fd0737          	lui	x14,0x1fd0
60001da4:	fa878793          	addi	x15,x15,-88 # ffffefa8 <_stack_top+0x7fffefa8>
60001da8:	3d570893          	addi	x17,x14,981 # 1fd03d5 <_start-0x5e02fc2b>
60001dac:	008787b3          	add	x15,x15,x8
60001db0:	0117a023          	sw	x17,0(x15)
60001db4:	fffff7b7          	lui	x15,0xfffff
60001db8:	02b70737          	lui	x14,0x2b70
60001dbc:	fa478793          	addi	x15,x15,-92 # ffffefa4 <_stack_top+0x7fffefa4>
60001dc0:	1b070313          	addi	x6,x14,432 # 2b701b0 <_start-0x5d48fe50>
60001dc4:	008787b3          	add	x15,x15,x8
60001dc8:	0067a023          	sw	x6,0(x15)
60001dcc:	fffff7b7          	lui	x15,0xfffff
60001dd0:	02240737          	lui	x14,0x2240
60001dd4:	fa078793          	addi	x15,x15,-96 # ffffefa0 <_stack_top+0x7fffefa0>
60001dd8:	36770e13          	addi	x28,x14,871 # 2240367 <_start-0x5ddbfc99>
60001ddc:	008787b3          	add	x15,x15,x8
60001de0:	01c7a023          	sw	x28,0(x15)
60001de4:	fffff7b7          	lui	x15,0xfffff
60001de8:	03010737          	lui	x14,0x3010
60001dec:	f9c78793          	addi	x15,x15,-100 # ffffef9c <_stack_top+0x7fffef9c>
60001df0:	13a70e93          	addi	x29,x14,314 # 301013a <_start-0x5cfefec6>
60001df4:	008787b3          	add	x15,x15,x8
60001df8:	01d7a023          	sw	x29,0(x15)
60001dfc:	fffff7b7          	lui	x15,0xfffff
60001e00:	00cd0737          	lui	x14,0xcd0
60001e04:	f9878793          	addi	x15,x15,-104 # ffffef98 <_stack_top+0x7fffef98>
60001e08:	27e70f13          	addi	x30,x14,638 # cd027e <_start-0x5f32fd82>
60001e0c:	008787b3          	add	x15,x15,x8
60001e10:	01e7a023          	sw	x30,0(x15)
60001e14:	fffff7b7          	lui	x15,0xfffff
60001e18:	02dc0737          	lui	x14,0x2dc0
60001e1c:	f9478793          	addi	x15,x15,-108 # ffffef94 <_stack_top+0x7fffef94>
60001e20:	1e970f93          	addi	x31,x14,489 # 2dc01e9 <_start-0x5d23fe17>
60001e24:	008787b3          	add	x15,x15,x8
60001e28:	01f7a023          	sw	x31,0(x15)
60001e2c:	fffff7b7          	lui	x15,0xfffff
60001e30:	021c0737          	lui	x14,0x21c0
60001e34:	f9078793          	addi	x15,x15,-112 # ffffef90 <_stack_top+0x7fffef90>
60001e38:	3d070293          	addi	x5,x14,976 # 21c03d0 <_start-0x5de3fc30>
60001e3c:	008787b3          	add	x15,x15,x8
60001e40:	0057a023          	sw	x5,0(x15)
60001e44:	fffff7b7          	lui	x15,0xfffff
60001e48:	03610737          	lui	x14,0x3610
60001e4c:	f8c78793          	addi	x15,x15,-116 # ffffef8c <_stack_top+0x7fffef8c>
60001e50:	0d970393          	addi	x7,x14,217 # 36100d9 <_start-0x5c9eff27>
60001e54:	008787b3          	add	x15,x15,x8
60001e58:	0077a023          	sw	x7,0(x15)
60001e5c:	fffff7b7          	lui	x15,0xfffff
60001e60:	024f0737          	lui	x14,0x24f0
60001e64:	f8878793          	addi	x15,x15,-120 # ffffef88 <_stack_top+0x7fffef88>
60001e68:	2e770093          	addi	x1,x14,743 # 24f02e7 <_start-0x5db0fd19>
60001e6c:	008787b3          	add	x15,x15,x8
60001e70:	0017a023          	sw	x1,0(x15)
60001e74:	fffff7b7          	lui	x15,0xfffff
60001e78:	01cb0737          	lui	x14,0x1cb0
60001e7c:	f8478793          	addi	x15,x15,-124 # ffffef84 <_stack_top+0x7fffef84>
60001e80:	33b70493          	addi	x9,x14,827 # 1cb033b <_start-0x5e34fcc5>
60001e84:	008787b3          	add	x15,x15,x8
60001e88:	0097a023          	sw	x9,0(x15)
60001e8c:	fffff7b7          	lui	x15,0xfffff
60001e90:	039d0737          	lui	x14,0x39d0
60001e94:	f8078793          	addi	x15,x15,-128 # ffffef80 <_stack_top+0x7fffef80>
60001e98:	2a170913          	addi	x18,x14,673 # 39d02a1 <_start-0x5c62fd5f>
60001e9c:	008787b3          	add	x15,x15,x8
60001ea0:	0127a023          	sw	x18,0(x15)
60001ea4:	fffff7b7          	lui	x15,0xfffff
60001ea8:	02370737          	lui	x14,0x2370
60001eac:	f7c78793          	addi	x15,x15,-132 # ffffef7c <_stack_top+0x7fffef7c>
60001eb0:	18070993          	addi	x19,x14,384 # 2370180 <_start-0x5dc8fe80>
60001eb4:	008787b3          	add	x15,x15,x8
60001eb8:	0137a023          	sw	x19,0(x15)
60001ebc:	fffff7b7          	lui	x15,0xfffff
60001ec0:	03800737          	lui	x14,0x3800
60001ec4:	f7878793          	addi	x15,x15,-136 # ffffef78 <_stack_top+0x7fffef78>
60001ec8:	13e70a13          	addi	x20,x14,318 # 380013e <_start-0x5c7ffec2>
60001ecc:	008787b3          	add	x15,x15,x8
60001ed0:	0147a023          	sw	x20,0(x15)
60001ed4:	fffff7b7          	lui	x15,0xfffff
60001ed8:	02e50737          	lui	x14,0x2e50
60001edc:	f7478793          	addi	x15,x15,-140 # ffffef74 <_stack_top+0x7fffef74>
60001ee0:	0cc70a93          	addi	x21,x14,204 # 2e500cc <_start-0x5d1aff34>
60001ee4:	008787b3          	add	x15,x15,x8
60001ee8:	0157a023          	sw	x21,0(x15)
60001eec:	fffff7b7          	lui	x15,0xfffff
60001ef0:	03d60737          	lui	x14,0x3d60
60001ef4:	f7078793          	addi	x15,x15,-144 # ffffef70 <_stack_top+0x7fffef70>
60001ef8:	16470b13          	addi	x22,x14,356 # 3d60164 <_start-0x5c29fe9c>
60001efc:	008787b3          	add	x15,x15,x8
60001f00:	0167a023          	sw	x22,0(x15)
60001f04:	fffff7b7          	lui	x15,0xfffff
60001f08:	02af0737          	lui	x14,0x2af0
60001f0c:	f6c78793          	addi	x15,x15,-148 # ffffef6c <_stack_top+0x7fffef6c>
60001f10:	20870b93          	addi	x23,x14,520 # 2af0208 <_start-0x5d50fdf8>
60001f14:	008787b3          	add	x15,x15,x8
60001f18:	0177a023          	sw	x23,0(x15)
60001f1c:	fffff7b7          	lui	x15,0xfffff
60001f20:	02850737          	lui	x14,0x2850
60001f24:	f6878793          	addi	x15,x15,-152 # ffffef68 <_stack_top+0x7fffef68>
60001f28:	0c170c13          	addi	x24,x14,193 # 28500c1 <_start-0x5d7aff3f>
60001f2c:	008787b3          	add	x15,x15,x8
60001f30:	0187a023          	sw	x24,0(x15)
60001f34:	fffff7b7          	lui	x15,0xfffff
60001f38:	00b30737          	lui	x14,0xb30
60001f3c:	f6478793          	addi	x15,x15,-156 # ffffef64 <_stack_top+0x7fffef64>
60001f40:	33a70c93          	addi	x25,x14,826 # b3033a <_start-0x5f4cfcc6>
60001f44:	008787b3          	add	x15,x15,x8
60001f48:	0197a023          	sw	x25,0(x15)
60001f4c:	fffff7b7          	lui	x15,0xfffff
60001f50:	02690737          	lui	x14,0x2690
60001f54:	f6078793          	addi	x15,x15,-160 # ffffef60 <_stack_top+0x7fffef60>
60001f58:	3a670d13          	addi	x26,x14,934 # 26903a6 <_start-0x5d96fc5a>
60001f5c:	008787b3          	add	x15,x15,x8
60001f60:	01a7a023          	sw	x26,0(x15)
60001f64:	fffff7b7          	lui	x15,0xfffff
60001f68:	02330737          	lui	x14,0x2330
60001f6c:	f5c78793          	addi	x15,x15,-164 # ffffef5c <_stack_top+0x7fffef5c>
60001f70:	0fa70d93          	addi	x27,x14,250 # 23300fa <_start-0x5dccff06>
60001f74:	008787b3          	add	x15,x15,x8
60001f78:	02e70737          	lui	x14,0x2e70
60001f7c:	01b7a023          	sw	x27,0(x15)
60001f80:	1f270793          	addi	x15,x14,498 # 2e701f2 <_start-0x5d18fe0e>
60001f84:	fffff737          	lui	x14,0xfffff
60001f88:	f5870713          	addi	x14,x14,-168 # ffffef58 <_stack_top+0x7fffef58>
60001f8c:	00870733          	add	x14,x14,x8
60001f90:	00f72023          	sw	x15,0(x14)
60001f94:	fffff7b7          	lui	x15,0xfffff
60001f98:	00890737          	lui	x14,0x890
60001f9c:	f5478793          	addi	x15,x15,-172 # ffffef54 <_stack_top+0x7fffef54>
60001fa0:	37f70613          	addi	x12,x14,895 # 89037f <_start-0x5f76fc81>
60001fa4:	008787b3          	add	x15,x15,x8
60001fa8:	00c7a023          	sw	x12,0(x15)
60001fac:	fffff7b7          	lui	x15,0xfffff
60001fb0:	02450737          	lui	x14,0x2450
60001fb4:	f5078793          	addi	x15,x15,-176 # ffffef50 <_stack_top+0x7fffef50>
60001fb8:	2a070593          	addi	x11,x14,672 # 24502a0 <_start-0x5dbafd60>
60001fbc:	008787b3          	add	x15,x15,x8
60001fc0:	00b7a023          	sw	x11,0(x15)
60001fc4:	fffff7b7          	lui	x15,0xfffff
60001fc8:	01490737          	lui	x14,0x1490
60001fcc:	f4c78793          	addi	x15,x15,-180 # ffffef4c <_stack_top+0x7fffef4c>
60001fd0:	19f70513          	addi	x10,x14,415 # 149019f <_start-0x5eb6fe61>
60001fd4:	008787b3          	add	x15,x15,x8
60001fd8:	00a7a023          	sw	x10,0(x15)
60001fdc:	fffff7b7          	lui	x15,0xfffff
60001fe0:	01140737          	lui	x14,0x1140
60001fe4:	f4878793          	addi	x15,x15,-184 # ffffef48 <_stack_top+0x7fffef48>
60001fe8:	3d870813          	addi	x16,x14,984 # 11403d8 <_start-0x5eebfc28>
60001fec:	008787b3          	add	x15,x15,x8
60001ff0:	0107a023          	sw	x16,0(x15)
60001ff4:	fffff7b7          	lui	x15,0xfffff
60001ff8:	03110737          	lui	x14,0x3110
60001ffc:	f4478793          	addi	x15,x15,-188 # ffffef44 <_stack_top+0x7fffef44>
60002000:	26570893          	addi	x17,x14,613 # 3110265 <_start-0x5ceefd9b>
60002004:	008787b3          	add	x15,x15,x8
60002008:	0117a023          	sw	x17,0(x15)
6000200c:	fffff7b7          	lui	x15,0xfffff
60002010:	01a10737          	lui	x14,0x1a10
60002014:	f4078793          	addi	x15,x15,-192 # ffffef40 <_stack_top+0x7fffef40>
60002018:	008787b3          	add	x15,x15,x8
6000201c:	0f970713          	addi	x14,x14,249 # 1a100f9 <_start-0x5e5eff07>
60002020:	00e7a023          	sw	x14,0(x15)
60002024:	fffff7b7          	lui	x15,0xfffff
60002028:	fbc78793          	addi	x15,x15,-68 # ffffefbc <_stack_top+0x7fffefbc>
6000202c:	008787b3          	add	x15,x15,x8
60002030:	8cd42223          	sw	x13,-1852(x8)
60002034:	0007a683          	lw	x13,0(x15)
60002038:	fffff7b7          	lui	x15,0xfffff
6000203c:	fb878793          	addi	x15,x15,-72 # ffffefb8 <_stack_top+0x7fffefb8>
60002040:	008787b3          	add	x15,x15,x8
60002044:	8cd42423          	sw	x13,-1848(x8)
60002048:	0007a683          	lw	x13,0(x15)
6000204c:	fffff7b7          	lui	x15,0xfffff
60002050:	fb478793          	addi	x15,x15,-76 # ffffefb4 <_stack_top+0x7fffefb4>
60002054:	008787b3          	add	x15,x15,x8
60002058:	8cd42623          	sw	x13,-1844(x8)
6000205c:	0007a683          	lw	x13,0(x15)
60002060:	fffff7b7          	lui	x15,0xfffff
60002064:	fb078793          	addi	x15,x15,-80 # ffffefb0 <_stack_top+0x7fffefb0>
60002068:	008787b3          	add	x15,x15,x8
6000206c:	8cd42823          	sw	x13,-1840(x8)
60002070:	0007a683          	lw	x13,0(x15)
60002074:	fffff7b7          	lui	x15,0xfffff
60002078:	fac78793          	addi	x15,x15,-84 # ffffefac <_stack_top+0x7fffefac>
6000207c:	008787b3          	add	x15,x15,x8
60002080:	8cd42a23          	sw	x13,-1836(x8)
60002084:	0007a683          	lw	x13,0(x15)
60002088:	fffff7b7          	lui	x15,0xfffff
6000208c:	fa878793          	addi	x15,x15,-88 # ffffefa8 <_stack_top+0x7fffefa8>
60002090:	008787b3          	add	x15,x15,x8
60002094:	8cd42c23          	sw	x13,-1832(x8)
60002098:	0007a683          	lw	x13,0(x15)
6000209c:	fffff7b7          	lui	x15,0xfffff
600020a0:	fa478793          	addi	x15,x15,-92 # ffffefa4 <_stack_top+0x7fffefa4>
600020a4:	008787b3          	add	x15,x15,x8
600020a8:	8cd42e23          	sw	x13,-1828(x8)
600020ac:	0007a683          	lw	x13,0(x15)
600020b0:	fffff7b7          	lui	x15,0xfffff
600020b4:	fa078793          	addi	x15,x15,-96 # ffffefa0 <_stack_top+0x7fffefa0>
600020b8:	008787b3          	add	x15,x15,x8
600020bc:	8ed42023          	sw	x13,-1824(x8)
600020c0:	0007a683          	lw	x13,0(x15)
600020c4:	fffff7b7          	lui	x15,0xfffff
600020c8:	f9c78793          	addi	x15,x15,-100 # ffffef9c <_stack_top+0x7fffef9c>
600020cc:	008787b3          	add	x15,x15,x8
600020d0:	8ed42223          	sw	x13,-1820(x8)
600020d4:	0007a683          	lw	x13,0(x15)
600020d8:	fffff7b7          	lui	x15,0xfffff
600020dc:	f9878793          	addi	x15,x15,-104 # ffffef98 <_stack_top+0x7fffef98>
600020e0:	008787b3          	add	x15,x15,x8
600020e4:	8ed42423          	sw	x13,-1816(x8)
600020e8:	0007a683          	lw	x13,0(x15)
600020ec:	fffff7b7          	lui	x15,0xfffff
600020f0:	f9478793          	addi	x15,x15,-108 # ffffef94 <_stack_top+0x7fffef94>
600020f4:	008787b3          	add	x15,x15,x8
600020f8:	8ed42623          	sw	x13,-1812(x8)
600020fc:	0007a683          	lw	x13,0(x15)
60002100:	fffff7b7          	lui	x15,0xfffff
60002104:	f9078793          	addi	x15,x15,-112 # ffffef90 <_stack_top+0x7fffef90>
60002108:	008787b3          	add	x15,x15,x8
6000210c:	8ed42823          	sw	x13,-1808(x8)
60002110:	0007a683          	lw	x13,0(x15)
60002114:	fffff7b7          	lui	x15,0xfffff
60002118:	f8c78793          	addi	x15,x15,-116 # ffffef8c <_stack_top+0x7fffef8c>
6000211c:	008787b3          	add	x15,x15,x8
60002120:	8ed42a23          	sw	x13,-1804(x8)
60002124:	0007a683          	lw	x13,0(x15)
60002128:	fffff7b7          	lui	x15,0xfffff
6000212c:	f8878793          	addi	x15,x15,-120 # ffffef88 <_stack_top+0x7fffef88>
60002130:	008787b3          	add	x15,x15,x8
60002134:	8ed42c23          	sw	x13,-1800(x8)
60002138:	0007a683          	lw	x13,0(x15)
6000213c:	fffff7b7          	lui	x15,0xfffff
60002140:	f8478793          	addi	x15,x15,-124 # ffffef84 <_stack_top+0x7fffef84>
60002144:	008787b3          	add	x15,x15,x8
60002148:	8ed42e23          	sw	x13,-1796(x8)
6000214c:	0007a683          	lw	x13,0(x15)
60002150:	fffff7b7          	lui	x15,0xfffff
60002154:	f8078793          	addi	x15,x15,-128 # ffffef80 <_stack_top+0x7fffef80>
60002158:	008787b3          	add	x15,x15,x8
6000215c:	90d42023          	sw	x13,-1792(x8)
60002160:	0007a683          	lw	x13,0(x15)
60002164:	fffff7b7          	lui	x15,0xfffff
60002168:	f7c78793          	addi	x15,x15,-132 # ffffef7c <_stack_top+0x7fffef7c>
6000216c:	008787b3          	add	x15,x15,x8
60002170:	90d42223          	sw	x13,-1788(x8)
60002174:	0007a683          	lw	x13,0(x15)
60002178:	fffff7b7          	lui	x15,0xfffff
6000217c:	f7878793          	addi	x15,x15,-136 # ffffef78 <_stack_top+0x7fffef78>
60002180:	008787b3          	add	x15,x15,x8
60002184:	90d42423          	sw	x13,-1784(x8)
60002188:	0007a683          	lw	x13,0(x15)
6000218c:	fffff7b7          	lui	x15,0xfffff
60002190:	f7478793          	addi	x15,x15,-140 # ffffef74 <_stack_top+0x7fffef74>
60002194:	008787b3          	add	x15,x15,x8
60002198:	90d42623          	sw	x13,-1780(x8)
6000219c:	0007a683          	lw	x13,0(x15)
600021a0:	fffff7b7          	lui	x15,0xfffff
600021a4:	f7078793          	addi	x15,x15,-144 # ffffef70 <_stack_top+0x7fffef70>
600021a8:	008787b3          	add	x15,x15,x8
600021ac:	90d42823          	sw	x13,-1776(x8)
600021b0:	0007a683          	lw	x13,0(x15)
600021b4:	fffff7b7          	lui	x15,0xfffff
600021b8:	f6c78793          	addi	x15,x15,-148 # ffffef6c <_stack_top+0x7fffef6c>
600021bc:	008787b3          	add	x15,x15,x8
600021c0:	90d42a23          	sw	x13,-1772(x8)
600021c4:	0007a683          	lw	x13,0(x15)
600021c8:	fffff7b7          	lui	x15,0xfffff
600021cc:	f6878793          	addi	x15,x15,-152 # ffffef68 <_stack_top+0x7fffef68>
600021d0:	008787b3          	add	x15,x15,x8
600021d4:	90d42c23          	sw	x13,-1768(x8)
600021d8:	0007a683          	lw	x13,0(x15)
600021dc:	fffff7b7          	lui	x15,0xfffff
600021e0:	f6478793          	addi	x15,x15,-156 # ffffef64 <_stack_top+0x7fffef64>
600021e4:	008787b3          	add	x15,x15,x8
600021e8:	90d42e23          	sw	x13,-1764(x8)
600021ec:	0007a683          	lw	x13,0(x15)
600021f0:	fffff7b7          	lui	x15,0xfffff
600021f4:	f6078793          	addi	x15,x15,-160 # ffffef60 <_stack_top+0x7fffef60>
600021f8:	008787b3          	add	x15,x15,x8
600021fc:	92d42023          	sw	x13,-1760(x8)
60002200:	0007a683          	lw	x13,0(x15)
60002204:	fffff7b7          	lui	x15,0xfffff
60002208:	f5c78793          	addi	x15,x15,-164 # ffffef5c <_stack_top+0x7fffef5c>
6000220c:	008787b3          	add	x15,x15,x8
60002210:	92d42223          	sw	x13,-1756(x8)
60002214:	0007a683          	lw	x13,0(x15)
60002218:	fffff7b7          	lui	x15,0xfffff
6000221c:	f5878793          	addi	x15,x15,-168 # ffffef58 <_stack_top+0x7fffef58>
60002220:	008787b3          	add	x15,x15,x8
60002224:	92d42423          	sw	x13,-1752(x8)
60002228:	0007a683          	lw	x13,0(x15)
6000222c:	fffff7b7          	lui	x15,0xfffff
60002230:	f5478793          	addi	x15,x15,-172 # ffffef54 <_stack_top+0x7fffef54>
60002234:	008787b3          	add	x15,x15,x8
60002238:	92d42623          	sw	x13,-1748(x8)
6000223c:	0007a683          	lw	x13,0(x15)
60002240:	fffff7b7          	lui	x15,0xfffff
60002244:	f5078793          	addi	x15,x15,-176 # ffffef50 <_stack_top+0x7fffef50>
60002248:	008787b3          	add	x15,x15,x8
6000224c:	92d42823          	sw	x13,-1744(x8)
60002250:	0007a683          	lw	x13,0(x15)
60002254:	fffff7b7          	lui	x15,0xfffff
60002258:	f4c78793          	addi	x15,x15,-180 # ffffef4c <_stack_top+0x7fffef4c>
6000225c:	008787b3          	add	x15,x15,x8
60002260:	92d42a23          	sw	x13,-1740(x8)
60002264:	0007a683          	lw	x13,0(x15)
60002268:	fffff7b7          	lui	x15,0xfffff
6000226c:	f4878793          	addi	x15,x15,-184 # ffffef48 <_stack_top+0x7fffef48>
60002270:	008787b3          	add	x15,x15,x8
60002274:	92d42c23          	sw	x13,-1736(x8)
60002278:	0007a683          	lw	x13,0(x15)
6000227c:	fffff7b7          	lui	x15,0xfffff
60002280:	f4478793          	addi	x15,x15,-188 # ffffef44 <_stack_top+0x7fffef44>
60002284:	008787b3          	add	x15,x15,x8
60002288:	92d42e23          	sw	x13,-1732(x8)
6000228c:	0007a683          	lw	x13,0(x15)
60002290:	fffff7b7          	lui	x15,0xfffff
60002294:	f4078793          	addi	x15,x15,-192 # ffffef40 <_stack_top+0x7fffef40>
60002298:	008787b3          	add	x15,x15,x8
6000229c:	94d42023          	sw	x13,-1728(x8)
600022a0:	0007a683          	lw	x13,0(x15)
600022a4:	fffff7b7          	lui	x15,0xfffff
600022a8:	fbc78793          	addi	x15,x15,-68 # ffffefbc <_stack_top+0x7fffefbc>
600022ac:	94d42223          	sw	x13,-1724(x8)
600022b0:	011306b7          	lui	x13,0x1130
600022b4:	008787b3          	add	x15,x15,x8
600022b8:	34368693          	addi	x13,x13,835 # 1130343 <_start-0x5eecfcbd>
600022bc:	00d7a023          	sw	x13,0(x15)
600022c0:	fffff7b7          	lui	x15,0xfffff
600022c4:	00c206b7          	lui	x13,0xc20
600022c8:	fb878793          	addi	x15,x15,-72 # ffffefb8 <_stack_top+0x7fffefb8>
600022cc:	008787b3          	add	x15,x15,x8
600022d0:	2a168693          	addi	x13,x13,673 # c202a1 <_start-0x5f3dfd5f>
600022d4:	00d7a023          	sw	x13,0(x15)
600022d8:	fffff7b7          	lui	x15,0xfffff
600022dc:	027506b7          	lui	x13,0x2750
600022e0:	fb478793          	addi	x15,x15,-76 # ffffefb4 <_stack_top+0x7fffefb4>
600022e4:	008787b3          	add	x15,x15,x8
600022e8:	20668693          	addi	x13,x13,518 # 2750206 <_start-0x5d8afdfa>
600022ec:	00d7a023          	sw	x13,0(x15)
600022f0:	fffff7b7          	lui	x15,0xfffff
600022f4:	015606b7          	lui	x13,0x1560
600022f8:	fb078793          	addi	x15,x15,-80 # ffffefb0 <_stack_top+0x7fffefb0>
600022fc:	008787b3          	add	x15,x15,x8
60002300:	20768693          	addi	x13,x13,519 # 1560207 <_start-0x5ea9fdf9>
60002304:	00d7a023          	sw	x13,0(x15)
60002308:	fffff6b7          	lui	x13,0xfffff
6000230c:	026507b7          	lui	x15,0x2650
60002310:	f3c68693          	addi	x13,x13,-196 # ffffef3c <_stack_top+0x7fffef3c>
60002314:	008686b3          	add	x13,x13,x8
60002318:	10f78793          	addi	x15,x15,271 # 265010f <_start-0x5d9afef1>
6000231c:	00f6a023          	sw	x15,0(x13)
60002320:	fffff7b7          	lui	x15,0xfffff
60002324:	fbc78693          	addi	x13,x15,-68 # ffffefbc <_stack_top+0x7fffefbc>
60002328:	008686b3          	add	x13,x13,x8
6000232c:	0006a683          	lw	x13,0(x13)
60002330:	02520db7          	lui	x27,0x2520
60002334:	03d60d37          	lui	x26,0x3d60
60002338:	96d42823          	sw	x13,-1680(x8)
6000233c:	fb878693          	addi	x13,x15,-72
60002340:	008686b3          	add	x13,x13,x8
60002344:	0006a683          	lw	x13,0(x13)
60002348:	03980cb7          	lui	x25,0x3980
6000234c:	03000c37          	lui	x24,0x3000
60002350:	96d42a23          	sw	x13,-1676(x8)
60002354:	fb478693          	addi	x13,x15,-76
60002358:	008686b3          	add	x13,x13,x8
6000235c:	0006a683          	lw	x13,0(x13)
60002360:	02640bb7          	lui	x23,0x2640
60002364:	01e30b37          	lui	x22,0x1e30
60002368:	96d42c23          	sw	x13,-1672(x8)
6000236c:	015a0ab7          	lui	x21,0x15a0
60002370:	fb078693          	addi	x13,x15,-80
60002374:	02ca0a37          	lui	x20,0x2ca0
60002378:	02ad09b7          	lui	x19,0x2ad0
6000237c:	01cd0937          	lui	x18,0x1cd0
60002380:	037a04b7          	lui	x9,0x37a0
60002384:	02a900b7          	lui	x1,0x2a90
60002388:	01f603b7          	lui	x7,0x1f60
6000238c:	032f02b7          	lui	x5,0x32f0
60002390:	024a0fb7          	lui	x31,0x24a0
60002394:	01440f37          	lui	x30,0x1440
60002398:	01c20eb7          	lui	x29,0x1c20
6000239c:	03a90e37          	lui	x28,0x3a90
600023a0:	03350337          	lui	x6,0x3350
600023a4:	03ca08b7          	lui	x17,0x3ca0
600023a8:	02660837          	lui	x16,0x2660
600023ac:	01ef0537          	lui	x10,0x1ef0
600023b0:	035505b7          	lui	x11,0x3550
600023b4:	03000637          	lui	x12,0x3000
600023b8:	f3c78793          	addi	x15,x15,-196
600023bc:	344d8d93          	addi	x27,x27,836 # 2520344 <_start-0x5dadfcbc>
600023c0:	16fd0d13          	addi	x26,x26,367 # 3d6016f <_start-0x5c29fe91>
600023c4:	21dc8c93          	addi	x25,x25,541 # 398021d <_start-0x5c67fde3>
600023c8:	131c0c13          	addi	x24,x24,305 # 3000131 <_start-0x5cfffecf>
600023cc:	1b7b8b93          	addi	x23,x23,439 # 26401b7 <_start-0x5d9bfe49>
600023d0:	0afb0b13          	addi	x22,x22,175 # 1e300af <_start-0x5e1cff51>
600023d4:	381a8a93          	addi	x21,x21,897 # 15a0381 <_start-0x5ea5fc7f>
600023d8:	211a0a13          	addi	x20,x20,529 # 2ca0211 <_start-0x5d35fdef>
600023dc:	0d098993          	addi	x19,x19,208 # 2ad00d0 <_start-0x5d52ff30>
600023e0:	3cc90913          	addi	x18,x18,972 # 1cd03cc <_start-0x5e32fc34>
600023e4:	2e748493          	addi	x9,x9,743 # 37a02e7 <_start-0x5c85fd19>
600023e8:	1a908093          	addi	x1,x1,425 # 2a901a9 <_start-0x5d56fe57>
600023ec:	3a938393          	addi	x7,x7,937 # 1f603a9 <_start-0x5e09fc57>
600023f0:	16c28293          	addi	x5,x5,364 # 32f016c <_start-0x5cd0fe94>
600023f4:	0eff8f93          	addi	x31,x31,239 # 24a00ef <_start-0x5db5ff11>
600023f8:	2bdf0f13          	addi	x30,x30,701 # 14402bd <_start-0x5ebbfd43>
600023fc:	36fe8e93          	addi	x29,x29,879 # 1c2036f <_start-0x5e3dfc91>
60002400:	238e0e13          	addi	x28,x28,568 # 3a90238 <_start-0x5c56fdc8>
60002404:	0c230313          	addi	x6,x6,194 # 33500c2 <_start-0x5ccaff3e>
60002408:	21a88893          	addi	x17,x17,538 # 3ca021a <_start-0x5c35fde6>
6000240c:	11e80813          	addi	x16,x16,286 # 266011e <_start-0x5d99fee2>
60002410:	2d950513          	addi	x10,x10,729 # 1ef02d9 <_start-0x5e10fd27>
60002414:	0ba58593          	addi	x11,x11,186 # 35500ba <_start-0x5caaff46>
60002418:	1a560613          	addi	x12,x12,421 # 30001a5 <_start-0x5cfffe5b>
6000241c:	008686b3          	add	x13,x13,x8
60002420:	008787b3          	add	x15,x15,x8
60002424:	95b42423          	sw	x27,-1720(x8)
60002428:	95a42623          	sw	x26,-1716(x8)
6000242c:	95942823          	sw	x25,-1712(x8)
60002430:	95842a23          	sw	x24,-1708(x8)
60002434:	95742c23          	sw	x23,-1704(x8)
60002438:	95642e23          	sw	x22,-1700(x8)
6000243c:	97542023          	sw	x21,-1696(x8)
60002440:	97442223          	sw	x20,-1692(x8)
60002444:	97342423          	sw	x19,-1688(x8)
60002448:	97242623          	sw	x18,-1684(x8)
6000244c:	96942e23          	sw	x9,-1668(x8)
60002450:	98142023          	sw	x1,-1664(x8)
60002454:	98742223          	sw	x7,-1660(x8)
60002458:	98542423          	sw	x5,-1656(x8)
6000245c:	99f42623          	sw	x31,-1652(x8)
60002460:	99e42823          	sw	x30,-1648(x8)
60002464:	99d42a23          	sw	x29,-1644(x8)
60002468:	99c42c23          	sw	x28,-1640(x8)
6000246c:	98642e23          	sw	x6,-1636(x8)
60002470:	9b142023          	sw	x17,-1632(x8)
60002474:	9b042223          	sw	x16,-1628(x8)
60002478:	9aa42423          	sw	x10,-1624(x8)
6000247c:	9ab42623          	sw	x11,-1620(x8)
60002480:	9ac42823          	sw	x12,-1616(x8)
60002484:	0006a683          	lw	x13,0(x13)
60002488:	0007a783          	lw	x15,0(x15)
6000248c:	03560737          	lui	x14,0x3560
60002490:	2b970713          	addi	x14,x14,697 # 35602b9 <_start-0x5ca9fd47>
60002494:	9ad42a23          	sw	x13,-1612(x8)
60002498:	9ae42c23          	sw	x14,-1608(x8)
6000249c:	9af42e23          	sw	x15,-1604(x8)
600024a0:	00102013          	slti	x0,x0,1
600024a4:	00302013          	slti	x0,x0,3
600024a8:	000014b7          	lui	x9,0x1
600024ac:	fc040793          	addi	x15,x8,-64
600024b0:	409784b3          	sub	x9,x15,x9
600024b4:	00003537          	lui	x10,0x3
600024b8:	00010837          	lui	x16,0x10
600024bc:	00048593          	mv	x11,x9
600024c0:	00000613          	li	x12,0
600024c4:	00000693          	li	x13,0
600024c8:	fff80813          	addi	x16,x16,-1 # ffff <_start-0x5fff0001>
600024cc:	60050513          	addi	x10,x10,1536 # 3600 <_start-0x5fffca00>
600024d0:	1ff6f793          	andi	x15,x13,511
600024d4:	00179793          	slli	x15,x15,0x1
600024d8:	fc078793          	addi	x15,x15,-64
600024dc:	1ff67713          	andi	x14,x12,511
600024e0:	008787b3          	add	x15,x15,x8
600024e4:	8007d783          	lhu	x15,-2048(x15)
600024e8:	00171713          	slli	x14,x14,0x1
600024ec:	fc070713          	addi	x14,x14,-64
600024f0:	00870733          	add	x14,x14,x8
600024f4:	80075703          	lhu	x14,-2048(x14)
600024f8:	00f79793          	slli	x15,x15,0xf
600024fc:	01079793          	slli	x15,x15,0x10
60002500:	0107d793          	srli	x15,x15,0x10
60002504:	01f71713          	slli	x14,x14,0x1f
60002508:	0107f7b3          	and	x15,x15,x16
6000250c:	00e7e7b3          	or	x15,x15,x14
60002510:	00f5a023          	sw	x15,0(x11)
60002514:	01b68693          	addi	x13,x13,27
60002518:	01760613          	addi	x12,x12,23
6000251c:	00458593          	addi	x11,x11,4
60002520:	faa698e3          	bne	x13,x10,600024d0 <main+0xd8c>
60002524:	00010913          	mv	x18,x2
60002528:	c0010113          	addi	x2,x2,-1024
6000252c:	00010513          	mv	x10,x2
60002530:	00001337          	lui	x6,0x1
60002534:	c0010113          	addi	x2,x2,-1024
60002538:	00010a93          	mv	x21,x2
6000253c:	80030313          	addi	x6,x6,-2048 # 800 <_start-0x5ffff800>
60002540:	00050993          	mv	x19,x10
60002544:	000a8a13          	mv	x20,x21
60002548:	00648333          	add	x6,x9,x6
6000254c:	000a8693          	mv	x13,x21
60002550:	00050713          	mv	x14,x10
60002554:	00048793          	mv	x15,x9
60002558:	0007d883          	lhu	x17,0(x15)
6000255c:	0027d803          	lhu	x16,2(x15)
60002560:	0047d583          	lhu	x11,4(x15)
60002564:	0067d603          	lhu	x12,6(x15)
60002568:	01171023          	sh	x17,0(x14)
6000256c:	01071123          	sh	x16,2(x14)
60002570:	00b69023          	sh	x11,0(x13)
60002574:	00c69123          	sh	x12,2(x13)
60002578:	00878793          	addi	x15,x15,8
6000257c:	00470713          	addi	x14,x14,4
60002580:	00468693          	addi	x13,x13,4
60002584:	fcf31ae3          	bne	x6,x15,60002558 <main+0xe14>
60002588:	fffff097          	auipc	x1,0xfffff
6000258c:	bf4080e7          	jalr	-1036(x1) # 6000117c <fft.constprop.1>
60002590:	000a8513          	mv	x10,x21
60002594:	fffff097          	auipc	x1,0xfffff
60002598:	be8080e7          	jalr	-1048(x1) # 6000117c <fft.constprop.1>
6000259c:	000086b7          	lui	x13,0x8
600025a0:	00010637          	lui	x12,0x10
600025a4:	40048513          	addi	x10,x9,1024 # 1400 <_start-0x5fffec00>
600025a8:	ffff85b7          	lui	x11,0xffff8
600025ac:	fff68693          	addi	x13,x13,-1 # 7fff <_start-0x5fff8001>
600025b0:	fff60613          	addi	x12,x12,-1 # ffff <_start-0x5fff0001>
600025b4:	000a5803          	lhu	x16,0(x20)
600025b8:	01059713          	slli	x14,x11,0x10
600025bc:	01075713          	srli	x14,x14,0x10
600025c0:	03070833          	mul	x16,x14,x16
600025c4:	002a5783          	lhu	x15,2(x20)
600025c8:	0009de03          	lhu	x28,0(x19)
600025cc:	0029d303          	lhu	x6,2(x19)
600025d0:	00448493          	addi	x9,x9,4
600025d4:	004a0a13          	addi	x20,x20,4
600025d8:	00498993          	addi	x19,x19,4
600025dc:	00000593          	li	x11,0
600025e0:	02f70733          	mul	x14,x14,x15
600025e4:	01081813          	slli	x16,x16,0x10
600025e8:	41085813          	srai	x16,x16,0x10
600025ec:	41f85793          	srai	x15,x16,0x1f
600025f0:	00d7f7b3          	and	x15,x15,x13
600025f4:	010787b3          	add	x15,x15,x16
600025f8:	40f7d793          	srai	x15,x15,0xf
600025fc:	01079793          	slli	x15,x15,0x10
60002600:	0107d793          	srli	x15,x15,0x10
60002604:	00fe0eb3          	add	x29,x28,x15
60002608:	01071713          	slli	x14,x14,0x10
6000260c:	41075713          	srai	x14,x14,0x10
60002610:	40fe0e33          	sub	x28,x28,x15
60002614:	41f75793          	srai	x15,x14,0x1f
60002618:	00d7f7b3          	and	x15,x15,x13
6000261c:	00e787b3          	add	x15,x15,x14
60002620:	40f7d793          	srai	x15,x15,0xf
60002624:	01079793          	slli	x15,x15,0x10
60002628:	0107d793          	srli	x15,x15,0x10
6000262c:	010e9e93          	slli	x29,x29,0x10
60002630:	010e1e13          	slli	x28,x28,0x10
60002634:	00f30f33          	add	x30,x6,x15
60002638:	410ede93          	srai	x29,x29,0x10
6000263c:	410e5e13          	srai	x28,x28,0x10
60002640:	40f30333          	sub	x6,x6,x15
60002644:	010f1f13          	slli	x30,x30,0x10
60002648:	01031313          	slli	x6,x6,0x10
6000264c:	41fed713          	srai	x14,x29,0x1f
60002650:	41fe5793          	srai	x15,x28,0x1f
60002654:	410f5f13          	srai	x30,x30,0x10
60002658:	41035313          	srai	x6,x6,0x10
6000265c:	00d77733          	and	x14,x14,x13
60002660:	00d7f7b3          	and	x15,x15,x13
60002664:	41ff5893          	srai	x17,x30,0x1f
60002668:	41f35813          	srai	x16,x6,0x1f
6000266c:	01d70733          	add	x14,x14,x29
60002670:	01c787b3          	add	x15,x15,x28
60002674:	00d8f8b3          	and	x17,x17,x13
60002678:	00d87833          	and	x16,x16,x13
6000267c:	40f75713          	srai	x14,x14,0xf
60002680:	40f7d793          	srai	x15,x15,0xf
60002684:	01e888b3          	add	x17,x17,x30
60002688:	00680833          	add	x16,x16,x6
6000268c:	01071713          	slli	x14,x14,0x10
60002690:	01079793          	slli	x15,x15,0x10
60002694:	01075713          	srli	x14,x14,0x10
60002698:	40f8d893          	srai	x17,x17,0xf
6000269c:	0107d793          	srli	x15,x15,0x10
600026a0:	40f85813          	srai	x16,x16,0xf
600026a4:	01089893          	slli	x17,x17,0x10
600026a8:	00c77733          	and	x14,x14,x12
600026ac:	01081813          	slli	x16,x16,0x10
600026b0:	00c7f7b3          	and	x15,x15,x12
600026b4:	01176733          	or	x14,x14,x17
600026b8:	0107e7b3          	or	x15,x15,x16
600026bc:	fee4ae23          	sw	x14,-4(x9)
600026c0:	3ef4ae23          	sw	x15,1020(x9)
600026c4:	ee9518e3          	bne	x10,x9,600025b4 <main+0xe70>
600026c8:	00090113          	mv	x2,x18
600026cc:	00402013          	slti	x0,x0,4
600026d0:	00202013          	slti	x0,x0,2
600026d4:	fffff2b7          	lui	x5,0xfffff
600026d8:	f3028293          	addi	x5,x5,-208 # ffffef30 <_stack_top+0x7fffef30>
600026dc:	00540133          	add	x2,x8,x5
600026e0:	000012b7          	lui	x5,0x1
600026e4:	00510133          	add	x2,x2,x5
600026e8:	0cc12083          	lw	x1,204(x2)
600026ec:	0c812403          	lw	x8,200(x2)
600026f0:	0c412483          	lw	x9,196(x2)
600026f4:	0c012903          	lw	x18,192(x2)
600026f8:	0bc12983          	lw	x19,188(x2)
600026fc:	0b812a03          	lw	x20,184(x2)
60002700:	0b412a83          	lw	x21,180(x2)
60002704:	0b012b03          	lw	x22,176(x2)
60002708:	0ac12b83          	lw	x23,172(x2)
6000270c:	0a812c03          	lw	x24,168(x2)
60002710:	0a412c83          	lw	x25,164(x2)
60002714:	0a012d03          	lw	x26,160(x2)
60002718:	09c12d83          	lw	x27,156(x2)
6000271c:	00000513          	li	x10,0
60002720:	0d010113          	addi	x2,x2,208
60002724:	00008067          	ret

Disassembly of section .data:

60002728 <_data_vma_end-0xd8>:
	...

Disassembly of section .tohost:

60002800 <tohost>:
	...

Disassembly of section .fromhost:

60002808 <fromhost>:
	...
