
../testcode/physics.elf:     file format elf32-littleriscv


Disassembly of section .text.swinit1:

60000000 <_start>:
60000000:	00001317          	auipc	x6,0x1
60000004:	e4030313          	addi	x6,x6,-448 # 60000e40 <iter_count>
60000008:	00001397          	auipc	x7,0x1
6000000c:	e3c38393          	addi	x7,x7,-452 # 60000e44 <_bss_vma_end>
60000010:	00730863          	beq	x6,x7,60000020 <_setup>

60000014 <_initbss_loop>:
60000014:	00032023          	sw	x0,0(x6)
60000018:	00430313          	addi	x6,x6,4
6000001c:	fe736ce3          	bltu	x6,x7,60000014 <_initbss_loop>

60000020 <_setup>:
60000020:	20000117          	auipc	x2,0x20000
60000024:	fe010113          	addi	x2,x2,-32 # 80000000 <_stack_top>
60000028:	00010433          	add	x8,x2,x0
6000002c:	00000097          	auipc	x1,0x0
60000030:	5c0080e7          	jalr	1472(x1) # 600005ec <main>
60000034:	f0002013          	slti	x0,x0,-256
60000038:	00000097          	auipc	x1,0x0
6000003c:	1b0080e7          	jalr	432(x1) # 600001e8 <_fini>

Disassembly of section .text:

60000040 <support>:
60000040:	00052f83          	lw	x31,0(x10)
60000044:	00452e03          	lw	x28,4(x10)
60000048:	fe010113          	addi	x2,x2,-32
6000004c:	02ef8833          	mul	x16,x31,x14
60000050:	00078f13          	mv	x30,x15
60000054:	00f12623          	sw	x15,12(x2)
60000058:	00070e93          	mv	x29,x14
6000005c:	00e12423          	sw	x14,8(x2)
60000060:	00100713          	li	x14,1
60000064:	02fe07b3          	mul	x15,x28,x15
60000068:	00f807b3          	add	x15,x16,x15
6000006c:	04b77663          	bgeu	x14,x11,600000b8 <support+0x78>
60000070:	00850893          	addi	x17,x10,8
60000074:	00000713          	li	x14,0
60000078:	00100e13          	li	x28,1
6000007c:	0048a803          	lw	x16,4(x17)
60000080:	0008a303          	lw	x6,0(x17)
60000084:	00888893          	addi	x17,x17,8
60000088:	030f0833          	mul	x16,x30,x16
6000008c:	026e8333          	mul	x6,x29,x6
60000090:	00680833          	add	x16,x16,x6
60000094:	0107d663          	bge	x15,x16,600000a0 <support+0x60>
60000098:	000e0713          	mv	x14,x28
6000009c:	00080793          	mv	x15,x16
600000a0:	001e0e13          	addi	x28,x28,1
600000a4:	fdc59ce3          	bne	x11,x28,6000007c <support+0x3c>
600000a8:	00371713          	slli	x14,x14,0x3
600000ac:	00e50533          	add	x10,x10,x14
600000b0:	00052f83          	lw	x31,0(x10)
600000b4:	00452e03          	lw	x28,4(x10)
600000b8:	00062503          	lw	x10,0(x12)
600000bc:	00462583          	lw	x11,4(x12)
600000c0:	41d00eb3          	neg	x29,x29
600000c4:	41e00f33          	neg	x30,x30
600000c8:	03d507b3          	mul	x15,x10,x29
600000cc:	00100713          	li	x14,1
600000d0:	03e58833          	mul	x16,x11,x30
600000d4:	010787b3          	add	x15,x15,x16
600000d8:	04d77663          	bgeu	x14,x13,60000124 <support+0xe4>
600000dc:	00860813          	addi	x16,x12,8
600000e0:	00000713          	li	x14,0
600000e4:	00100313          	li	x6,1
600000e8:	00482583          	lw	x11,4(x16)
600000ec:	00082883          	lw	x17,0(x16)
600000f0:	00880813          	addi	x16,x16,8
600000f4:	02bf05b3          	mul	x11,x30,x11
600000f8:	031e88b3          	mul	x17,x29,x17
600000fc:	011585b3          	add	x11,x11,x17
60000100:	00b7d663          	bge	x15,x11,6000010c <support+0xcc>
60000104:	00030713          	mv	x14,x6
60000108:	00058793          	mv	x15,x11
6000010c:	00130313          	addi	x6,x6,1
60000110:	fc669ce3          	bne	x13,x6,600000e8 <support+0xa8>
60000114:	00371713          	slli	x14,x14,0x3
60000118:	00e60633          	add	x12,x12,x14
6000011c:	00062503          	lw	x10,0(x12)
60000120:	00462583          	lw	x11,4(x12)
60000124:	40af8533          	sub	x10,x31,x10
60000128:	40be05b3          	sub	x11,x28,x11
6000012c:	02010113          	addi	x2,x2,32
60000130:	00008067          	ret

60000134 <__divsi3>:
60000134:	06054063          	bltz	x10,60000194 <__umodsi3+0x10>
60000138:	0605c663          	bltz	x11,600001a4 <__umodsi3+0x20>

6000013c <__hidden___udivsi3>:
6000013c:	00058613          	mv	x12,x11
60000140:	00050593          	mv	x11,x10
60000144:	fff00513          	li	x10,-1
60000148:	02060c63          	beqz	x12,60000180 <__hidden___udivsi3+0x44>
6000014c:	00100693          	li	x13,1
60000150:	00b67a63          	bgeu	x12,x11,60000164 <__hidden___udivsi3+0x28>
60000154:	00c05863          	blez	x12,60000164 <__hidden___udivsi3+0x28>
60000158:	00161613          	slli	x12,x12,0x1
6000015c:	00169693          	slli	x13,x13,0x1
60000160:	feb66ae3          	bltu	x12,x11,60000154 <__hidden___udivsi3+0x18>
60000164:	00000513          	li	x10,0
60000168:	00c5e663          	bltu	x11,x12,60000174 <__hidden___udivsi3+0x38>
6000016c:	40c585b3          	sub	x11,x11,x12
60000170:	00d56533          	or	x10,x10,x13
60000174:	0016d693          	srli	x13,x13,0x1
60000178:	00165613          	srli	x12,x12,0x1
6000017c:	fe0696e3          	bnez	x13,60000168 <__hidden___udivsi3+0x2c>
60000180:	00008067          	ret

60000184 <__umodsi3>:
60000184:	00008293          	mv	x5,x1
60000188:	fb5ff0ef          	jal	6000013c <__hidden___udivsi3>
6000018c:	00058513          	mv	x10,x11
60000190:	00028067          	jr	x5
60000194:	40a00533          	neg	x10,x10
60000198:	00b04863          	bgtz	x11,600001a8 <__umodsi3+0x24>
6000019c:	40b005b3          	neg	x11,x11
600001a0:	f9dff06f          	j	6000013c <__hidden___udivsi3>
600001a4:	40b005b3          	neg	x11,x11
600001a8:	00008293          	mv	x5,x1
600001ac:	f91ff0ef          	jal	6000013c <__hidden___udivsi3>
600001b0:	40a00533          	neg	x10,x10
600001b4:	00028067          	jr	x5

600001b8 <__modsi3>:
600001b8:	00008293          	mv	x5,x1
600001bc:	0005ca63          	bltz	x11,600001d0 <__modsi3+0x18>
600001c0:	00054c63          	bltz	x10,600001d8 <__modsi3+0x20>
600001c4:	f79ff0ef          	jal	6000013c <__hidden___udivsi3>
600001c8:	00058513          	mv	x10,x11
600001cc:	00028067          	jr	x5
600001d0:	40b005b3          	neg	x11,x11
600001d4:	fe0558e3          	bgez	x10,600001c4 <__modsi3+0xc>
600001d8:	40a00533          	neg	x10,x10
600001dc:	f61ff0ef          	jal	6000013c <__hidden___udivsi3>
600001e0:	40b00533          	neg	x10,x11
600001e4:	00028067          	jr	x5

600001e8 <_fini>:
600001e8:	00000063          	beqz	x0,600001e8 <_fini>
600001ec:	00000013          	nop
600001f0:	00000013          	nop
600001f4:	00000013          	nop
600001f8:	00000013          	nop
600001fc:	00000013          	nop
60000200:	00000013          	nop
60000204:	00000013          	nop
60000208:	00000013          	nop
6000020c:	00000013          	nop
60000210:	00000013          	nop
60000214:	00000013          	nop
60000218:	00000013          	nop
6000021c:	00000013          	nop
60000220:	00000013          	nop
60000224:	00000013          	nop
60000228:	00000013          	nop
6000022c:	00000013          	nop
60000230:	00000013          	nop
60000234:	00000013          	nop
60000238:	00000013          	nop
6000023c:	00000013          	nop
60000240:	00000013          	nop
60000244:	00000013          	nop
60000248:	00000013          	nop
6000024c:	00000013          	nop
60000250:	00000013          	nop
60000254:	00000013          	nop
60000258:	00000013          	nop
6000025c:	00000013          	nop
60000260:	00000013          	nop
60000264:	00000013          	nop
60000268:	00000013          	nop
6000026c:	00000013          	nop
60000270:	00000013          	nop
60000274:	00000013          	nop
60000278:	00000013          	nop
6000027c:	00000013          	nop
60000280:	00000013          	nop
60000284:	00000013          	nop
60000288:	00000013          	nop
6000028c:	00000013          	nop
60000290:	00000013          	nop
60000294:	00000013          	nop
60000298:	00000013          	nop
6000029c:	00000013          	nop
600002a0:	00000013          	nop
600002a4:	00000013          	nop
600002a8:	00000013          	nop
600002ac:	00000013          	nop
600002b0:	00000013          	nop
600002b4:	00000013          	nop
600002b8:	00000013          	nop
600002bc:	00000013          	nop
600002c0:	00000013          	nop
600002c4:	00000013          	nop
600002c8:	00000013          	nop
600002cc:	00000013          	nop
600002d0:	00000013          	nop
600002d4:	00000013          	nop
600002d8:	00000013          	nop
600002dc:	00000013          	nop
600002e0:	00000013          	nop
600002e4:	00000013          	nop
600002e8:	00000013          	nop
600002ec:	00000013          	nop
600002f0:	00000013          	nop
600002f4:	00000013          	nop
600002f8:	00000013          	nop
600002fc:	00000013          	nop
60000300:	00000013          	nop
60000304:	00000013          	nop
60000308:	00000013          	nop
6000030c:	00000013          	nop
60000310:	00000013          	nop
60000314:	00000013          	nop
60000318:	00000013          	nop
6000031c:	00000013          	nop
60000320:	00000013          	nop
60000324:	00000013          	nop
60000328:	00000013          	nop
6000032c:	00000013          	nop
60000330:	00000013          	nop
60000334:	00000013          	nop
60000338:	00000013          	nop
6000033c:	00000013          	nop
60000340:	00000013          	nop
60000344:	00000013          	nop
60000348:	00000013          	nop
6000034c:	00000013          	nop
60000350:	00000013          	nop
60000354:	00000013          	nop
60000358:	00000013          	nop
6000035c:	00000013          	nop
60000360:	00000013          	nop
60000364:	00000013          	nop
60000368:	00000013          	nop
6000036c:	00000013          	nop
60000370:	00000013          	nop
60000374:	00000013          	nop
60000378:	00000013          	nop
6000037c:	00000013          	nop
60000380:	00000013          	nop
60000384:	00000013          	nop
60000388:	00000013          	nop
6000038c:	00000013          	nop
60000390:	00000013          	nop
60000394:	00000013          	nop
60000398:	00000013          	nop
6000039c:	00000013          	nop
600003a0:	00000013          	nop
600003a4:	00000013          	nop
600003a8:	00000013          	nop
600003ac:	00000013          	nop
600003b0:	00000013          	nop
600003b4:	00000013          	nop
600003b8:	00000013          	nop
600003bc:	00000013          	nop
600003c0:	00000013          	nop
600003c4:	00000013          	nop
600003c8:	00000013          	nop
600003cc:	00000013          	nop
600003d0:	00000013          	nop
600003d4:	00000013          	nop
600003d8:	00000013          	nop
600003dc:	00000013          	nop
600003e0:	00000013          	nop
600003e4:	00000013          	nop
600003e8:	00000013          	nop
600003ec:	00000013          	nop
600003f0:	00000013          	nop
600003f4:	00000013          	nop
600003f8:	00000013          	nop
600003fc:	00000013          	nop
60000400:	00000013          	nop
60000404:	00000013          	nop
60000408:	00000013          	nop
6000040c:	00000013          	nop
60000410:	00000013          	nop
60000414:	00000013          	nop
60000418:	00000013          	nop
6000041c:	00000013          	nop
60000420:	00000013          	nop
60000424:	00000013          	nop
60000428:	00000013          	nop
6000042c:	00000013          	nop
60000430:	00000013          	nop
60000434:	00000013          	nop
60000438:	00000013          	nop
6000043c:	00000013          	nop
60000440:	00000013          	nop
60000444:	00000013          	nop
60000448:	00000013          	nop
6000044c:	00000013          	nop
60000450:	00000013          	nop
60000454:	00000013          	nop
60000458:	00000013          	nop
6000045c:	00000013          	nop
60000460:	00000013          	nop
60000464:	00000013          	nop
60000468:	00000013          	nop
6000046c:	00000013          	nop
60000470:	00000013          	nop
60000474:	00000013          	nop
60000478:	00000013          	nop
6000047c:	00000013          	nop
60000480:	00000013          	nop
60000484:	00000013          	nop
60000488:	00000013          	nop
6000048c:	00000013          	nop
60000490:	00000013          	nop
60000494:	00000013          	nop
60000498:	00000013          	nop
6000049c:	00000013          	nop
600004a0:	00000013          	nop
600004a4:	00000013          	nop
600004a8:	00000013          	nop
600004ac:	00000013          	nop
600004b0:	00000013          	nop
600004b4:	00000013          	nop
600004b8:	00000013          	nop
600004bc:	00000013          	nop
600004c0:	00000013          	nop
600004c4:	00000013          	nop
600004c8:	00000013          	nop
600004cc:	00000013          	nop
600004d0:	00000013          	nop
600004d4:	00000013          	nop
600004d8:	00000013          	nop
600004dc:	00000013          	nop
600004e0:	00000013          	nop
600004e4:	00000013          	nop
600004e8:	00000013          	nop
600004ec:	00000013          	nop
600004f0:	00000013          	nop
600004f4:	00000013          	nop
600004f8:	00000013          	nop
600004fc:	00000013          	nop
60000500:	00000013          	nop
60000504:	00000013          	nop
60000508:	00000013          	nop
6000050c:	00000013          	nop
60000510:	00000013          	nop
60000514:	00000013          	nop
60000518:	00000013          	nop
6000051c:	00000013          	nop
60000520:	00000013          	nop
60000524:	00000013          	nop
60000528:	00000013          	nop
6000052c:	00000013          	nop
60000530:	00000013          	nop
60000534:	00000013          	nop
60000538:	00000013          	nop
6000053c:	00000013          	nop
60000540:	00000013          	nop
60000544:	00000013          	nop
60000548:	00000013          	nop
6000054c:	00000013          	nop
60000550:	00000013          	nop
60000554:	00000013          	nop
60000558:	00000013          	nop
6000055c:	00000013          	nop
60000560:	00000013          	nop
60000564:	00000013          	nop
60000568:	00000013          	nop
6000056c:	00000013          	nop
60000570:	00000013          	nop
60000574:	00000013          	nop
60000578:	00000013          	nop
6000057c:	00000013          	nop
60000580:	00000013          	nop
60000584:	00000013          	nop
60000588:	00000013          	nop
6000058c:	00000013          	nop
60000590:	00000013          	nop
60000594:	00000013          	nop
60000598:	00000013          	nop
6000059c:	00000013          	nop
600005a0:	00000013          	nop
600005a4:	00000013          	nop
600005a8:	00000013          	nop
600005ac:	00000013          	nop
600005b0:	00000013          	nop
600005b4:	00000013          	nop
600005b8:	00000013          	nop
600005bc:	00000013          	nop
600005c0:	00000013          	nop
600005c4:	00000013          	nop
600005c8:	00000013          	nop
600005cc:	00000013          	nop
600005d0:	00000013          	nop
600005d4:	00000013          	nop
600005d8:	00000013          	nop
600005dc:	00000013          	nop
600005e0:	00000013          	nop
600005e4:	00000013          	nop
600005e8:	00000013          	nop

600005ec <main>:
600005ec:	f5010113          	addi	x2,x2,-176
600005f0:	0a812423          	sw	x8,168(x2)
600005f4:	0a112623          	sw	x1,172(x2)
600005f8:	0a912223          	sw	x9,164(x2)
600005fc:	0b212023          	sw	x18,160(x2)
60000600:	09312e23          	sw	x19,156(x2)
60000604:	09412c23          	sw	x20,152(x2)
60000608:	09512a23          	sw	x21,148(x2)
6000060c:	09612823          	sw	x22,144(x2)
60000610:	09712623          	sw	x23,140(x2)
60000614:	09812423          	sw	x24,136(x2)
60000618:	09912223          	sw	x25,132(x2)
6000061c:	09a12023          	sw	x26,128(x2)
60000620:	07b12e23          	sw	x27,124(x2)
60000624:	0b010413          	addi	x8,x2,176
60000628:	00102013          	slti	x0,x0,1
6000062c:	00000797          	auipc	x15,0x0
60000630:	7d478793          	addi	x15,x15,2004 # 60000e00 <_data_vma_start>
60000634:	00c7a383          	lw	x7,12(x15)
60000638:	0107a283          	lw	x5,16(x15)
6000063c:	0147af83          	lw	x31,20(x15)
60000640:	0187af03          	lw	x30,24(x15)
60000644:	01c7ae83          	lw	x29,28(x15)
60000648:	0207ae03          	lw	x28,32(x15)
6000064c:	0247a303          	lw	x6,36(x15)
60000650:	0287a883          	lw	x17,40(x15)
60000654:	02c7a803          	lw	x16,44(x15)
60000658:	0307a603          	lw	x12,48(x15)
6000065c:	0347a683          	lw	x13,52(x15)
60000660:	0387a703          	lw	x14,56(x15)
60000664:	0007a983          	lw	x19,0(x15)
60000668:	0047a903          	lw	x18,4(x15)
6000066c:	0087a483          	lw	x9,8(x15)
60000670:	03c7a783          	lw	x15,60(x15)
60000674:	00800593          	li	x11,8
60000678:	02800513          	li	x10,40
6000067c:	f9342c23          	sw	x19,-104(x8)
60000680:	fa942023          	sw	x9,-96(x8)
60000684:	fa742223          	sw	x7,-92(x8)
60000688:	fa542423          	sw	x5,-88(x8)
6000068c:	fbf42623          	sw	x31,-84(x8)
60000690:	fbe42823          	sw	x30,-80(x8)
60000694:	fbd42a23          	sw	x29,-76(x8)
60000698:	fbc42c23          	sw	x28,-72(x8)
6000069c:	fa642e23          	sw	x6,-68(x8)
600006a0:	f7142423          	sw	x17,-152(x8)
600006a4:	f7042623          	sw	x16,-148(x8)
600006a8:	f6c42823          	sw	x12,-144(x8)
600006ac:	f6d42a23          	sw	x13,-140(x8)
600006b0:	f6e42c23          	sw	x14,-136(x8)
600006b4:	f6f42e23          	sw	x15,-132(x8)
600006b8:	f9242e23          	sw	x18,-100(x8)
600006bc:	00000097          	auipc	x1,0x0
600006c0:	a78080e7          	jalr	-1416(x1) # 60000134 <__divsi3>
600006c4:	00050493          	mv	x9,x10
600006c8:	00800593          	li	x11,8
600006cc:	01800513          	li	x10,24
600006d0:	00000097          	auipc	x1,0x0
600006d4:	a64080e7          	jalr	-1436(x1) # 60000134 <__divsi3>
600006d8:	00050993          	mv	x19,x10
600006dc:	00302013          	slti	x0,x0,3
600006e0:	00349793          	slli	x15,x9,0x3
600006e4:	f4f42c23          	sw	x15,-168(x8)
600006e8:	00351793          	slli	x15,x10,0x3
600006ec:	00000b17          	auipc	x22,0x0
600006f0:	754b0b13          	addi	x22,x22,1876 # 60000e40 <iter_count>
600006f4:	f4f42a23          	sw	x15,-172(x8)
600006f8:	00100a93          	li	x21,1
600006fc:	00800593          	li	x11,8
60000700:	02800513          	li	x10,40
60000704:	f4242e23          	sw	x2,-164(x8)
60000708:	00000097          	auipc	x1,0x0
6000070c:	a2c080e7          	jalr	-1492(x1) # 60000134 <__divsi3>
60000710:	00351793          	slli	x15,x10,0x3
60000714:	00f78793          	addi	x15,x15,15
60000718:	ff07f793          	andi	x15,x15,-16
6000071c:	40f10133          	sub	x2,x2,x15
60000720:	00800593          	li	x11,8
60000724:	01800513          	li	x10,24
60000728:	00000097          	auipc	x1,0x0
6000072c:	a0c080e7          	jalr	-1524(x1) # 60000134 <__divsi3>
60000730:	00351793          	slli	x15,x10,0x3
60000734:	00f78793          	addi	x15,x15,15
60000738:	ff07f793          	andi	x15,x15,-16
6000073c:	00010913          	mv	x18,x2
60000740:	40f10133          	sub	x2,x2,x15
60000744:	00010a13          	mv	x20,x2
60000748:	5a048663          	beqz	x9,60000cf4 <main+0x708>
6000074c:	f9842783          	lw	x15,-104(x8)
60000750:	00f92023          	sw	x15,0(x18)
60000754:	f9c42783          	lw	x15,-100(x8)
60000758:	00f92223          	sw	x15,4(x18)
6000075c:	59548863          	beq	x9,x21,60000cec <main+0x700>
60000760:	fa042783          	lw	x15,-96(x8)
60000764:	00f92423          	sw	x15,8(x18)
60000768:	fa442783          	lw	x15,-92(x8)
6000076c:	00f92623          	sw	x15,12(x18)
60000770:	00200793          	li	x15,2
60000774:	56f48c63          	beq	x9,x15,60000cec <main+0x700>
60000778:	fa842783          	lw	x15,-88(x8)
6000077c:	00f92823          	sw	x15,16(x18)
60000780:	fac42783          	lw	x15,-84(x8)
60000784:	00f92a23          	sw	x15,20(x18)
60000788:	00300793          	li	x15,3
6000078c:	56f48063          	beq	x9,x15,60000cec <main+0x700>
60000790:	fb042783          	lw	x15,-80(x8)
60000794:	00f92c23          	sw	x15,24(x18)
60000798:	fb442783          	lw	x15,-76(x8)
6000079c:	00f92e23          	sw	x15,28(x18)
600007a0:	00400793          	li	x15,4
600007a4:	54f48463          	beq	x9,x15,60000cec <main+0x700>
600007a8:	fb842783          	lw	x15,-72(x8)
600007ac:	02f92023          	sw	x15,32(x18)
600007b0:	fbc42783          	lw	x15,-68(x8)
600007b4:	02f92223          	sw	x15,36(x18)
600007b8:	04098263          	beqz	x19,600007fc <main+0x210>
600007bc:	f6842783          	lw	x15,-152(x8)
600007c0:	00fa2023          	sw	x15,0(x20)
600007c4:	f6c42783          	lw	x15,-148(x8)
600007c8:	00fa2223          	sw	x15,4(x20)
600007cc:	03598863          	beq	x19,x21,600007fc <main+0x210>
600007d0:	f7042783          	lw	x15,-144(x8)
600007d4:	00fa2423          	sw	x15,8(x20)
600007d8:	f7442783          	lw	x15,-140(x8)
600007dc:	00fa2623          	sw	x15,12(x20)
600007e0:	00200793          	li	x15,2
600007e4:	00f98a63          	beq	x19,x15,600007f8 <main+0x20c>
600007e8:	f7842783          	lw	x15,-136(x8)
600007ec:	00fa2823          	sw	x15,16(x20)
600007f0:	f7c42783          	lw	x15,-132(x8)
600007f4:	00fa2a23          	sw	x15,20(x20)
600007f8:	50048a63          	beqz	x9,60000d0c <main+0x720>
600007fc:	f5842703          	lw	x14,-168(x8)
60000800:	00090793          	mv	x15,x18
60000804:	00000b93          	li	x23,0
60000808:	01270633          	add	x12,x14,x18
6000080c:	00000513          	li	x10,0
60000810:	0007a683          	lw	x13,0(x15)
60000814:	0047a703          	lw	x14,4(x15)
60000818:	00878793          	addi	x15,x15,8
6000081c:	00d50533          	add	x10,x10,x13
60000820:	00eb8bb3          	add	x23,x23,x14
60000824:	fef616e3          	bne	x12,x15,60000810 <main+0x224>
60000828:	00048593          	mv	x11,x9
6000082c:	00000097          	auipc	x1,0x0
60000830:	908080e7          	jalr	-1784(x1) # 60000134 <__divsi3>
60000834:	00050793          	mv	x15,x10
60000838:	00048593          	mv	x11,x9
6000083c:	000b8513          	mv	x10,x23
60000840:	00078b93          	mv	x23,x15
60000844:	00000097          	auipc	x1,0x0
60000848:	8f0080e7          	jalr	-1808(x1) # 60000134 <__divsi3>
6000084c:	00050d93          	mv	x27,x10
60000850:	52098c63          	beqz	x19,60000d88 <main+0x79c>
60000854:	f5442783          	lw	x15,-172(x8)
60000858:	000a0713          	mv	x14,x20
6000085c:	00000d13          	li	x26,0
60000860:	01478833          	add	x16,x15,x20
60000864:	00000513          	li	x10,0
60000868:	00072583          	lw	x11,0(x14)
6000086c:	00472603          	lw	x12,4(x14)
60000870:	00870713          	addi	x14,x14,8
60000874:	00b50533          	add	x10,x10,x11
60000878:	00cd0d33          	add	x26,x26,x12
6000087c:	fee816e3          	bne	x16,x14,60000868 <main+0x27c>
60000880:	00098593          	mv	x11,x19
60000884:	00000097          	auipc	x1,0x0
60000888:	8b0080e7          	jalr	-1872(x1) # 60000134 <__divsi3>
6000088c:	00050c93          	mv	x25,x10
60000890:	00098593          	mv	x11,x19
60000894:	000d0513          	mv	x10,x26
60000898:	00000097          	auipc	x1,0x0
6000089c:	89c080e7          	jalr	-1892(x1) # 60000134 <__divsi3>
600008a0:	419b8d33          	sub	x26,x23,x25
600008a4:	40ad8db3          	sub	x27,x27,x10
600008a8:	019b9463          	bne	x23,x25,600008b0 <main+0x2c4>
600008ac:	001dbd13          	seqz	x26,x27
600008b0:	000d0713          	mv	x14,x26
600008b4:	000d8793          	mv	x15,x27
600008b8:	00098693          	mv	x13,x19
600008bc:	000a0613          	mv	x12,x20
600008c0:	00048593          	mv	x11,x9
600008c4:	00090513          	mv	x10,x18
600008c8:	f7a42023          	sw	x26,-160(x8)
600008cc:	f7b42223          	sw	x27,-156(x8)
600008d0:	fffff097          	auipc	x1,0xfffff
600008d4:	770080e7          	jalr	1904(x1) # 60000040 <support>
600008d8:	02ad0733          	mul	x14,x26,x10
600008dc:	f8a42023          	sw	x10,-128(x8)
600008e0:	f8b42223          	sw	x11,-124(x8)
600008e4:	02bd87b3          	mul	x15,x27,x11
600008e8:	00f70733          	add	x14,x14,x15
600008ec:	18e05063          	blez	x14,60000a6c <main+0x480>
600008f0:	000b2803          	lw	x16,0(x22)
600008f4:	40a00db3          	neg	x27,x10
600008f8:	40b00bb3          	neg	x23,x11
600008fc:	00180d13          	addi	x26,x16,1
60000900:	00000893          	li	x17,0
60000904:	01c0006f          	j	60000920 <main+0x334>
60000908:	f9042783          	lw	x15,-112(x8)
6000090c:	f8f42423          	sw	x15,-120(x8)
60000910:	f9442783          	lw	x15,-108(x8)
60000914:	f8f42623          	sw	x15,-116(x8)
60000918:	001d0d13          	addi	x26,x26,1
6000091c:	00100893          	li	x17,1
60000920:	00188c93          	addi	x25,x17,1
60000924:	003c9313          	slli	x6,x25,0x3
60000928:	fc030813          	addi	x16,x6,-64
6000092c:	000d8713          	mv	x14,x27
60000930:	000b8793          	mv	x15,x23
60000934:	00098693          	mv	x13,x19
60000938:	000a0613          	mv	x12,x20
6000093c:	00048593          	mv	x11,x9
60000940:	00090513          	mv	x10,x18
60000944:	00880c33          	add	x24,x16,x8
60000948:	f7742223          	sw	x23,-156(x8)
6000094c:	01ab2023          	sw	x26,0(x22)
60000950:	f7b42023          	sw	x27,-160(x8)
60000954:	fffff097          	auipc	x1,0xfffff
60000958:	6ec080e7          	jalr	1772(x1) # 60000040 <support>
6000095c:	02ad8733          	mul	x14,x27,x10
60000960:	fcac2023          	sw	x10,-64(x24)
60000964:	fcbc2223          	sw	x11,-60(x24)
60000968:	40a00333          	neg	x6,x10
6000096c:	40b00e33          	neg	x28,x11
60000970:	02bb8bb3          	mul	x23,x23,x11
60000974:	01770733          	add	x14,x14,x23
60000978:	0ee05a63          	blez	x14,60000a6c <main+0x480>
6000097c:	f8042683          	lw	x13,-128(x8)
60000980:	f8442783          	lw	x15,-124(x8)
60000984:	40a68633          	sub	x12,x13,x10
60000988:	40b787b3          	sub	x15,x15,x11
6000098c:	095c8a63          	beq	x25,x21,60000a20 <main+0x434>
60000990:	f8842e83          	lw	x29,-120(x8)
60000994:	f8c42883          	lw	x17,-116(x8)
60000998:	02f78733          	mul	x14,x15,x15
6000099c:	40ae8533          	sub	x10,x29,x10
600009a0:	40b885b3          	sub	x11,x17,x11
600009a4:	02f58fb3          	mul	x31,x11,x15
600009a8:	02c606b3          	mul	x13,x12,x12
600009ac:	02c50f33          	mul	x30,x10,x12
600009b0:	00e686b3          	add	x13,x13,x14
600009b4:	01ff0f33          	add	x30,x30,x31
600009b8:	02cf0733          	mul	x14,x30,x12
600009bc:	02d50fb3          	mul	x31,x10,x13
600009c0:	02ff0bb3          	mul	x23,x30,x15
600009c4:	41f70db3          	sub	x27,x14,x31
600009c8:	02d586b3          	mul	x13,x11,x13
600009cc:	40db8bb3          	sub	x23,x23,x13
600009d0:	037e0fb3          	mul	x31,x28,x23
600009d4:	03b306b3          	mul	x13,x6,x27
600009d8:	01f686b3          	add	x13,x13,x31
600009dc:	f206d6e3          	bgez	x13,60000908 <main+0x31c>
600009e0:	02a50bb3          	mul	x23,x10,x10
600009e4:	02b58733          	mul	x14,x11,x11
600009e8:	00eb8bb3          	add	x23,x23,x14
600009ec:	02cb8633          	mul	x12,x23,x12
600009f0:	03e50533          	mul	x10,x10,x30
600009f4:	03e585b3          	mul	x11,x11,x30
600009f8:	40c50db3          	sub	x27,x10,x12
600009fc:	02fb8bb3          	mul	x23,x23,x15
60000a00:	41758bb3          	sub	x23,x11,x23
60000a04:	03b30333          	mul	x6,x6,x27
60000a08:	037e0e33          	mul	x28,x28,x23
60000a0c:	01c30333          	add	x6,x6,x28
60000a10:	32034463          	bltz	x6,60000d38 <main+0x74c>
60000a14:	f9d42023          	sw	x29,-128(x8)
60000a18:	f9142223          	sw	x17,-124(x8)
60000a1c:	eedff06f          	j	60000908 <main+0x31c>
60000a20:	02c60bb3          	mul	x23,x12,x12
60000a24:	02f78733          	mul	x14,x15,x15
60000a28:	02c305b3          	mul	x11,x6,x12
60000a2c:	00eb8bb3          	add	x23,x23,x14
60000a30:	02fe0733          	mul	x14,x28,x15
60000a34:	00e585b3          	add	x11,x11,x14
60000a38:	02c58633          	mul	x12,x11,x12
60000a3c:	03730333          	mul	x6,x6,x23
60000a40:	02f585b3          	mul	x11,x11,x15
60000a44:	40c30db3          	sub	x27,x6,x12
60000a48:	037e0bb3          	mul	x23,x28,x23
60000a4c:	40bb8bb3          	sub	x23,x23,x11
60000a50:	03bd8633          	mul	x12,x27,x27
60000a54:	037b85b3          	mul	x11,x23,x23
60000a58:	00b60633          	add	x12,x12,x11
60000a5c:	ea061ee3          	bnez	x12,60000918 <main+0x32c>
60000a60:	40d50bb3          	sub	x23,x10,x13
60000a64:	00078d93          	mv	x27,x15
60000a68:	eb1ff06f          	j	60000918 <main+0x32c>
60000a6c:	18048463          	beqz	x9,60000bf4 <main+0x608>
60000a70:	f9842683          	lw	x13,-104(x8)
60000a74:	f9c42603          	lw	x12,-100(x8)
60000a78:	00169713          	slli	x14,x13,0x1
60000a7c:	00161793          	slli	x15,x12,0x1
60000a80:	00d70733          	add	x14,x14,x13
60000a84:	00c787b3          	add	x15,x15,x12
60000a88:	00271713          	slli	x14,x14,0x2
60000a8c:	00279793          	slli	x15,x15,0x2
60000a90:	00d70733          	add	x14,x14,x13
60000a94:	00361593          	slli	x11,x12,0x3
60000a98:	00c787b3          	add	x15,x15,x12
60000a9c:	00369693          	slli	x13,x13,0x3
60000aa0:	40b70733          	sub	x14,x14,x11
60000aa4:	00d787b3          	add	x15,x15,x13
60000aa8:	40475713          	srai	x14,x14,0x4
60000aac:	4047d793          	srai	x15,x15,0x4
60000ab0:	f8e42c23          	sw	x14,-104(x8)
60000ab4:	f8f42e23          	sw	x15,-100(x8)
60000ab8:	13548e63          	beq	x9,x21,60000bf4 <main+0x608>
60000abc:	fa042683          	lw	x13,-96(x8)
60000ac0:	fa442603          	lw	x12,-92(x8)
60000ac4:	00169713          	slli	x14,x13,0x1
60000ac8:	00161793          	slli	x15,x12,0x1
60000acc:	00d70733          	add	x14,x14,x13
60000ad0:	00c787b3          	add	x15,x15,x12
60000ad4:	00271713          	slli	x14,x14,0x2
60000ad8:	00279793          	slli	x15,x15,0x2
60000adc:	00d70733          	add	x14,x14,x13
60000ae0:	00361593          	slli	x11,x12,0x3
60000ae4:	00c787b3          	add	x15,x15,x12
60000ae8:	00369693          	slli	x13,x13,0x3
60000aec:	40b70733          	sub	x14,x14,x11
60000af0:	00d787b3          	add	x15,x15,x13
60000af4:	4047d793          	srai	x15,x15,0x4
60000af8:	40475713          	srai	x14,x14,0x4
60000afc:	faf42223          	sw	x15,-92(x8)
60000b00:	fae42023          	sw	x14,-96(x8)
60000b04:	00200793          	li	x15,2
60000b08:	0ef48663          	beq	x9,x15,60000bf4 <main+0x608>
60000b0c:	fa842703          	lw	x14,-88(x8)
60000b10:	fac42603          	lw	x12,-84(x8)
60000b14:	00171793          	slli	x15,x14,0x1
60000b18:	00161693          	slli	x13,x12,0x1
60000b1c:	00e787b3          	add	x15,x15,x14
60000b20:	00c686b3          	add	x13,x13,x12
60000b24:	00279793          	slli	x15,x15,0x2
60000b28:	00269693          	slli	x13,x13,0x2
60000b2c:	00e787b3          	add	x15,x15,x14
60000b30:	00361593          	slli	x11,x12,0x3
60000b34:	00371713          	slli	x14,x14,0x3
60000b38:	00c686b3          	add	x13,x13,x12
60000b3c:	40b787b3          	sub	x15,x15,x11
60000b40:	00d70733          	add	x14,x14,x13
60000b44:	4047d793          	srai	x15,x15,0x4
60000b48:	40475713          	srai	x14,x14,0x4
60000b4c:	faf42423          	sw	x15,-88(x8)
60000b50:	fae42623          	sw	x14,-84(x8)
60000b54:	00300793          	li	x15,3
60000b58:	08f48e63          	beq	x9,x15,60000bf4 <main+0x608>
60000b5c:	fb042703          	lw	x14,-80(x8)
60000b60:	fb442603          	lw	x12,-76(x8)
60000b64:	00171793          	slli	x15,x14,0x1
60000b68:	00161693          	slli	x13,x12,0x1
60000b6c:	00e787b3          	add	x15,x15,x14
60000b70:	00c686b3          	add	x13,x13,x12
60000b74:	00279793          	slli	x15,x15,0x2
60000b78:	00269693          	slli	x13,x13,0x2
60000b7c:	00e787b3          	add	x15,x15,x14
60000b80:	00361593          	slli	x11,x12,0x3
60000b84:	00371713          	slli	x14,x14,0x3
60000b88:	00c686b3          	add	x13,x13,x12
60000b8c:	40b787b3          	sub	x15,x15,x11
60000b90:	00d70733          	add	x14,x14,x13
60000b94:	4047d793          	srai	x15,x15,0x4
60000b98:	40475713          	srai	x14,x14,0x4
60000b9c:	faf42823          	sw	x15,-80(x8)
60000ba0:	fae42a23          	sw	x14,-76(x8)
60000ba4:	00400793          	li	x15,4
60000ba8:	04f48663          	beq	x9,x15,60000bf4 <main+0x608>
60000bac:	fb842703          	lw	x14,-72(x8)
60000bb0:	fbc42603          	lw	x12,-68(x8)
60000bb4:	00171793          	slli	x15,x14,0x1
60000bb8:	00161693          	slli	x13,x12,0x1
60000bbc:	00e787b3          	add	x15,x15,x14
60000bc0:	00c686b3          	add	x13,x13,x12
60000bc4:	00279793          	slli	x15,x15,0x2
60000bc8:	00269693          	slli	x13,x13,0x2
60000bcc:	00e787b3          	add	x15,x15,x14
60000bd0:	00361593          	slli	x11,x12,0x3
60000bd4:	00371713          	slli	x14,x14,0x3
60000bd8:	00c686b3          	add	x13,x13,x12
60000bdc:	40b787b3          	sub	x15,x15,x11
60000be0:	00d70733          	add	x14,x14,x13
60000be4:	4047d793          	srai	x15,x15,0x4
60000be8:	40475713          	srai	x14,x14,0x4
60000bec:	faf42c23          	sw	x15,-72(x8)
60000bf0:	fae42e23          	sw	x14,-68(x8)
60000bf4:	0e098463          	beqz	x19,60000cdc <main+0x6f0>
60000bf8:	f6842683          	lw	x13,-152(x8)
60000bfc:	f6c42603          	lw	x12,-148(x8)
60000c00:	00169713          	slli	x14,x13,0x1
60000c04:	00161793          	slli	x15,x12,0x1
60000c08:	00d70733          	add	x14,x14,x13
60000c0c:	00c787b3          	add	x15,x15,x12
60000c10:	00271713          	slli	x14,x14,0x2
60000c14:	00279793          	slli	x15,x15,0x2
60000c18:	00d70733          	add	x14,x14,x13
60000c1c:	00361593          	slli	x11,x12,0x3
60000c20:	00c787b3          	add	x15,x15,x12
60000c24:	00369693          	slli	x13,x13,0x3
60000c28:	40b70733          	sub	x14,x14,x11
60000c2c:	00d787b3          	add	x15,x15,x13
60000c30:	40475713          	srai	x14,x14,0x4
60000c34:	4047d793          	srai	x15,x15,0x4
60000c38:	f6e42423          	sw	x14,-152(x8)
60000c3c:	f6f42623          	sw	x15,-148(x8)
60000c40:	09598e63          	beq	x19,x21,60000cdc <main+0x6f0>
60000c44:	f7042683          	lw	x13,-144(x8)
60000c48:	f7442603          	lw	x12,-140(x8)
60000c4c:	00169713          	slli	x14,x13,0x1
60000c50:	00161793          	slli	x15,x12,0x1
60000c54:	00d70733          	add	x14,x14,x13
60000c58:	00c787b3          	add	x15,x15,x12
60000c5c:	00271713          	slli	x14,x14,0x2
60000c60:	00279793          	slli	x15,x15,0x2
60000c64:	00d70733          	add	x14,x14,x13
60000c68:	00361593          	slli	x11,x12,0x3
60000c6c:	00c787b3          	add	x15,x15,x12
60000c70:	00369693          	slli	x13,x13,0x3
60000c74:	40b70733          	sub	x14,x14,x11
60000c78:	00d787b3          	add	x15,x15,x13
60000c7c:	4047d793          	srai	x15,x15,0x4
60000c80:	40475713          	srai	x14,x14,0x4
60000c84:	f6f42a23          	sw	x15,-140(x8)
60000c88:	f6e42823          	sw	x14,-144(x8)
60000c8c:	00200793          	li	x15,2
60000c90:	04f98663          	beq	x19,x15,60000cdc <main+0x6f0>
60000c94:	f7842703          	lw	x14,-136(x8)
60000c98:	f7c42603          	lw	x12,-132(x8)
60000c9c:	00171793          	slli	x15,x14,0x1
60000ca0:	00161693          	slli	x13,x12,0x1
60000ca4:	00e787b3          	add	x15,x15,x14
60000ca8:	00c686b3          	add	x13,x13,x12
60000cac:	00279793          	slli	x15,x15,0x2
60000cb0:	00269693          	slli	x13,x13,0x2
60000cb4:	00e787b3          	add	x15,x15,x14
60000cb8:	00361593          	slli	x11,x12,0x3
60000cbc:	00371713          	slli	x14,x14,0x3
60000cc0:	00c686b3          	add	x13,x13,x12
60000cc4:	40b787b3          	sub	x15,x15,x11
60000cc8:	00d70733          	add	x14,x14,x13
60000ccc:	4047d793          	srai	x15,x15,0x4
60000cd0:	40475713          	srai	x14,x14,0x4
60000cd4:	f6f42c23          	sw	x15,-136(x8)
60000cd8:	f6e42e23          	sw	x14,-132(x8)
60000cdc:	00000797          	auipc	x15,0x0
60000ce0:	1607a223          	sw	x0,356(x15) # 60000e40 <iter_count>
60000ce4:	f5c42103          	lw	x2,-164(x8)
60000ce8:	a15ff06f          	j	600006fc <main+0x110>
60000cec:	ac0998e3          	bnez	x19,600007bc <main+0x1d0>
60000cf0:	b0dff06f          	j	600007fc <main+0x210>
60000cf4:	0a098063          	beqz	x19,60000d94 <main+0x7a8>
60000cf8:	f6842783          	lw	x15,-152(x8)
60000cfc:	00fa2023          	sw	x15,0(x20)
60000d00:	f6c42783          	lw	x15,-148(x8)
60000d04:	00fa2223          	sw	x15,4(x20)
60000d08:	ad5994e3          	bne	x19,x21,600007d0 <main+0x1e4>
60000d0c:	00000593          	li	x11,0
60000d10:	00000513          	li	x10,0
60000d14:	fffff097          	auipc	x1,0xfffff
60000d18:	420080e7          	jalr	1056(x1) # 60000134 <__divsi3>
60000d1c:	00050b93          	mv	x23,x10
60000d20:	00000593          	li	x11,0
60000d24:	00000513          	li	x10,0
60000d28:	fffff097          	auipc	x1,0xfffff
60000d2c:	40c080e7          	jalr	1036(x1) # 60000134 <__divsi3>
60000d30:	00050d93          	mv	x27,x10
60000d34:	b21ff06f          	j	60000854 <main+0x268>
60000d38:	f5c42103          	lw	x2,-164(x8)
60000d3c:	00402013          	slti	x0,x0,4
60000d40:	00202013          	slti	x0,x0,2
60000d44:	f5040113          	addi	x2,x8,-176
60000d48:	0ac12083          	lw	x1,172(x2)
60000d4c:	0a812403          	lw	x8,168(x2)
60000d50:	0a412483          	lw	x9,164(x2)
60000d54:	0a012903          	lw	x18,160(x2)
60000d58:	09c12983          	lw	x19,156(x2)
60000d5c:	09812a03          	lw	x20,152(x2)
60000d60:	09412a83          	lw	x21,148(x2)
60000d64:	09012b03          	lw	x22,144(x2)
60000d68:	08c12b83          	lw	x23,140(x2)
60000d6c:	08812c03          	lw	x24,136(x2)
60000d70:	08412c83          	lw	x25,132(x2)
60000d74:	08012d03          	lw	x26,128(x2)
60000d78:	07c12d83          	lw	x27,124(x2)
60000d7c:	00000513          	li	x10,0
60000d80:	0b010113          	addi	x2,x2,176
60000d84:	00008067          	ret
60000d88:	00000d13          	li	x26,0
60000d8c:	00000513          	li	x10,0
60000d90:	af1ff06f          	j	60000880 <main+0x294>
60000d94:	00000593          	li	x11,0
60000d98:	00000513          	li	x10,0
60000d9c:	fffff097          	auipc	x1,0xfffff
60000da0:	398080e7          	jalr	920(x1) # 60000134 <__divsi3>
60000da4:	00050b93          	mv	x23,x10
60000da8:	00000593          	li	x11,0
60000dac:	00000513          	li	x10,0
60000db0:	fffff097          	auipc	x1,0xfffff
60000db4:	384080e7          	jalr	900(x1) # 60000134 <__divsi3>
60000db8:	00050d93          	mv	x27,x10
60000dbc:	00000d13          	li	x26,0
60000dc0:	00000513          	li	x10,0
60000dc4:	abdff06f          	j	60000880 <main+0x294>

Disassembly of section .data:

60000dc8 <_data_vma_start-0x38>:
	...

60000e00 <_data_vma_start>:
60000e00:	9c40                	.insn	2, 0x9c40
60000e02:	0000                	.insn	2, 0x
60000e04:	0320                	.insn	2, 0x0320
60000e06:	0000                	.insn	2, 0x
60000e08:	d6d8                	.insn	2, 0xd6d8
60000e0a:	0000                	.insn	2, 0x
60000e0c:	ffec                	.insn	2, 0xffec
60000e0e:	ffff                	.insn	2, 0xffff
60000e10:	7d00                	.insn	2, 0x7d00
60000e12:	0000                	.insn	2, 0x
60000e14:	fed4                	.insn	2, 0xfed4
60000e16:	ffff                	.insn	2, 0xffff
60000e18:	a028                	.insn	2, 0xa028
60000e1a:	0000                	.insn	2, 0x
60000e1c:	00c8                	.insn	2, 0x00c8
60000e1e:	0000                	.insn	2, 0x
60000e20:	9088                	.insn	2, 0x9088
60000e22:	0000                	.insn	2, 0x
60000e24:	ff9c                	.insn	2, 0xff9c
60000e26:	ffff                	.insn	2, 0xffff
60000e28:	15a0                	.insn	2, 0x15a0
60000e2a:	ffff                	.insn	2, 0xffff
60000e2c:	0320                	.insn	2, 0x0320
60000e2e:	0000                	.insn	2, 0x
60000e30:	2928                	.insn	2, 0x2928
60000e32:	ffff                	.insn	2, 0xffff
60000e34:	ff38                	.insn	2, 0xff38
60000e36:	ffff                	.insn	2, 0xffff
60000e38:	8300                	.insn	2, 0x8300
60000e3a:	ffff                	.insn	2, 0xffff
60000e3c:	012c                	.insn	2, 0x012c
	...

Disassembly of section .tohost:

60000e44 <tohost-0x4>:
60000e44:	0000                	.insn	2, 0x
	...

60000e48 <tohost>:
	...

Disassembly of section .fromhost:

60000e50 <fromhost>:
	...
