
../testcode/physics_d.elf:     file format elf32-littleriscv


Disassembly of section .text.swinit1:

60000000 <_start>:
60000000:	00001317          	auipc	x6,0x1
60000004:	d0030313          	addi	x6,x6,-768 # 60000d00 <iter_count>
60000008:	00001397          	auipc	x7,0x1
6000000c:	cfc38393          	addi	x7,x7,-772 # 60000d04 <_bss_vma_end>
60000010:	00730863          	beq	x6,x7,60000020 <_setup>

60000014 <_initbss_loop>:
60000014:	00032023          	sw	x0,0(x6)
60000018:	00430313          	addi	x6,x6,4
6000001c:	fe736ce3          	bltu	x6,x7,60000014 <_initbss_loop>

60000020 <_setup>:
60000020:	20000117          	auipc	x2,0x20000
60000024:	fe010113          	addi	x2,x2,-32 # 80000000 <_stack_top>
60000028:	00010433          	add	x8,x2,x0
6000002c:	00000097          	auipc	x1,0x0
60000030:	5ec080e7          	jalr	1516(x1) # 60000618 <main>
60000034:	f0002013          	slti	x0,x0,-256
60000038:	00000097          	auipc	x1,0x0
6000003c:	1dc080e7          	jalr	476(x1) # 60000214 <_fini>

Disassembly of section .text:

60000040 <support.constprop.0>:
60000040:	00052783          	lw	x15,0(x10)
60000044:	00452303          	lw	x6,4(x10)
60000048:	00852703          	lw	x14,8(x10)
6000004c:	00c52883          	lw	x17,12(x10)
60000050:	02f607b3          	mul	x15,x12,x15
60000054:	fe010113          	addi	x2,x2,-32
60000058:	00000813          	li	x16,0
6000005c:	02668333          	mul	x6,x13,x6
60000060:	02e60733          	mul	x14,x12,x14
60000064:	006787b3          	add	x15,x15,x6
60000068:	031688b3          	mul	x17,x13,x17
6000006c:	01170733          	add	x14,x14,x17
60000070:	00e7d663          	bge	x15,x14,6000007c <support.constprop.0+0x3c>
60000074:	00070793          	mv	x15,x14
60000078:	00100813          	li	x16,1
6000007c:	01052703          	lw	x14,16(x10)
60000080:	01452883          	lw	x17,20(x10)
60000084:	02e60733          	mul	x14,x12,x14
60000088:	031688b3          	mul	x17,x13,x17
6000008c:	01170733          	add	x14,x14,x17
60000090:	00e7d663          	bge	x15,x14,6000009c <support.constprop.0+0x5c>
60000094:	00070793          	mv	x15,x14
60000098:	00200813          	li	x16,2
6000009c:	01852703          	lw	x14,24(x10)
600000a0:	01c52883          	lw	x17,28(x10)
600000a4:	02e60733          	mul	x14,x12,x14
600000a8:	031688b3          	mul	x17,x13,x17
600000ac:	01170733          	add	x14,x14,x17
600000b0:	00e7d663          	bge	x15,x14,600000bc <support.constprop.0+0x7c>
600000b4:	00070793          	mv	x15,x14
600000b8:	00300813          	li	x16,3
600000bc:	02452703          	lw	x14,36(x10)
600000c0:	02052883          	lw	x17,32(x10)
600000c4:	02e68733          	mul	x14,x13,x14
600000c8:	031608b3          	mul	x17,x12,x17
600000cc:	01170733          	add	x14,x14,x17
600000d0:	00e7d463          	bge	x15,x14,600000d8 <support.constprop.0+0x98>
600000d4:	00400813          	li	x16,4
600000d8:	0005a703          	lw	x14,0(x11)
600000dc:	0045a303          	lw	x6,4(x11)
600000e0:	0085a783          	lw	x15,8(x11)
600000e4:	00c5a883          	lw	x17,12(x11)
600000e8:	40c00633          	neg	x12,x12
600000ec:	40d006b3          	neg	x13,x13
600000f0:	02e60733          	mul	x14,x12,x14
600000f4:	00800e13          	li	x28,8
600000f8:	02668333          	mul	x6,x13,x6
600000fc:	02f607b3          	mul	x15,x12,x15
60000100:	00670733          	add	x14,x14,x6
60000104:	031688b3          	mul	x17,x13,x17
60000108:	011787b3          	add	x15,x15,x17
6000010c:	00f74663          	blt	x14,x15,60000118 <support.constprop.0+0xd8>
60000110:	00070793          	mv	x15,x14
60000114:	00000e13          	li	x28,0
60000118:	0105a883          	lw	x17,16(x11)
6000011c:	0145a703          	lw	x14,20(x11)
60000120:	03160633          	mul	x12,x12,x17
60000124:	02e686b3          	mul	x13,x13,x14
60000128:	00d60633          	add	x12,x12,x13
6000012c:	00c7d463          	bge	x15,x12,60000134 <support.constprop.0+0xf4>
60000130:	01000e13          	li	x28,16
60000134:	00381813          	slli	x16,x16,0x3
60000138:	01c587b3          	add	x15,x11,x28
6000013c:	01050533          	add	x10,x10,x16
60000140:	00452583          	lw	x11,4(x10)
60000144:	0047a703          	lw	x14,4(x15)
60000148:	00052503          	lw	x10,0(x10)
6000014c:	0007a783          	lw	x15,0(x15)
60000150:	40e585b3          	sub	x11,x11,x14
60000154:	40f50533          	sub	x10,x10,x15
60000158:	02010113          	addi	x2,x2,32
6000015c:	00008067          	ret

60000160 <__divsi3>:
60000160:	06054063          	bltz	x10,600001c0 <__umodsi3+0x10>
60000164:	0605c663          	bltz	x11,600001d0 <__umodsi3+0x20>

60000168 <__hidden___udivsi3>:
60000168:	00058613          	mv	x12,x11
6000016c:	00050593          	mv	x11,x10
60000170:	fff00513          	li	x10,-1
60000174:	02060c63          	beqz	x12,600001ac <__hidden___udivsi3+0x44>
60000178:	00100693          	li	x13,1
6000017c:	00b67a63          	bgeu	x12,x11,60000190 <__hidden___udivsi3+0x28>
60000180:	00c05863          	blez	x12,60000190 <__hidden___udivsi3+0x28>
60000184:	00161613          	slli	x12,x12,0x1
60000188:	00169693          	slli	x13,x13,0x1
6000018c:	feb66ae3          	bltu	x12,x11,60000180 <__hidden___udivsi3+0x18>
60000190:	00000513          	li	x10,0
60000194:	00c5e663          	bltu	x11,x12,600001a0 <__hidden___udivsi3+0x38>
60000198:	40c585b3          	sub	x11,x11,x12
6000019c:	00d56533          	or	x10,x10,x13
600001a0:	0016d693          	srli	x13,x13,0x1
600001a4:	00165613          	srli	x12,x12,0x1
600001a8:	fe0696e3          	bnez	x13,60000194 <__hidden___udivsi3+0x2c>
600001ac:	00008067          	ret

600001b0 <__umodsi3>:
600001b0:	00008293          	mv	x5,x1
600001b4:	fb5ff0ef          	jal	60000168 <__hidden___udivsi3>
600001b8:	00058513          	mv	x10,x11
600001bc:	00028067          	jr	x5
600001c0:	40a00533          	neg	x10,x10
600001c4:	00b04863          	bgtz	x11,600001d4 <__umodsi3+0x24>
600001c8:	40b005b3          	neg	x11,x11
600001cc:	f9dff06f          	j	60000168 <__hidden___udivsi3>
600001d0:	40b005b3          	neg	x11,x11
600001d4:	00008293          	mv	x5,x1
600001d8:	f91ff0ef          	jal	60000168 <__hidden___udivsi3>
600001dc:	40a00533          	neg	x10,x10
600001e0:	00028067          	jr	x5

600001e4 <__modsi3>:
600001e4:	00008293          	mv	x5,x1
600001e8:	0005ca63          	bltz	x11,600001fc <__modsi3+0x18>
600001ec:	00054c63          	bltz	x10,60000204 <__modsi3+0x20>
600001f0:	f79ff0ef          	jal	60000168 <__hidden___udivsi3>
600001f4:	00058513          	mv	x10,x11
600001f8:	00028067          	jr	x5
600001fc:	40b005b3          	neg	x11,x11
60000200:	fe0558e3          	bgez	x10,600001f0 <__modsi3+0xc>
60000204:	40a00533          	neg	x10,x10
60000208:	f61ff0ef          	jal	60000168 <__hidden___udivsi3>
6000020c:	40b00533          	neg	x10,x11
60000210:	00028067          	jr	x5

60000214 <_fini>:
60000214:	00000063          	beqz	x0,60000214 <_fini>
60000218:	00000013          	nop
6000021c:	00000013          	nop
60000220:	00000013          	nop
60000224:	00000013          	nop
60000228:	00000013          	nop
6000022c:	00000013          	nop
60000230:	00000013          	nop
60000234:	00000013          	nop
60000238:	00000013          	nop
6000023c:	00000013          	nop
60000240:	00000013          	nop
60000244:	00000013          	nop
60000248:	00000013          	nop
6000024c:	00000013          	nop
60000250:	00000013          	nop
60000254:	00000013          	nop
60000258:	00000013          	nop
6000025c:	00000013          	nop
60000260:	00000013          	nop
60000264:	00000013          	nop
60000268:	00000013          	nop
6000026c:	00000013          	nop
60000270:	00000013          	nop
60000274:	00000013          	nop
60000278:	00000013          	nop
6000027c:	00000013          	nop
60000280:	00000013          	nop
60000284:	00000013          	nop
60000288:	00000013          	nop
6000028c:	00000013          	nop
60000290:	00000013          	nop
60000294:	00000013          	nop
60000298:	00000013          	nop
6000029c:	00000013          	nop
600002a0:	00000013          	nop
600002a4:	00000013          	nop
600002a8:	00000013          	nop
600002ac:	00000013          	nop
600002b0:	00000013          	nop
600002b4:	00000013          	nop
600002b8:	00000013          	nop
600002bc:	00000013          	nop
600002c0:	00000013          	nop
600002c4:	00000013          	nop
600002c8:	00000013          	nop
600002cc:	00000013          	nop
600002d0:	00000013          	nop
600002d4:	00000013          	nop
600002d8:	00000013          	nop
600002dc:	00000013          	nop
600002e0:	00000013          	nop
600002e4:	00000013          	nop
600002e8:	00000013          	nop
600002ec:	00000013          	nop
600002f0:	00000013          	nop
600002f4:	00000013          	nop
600002f8:	00000013          	nop
600002fc:	00000013          	nop
60000300:	00000013          	nop
60000304:	00000013          	nop
60000308:	00000013          	nop
6000030c:	00000013          	nop
60000310:	00000013          	nop
60000314:	00000013          	nop
60000318:	00000013          	nop
6000031c:	00000013          	nop
60000320:	00000013          	nop
60000324:	00000013          	nop
60000328:	00000013          	nop
6000032c:	00000013          	nop
60000330:	00000013          	nop
60000334:	00000013          	nop
60000338:	00000013          	nop
6000033c:	00000013          	nop
60000340:	00000013          	nop
60000344:	00000013          	nop
60000348:	00000013          	nop
6000034c:	00000013          	nop
60000350:	00000013          	nop
60000354:	00000013          	nop
60000358:	00000013          	nop
6000035c:	00000013          	nop
60000360:	00000013          	nop
60000364:	00000013          	nop
60000368:	00000013          	nop
6000036c:	00000013          	nop
60000370:	00000013          	nop
60000374:	00000013          	nop
60000378:	00000013          	nop
6000037c:	00000013          	nop
60000380:	00000013          	nop
60000384:	00000013          	nop
60000388:	00000013          	nop
6000038c:	00000013          	nop
60000390:	00000013          	nop
60000394:	00000013          	nop
60000398:	00000013          	nop
6000039c:	00000013          	nop
600003a0:	00000013          	nop
600003a4:	00000013          	nop
600003a8:	00000013          	nop
600003ac:	00000013          	nop
600003b0:	00000013          	nop
600003b4:	00000013          	nop
600003b8:	00000013          	nop
600003bc:	00000013          	nop
600003c0:	00000013          	nop
600003c4:	00000013          	nop
600003c8:	00000013          	nop
600003cc:	00000013          	nop
600003d0:	00000013          	nop
600003d4:	00000013          	nop
600003d8:	00000013          	nop
600003dc:	00000013          	nop
600003e0:	00000013          	nop
600003e4:	00000013          	nop
600003e8:	00000013          	nop
600003ec:	00000013          	nop
600003f0:	00000013          	nop
600003f4:	00000013          	nop
600003f8:	00000013          	nop
600003fc:	00000013          	nop
60000400:	00000013          	nop
60000404:	00000013          	nop
60000408:	00000013          	nop
6000040c:	00000013          	nop
60000410:	00000013          	nop
60000414:	00000013          	nop
60000418:	00000013          	nop
6000041c:	00000013          	nop
60000420:	00000013          	nop
60000424:	00000013          	nop
60000428:	00000013          	nop
6000042c:	00000013          	nop
60000430:	00000013          	nop
60000434:	00000013          	nop
60000438:	00000013          	nop
6000043c:	00000013          	nop
60000440:	00000013          	nop
60000444:	00000013          	nop
60000448:	00000013          	nop
6000044c:	00000013          	nop
60000450:	00000013          	nop
60000454:	00000013          	nop
60000458:	00000013          	nop
6000045c:	00000013          	nop
60000460:	00000013          	nop
60000464:	00000013          	nop
60000468:	00000013          	nop
6000046c:	00000013          	nop
60000470:	00000013          	nop
60000474:	00000013          	nop
60000478:	00000013          	nop
6000047c:	00000013          	nop
60000480:	00000013          	nop
60000484:	00000013          	nop
60000488:	00000013          	nop
6000048c:	00000013          	nop
60000490:	00000013          	nop
60000494:	00000013          	nop
60000498:	00000013          	nop
6000049c:	00000013          	nop
600004a0:	00000013          	nop
600004a4:	00000013          	nop
600004a8:	00000013          	nop
600004ac:	00000013          	nop
600004b0:	00000013          	nop
600004b4:	00000013          	nop
600004b8:	00000013          	nop
600004bc:	00000013          	nop
600004c0:	00000013          	nop
600004c4:	00000013          	nop
600004c8:	00000013          	nop
600004cc:	00000013          	nop
600004d0:	00000013          	nop
600004d4:	00000013          	nop
600004d8:	00000013          	nop
600004dc:	00000013          	nop
600004e0:	00000013          	nop
600004e4:	00000013          	nop
600004e8:	00000013          	nop
600004ec:	00000013          	nop
600004f0:	00000013          	nop
600004f4:	00000013          	nop
600004f8:	00000013          	nop
600004fc:	00000013          	nop
60000500:	00000013          	nop
60000504:	00000013          	nop
60000508:	00000013          	nop
6000050c:	00000013          	nop
60000510:	00000013          	nop
60000514:	00000013          	nop
60000518:	00000013          	nop
6000051c:	00000013          	nop
60000520:	00000013          	nop
60000524:	00000013          	nop
60000528:	00000013          	nop
6000052c:	00000013          	nop
60000530:	00000013          	nop
60000534:	00000013          	nop
60000538:	00000013          	nop
6000053c:	00000013          	nop
60000540:	00000013          	nop
60000544:	00000013          	nop
60000548:	00000013          	nop
6000054c:	00000013          	nop
60000550:	00000013          	nop
60000554:	00000013          	nop
60000558:	00000013          	nop
6000055c:	00000013          	nop
60000560:	00000013          	nop
60000564:	00000013          	nop
60000568:	00000013          	nop
6000056c:	00000013          	nop
60000570:	00000013          	nop
60000574:	00000013          	nop
60000578:	00000013          	nop
6000057c:	00000013          	nop
60000580:	00000013          	nop
60000584:	00000013          	nop
60000588:	00000013          	nop
6000058c:	00000013          	nop
60000590:	00000013          	nop
60000594:	00000013          	nop
60000598:	00000013          	nop
6000059c:	00000013          	nop
600005a0:	00000013          	nop
600005a4:	00000013          	nop
600005a8:	00000013          	nop
600005ac:	00000013          	nop
600005b0:	00000013          	nop
600005b4:	00000013          	nop
600005b8:	00000013          	nop
600005bc:	00000013          	nop
600005c0:	00000013          	nop
600005c4:	00000013          	nop
600005c8:	00000013          	nop
600005cc:	00000013          	nop
600005d0:	00000013          	nop
600005d4:	00000013          	nop
600005d8:	00000013          	nop
600005dc:	00000013          	nop
600005e0:	00000013          	nop
600005e4:	00000013          	nop
600005e8:	00000013          	nop
600005ec:	00000013          	nop
600005f0:	00000013          	nop
600005f4:	00000013          	nop
600005f8:	00000013          	nop
600005fc:	00000013          	nop
60000600:	00000013          	nop
60000604:	00000013          	nop
60000608:	00000013          	nop
6000060c:	00000013          	nop
60000610:	00000013          	nop
60000614:	00000013          	nop

60000618 <main>:
60000618:	f3010113          	addi	x2,x2,-208
6000061c:	0c112623          	sw	x1,204(x2)
60000620:	0c812423          	sw	x8,200(x2)
60000624:	0c912223          	sw	x9,196(x2)
60000628:	0d212023          	sw	x18,192(x2)
6000062c:	0b312e23          	sw	x19,188(x2)
60000630:	0b412c23          	sw	x20,184(x2)
60000634:	0b512a23          	sw	x21,180(x2)
60000638:	0b612823          	sw	x22,176(x2)
6000063c:	0b712623          	sw	x23,172(x2)
60000640:	0b812423          	sw	x24,168(x2)
60000644:	0b912223          	sw	x25,164(x2)
60000648:	0ba12023          	sw	x26,160(x2)
6000064c:	09b12e23          	sw	x27,156(x2)
60000650:	00102013          	slti	x0,x0,1
60000654:	00302013          	slti	x0,x0,3
60000658:	000097b7          	lui	x15,0x9
6000065c:	08878493          	addi	x9,x15,136 # 9088 <_start-0x5fff6f78>
60000660:	0c800793          	li	x15,200
60000664:	02f12023          	sw	x15,32(x2)
60000668:	ed400793          	li	x15,-300
6000066c:	00f12e23          	sw	x15,28(x2)
60000670:	fec00793          	li	x15,-20
60000674:	ffff8737          	lui	x14,0xffff8
60000678:	00f12c23          	sw	x15,24(x2)
6000067c:	12c00793          	li	x15,300
60000680:	00f12023          	sw	x15,0(x2)
60000684:	30070793          	addi	x15,x14,768 # ffff8300 <_stack_top+0x7fff8300>
60000688:	ffff3f37          	lui	x30,0xffff3
6000068c:	ffff1db7          	lui	x27,0xffff1
60000690:	00f12623          	sw	x15,12(x2)
60000694:	02012883          	lw	x17,32(x2)
60000698:	f3800793          	li	x15,-200
6000069c:	928f0f13          	addi	x30,x30,-1752 # ffff2928 <_stack_top+0x7fff2928>
600006a0:	0000abb7          	lui	x23,0xa
600006a4:	000089b7          	lui	x19,0x8
600006a8:	0000db37          	lui	x22,0xd
600006ac:	0000ac37          	lui	x24,0xa
600006b0:	f9c00693          	li	x13,-100
600006b4:	00f12423          	sw	x15,8(x2)
600006b8:	5a0d8d93          	addi	x27,x27,1440 # ffff15a0 <_stack_top+0x7fff15a0>
600006bc:	32000793          	li	x15,800
600006c0:	00d12223          	sw	x13,4(x2)
600006c4:	028b8b93          	addi	x23,x23,40 # a028 <_start-0x5fff5fd8>
600006c8:	d0098993          	addi	x19,x19,-768 # 7d00 <_start-0x5fff8300>
600006cc:	6d8b0b13          	addi	x22,x22,1752 # d6d8 <_start-0x5fff2928>
600006d0:	32000913          	li	x18,800
600006d4:	c40c0c13          	addi	x24,x24,-960 # 9c40 <_start-0x5fff63c0>
600006d8:	00f12823          	sw	x15,16(x2)
600006dc:	00000a97          	auipc	x21,0x0
600006e0:	624a8a93          	addi	x21,x21,1572 # 60000d00 <iter_count>
600006e4:	00100a13          	li	x20,1
600006e8:	01e12a23          	sw	x30,20(x2)
600006ec:	000d8413          	mv	x8,x27
600006f0:	000f0813          	mv	x16,x30
600006f4:	01812603          	lw	x12,24(x2)
600006f8:	01c12503          	lw	x10,28(x2)
600006fc:	00812303          	lw	x6,8(x2)
60000700:	01012e03          	lw	x28,16(x2)
60000704:	00c12e83          	lw	x29,12(x2)
60000708:	00412f03          	lw	x30,4(x2)
6000070c:	00012f83          	lw	x31,0(x2)
60000710:	01260733          	add	x14,x12,x18
60000714:	016c07b3          	add	x15,x24,x22
60000718:	013787b3          	add	x15,x15,x19
6000071c:	00a70733          	add	x14,x14,x10
60000720:	017787b3          	add	x15,x15,x23
60000724:	008805b3          	add	x11,x16,x8
60000728:	01170733          	add	x14,x14,x17
6000072c:	01c306b3          	add	x13,x6,x28
60000730:	00500293          	li	x5,5
60000734:	009787b3          	add	x15,x15,x9
60000738:	01d585b3          	add	x11,x11,x29
6000073c:	01e70733          	add	x14,x14,x30
60000740:	01f686b3          	add	x13,x13,x31
60000744:	06c12a23          	sw	x12,116(x2)
60000748:	00300613          	li	x12,3
6000074c:	0257d7b3          	divu	x15,x15,x5
60000750:	07812423          	sw	x24,104(x2)
60000754:	07212623          	sw	x18,108(x2)
60000758:	07612823          	sw	x22,112(x2)
6000075c:	07312c23          	sw	x19,120(x2)
60000760:	06a12e23          	sw	x10,124(x2)
60000764:	09712023          	sw	x23,128(x2)
60000768:	09112223          	sw	x17,132(x2)
6000076c:	08912423          	sw	x9,136(x2)
60000770:	09e12623          	sw	x30,140(x2)
60000774:	02812c23          	sw	x8,56(x2)
60000778:	03c12e23          	sw	x28,60(x2)
6000077c:	05012023          	sw	x16,64(x2)
60000780:	04612223          	sw	x6,68(x2)
60000784:	05d12423          	sw	x29,72(x2)
60000788:	05f12623          	sw	x31,76(x2)
6000078c:	02c5d5b3          	divu	x11,x11,x12
60000790:	02575733          	divu	x14,x14,x5
60000794:	40b78d33          	sub	x26,x15,x11
60000798:	02c6d6b3          	divu	x13,x13,x12
6000079c:	40d70cb3          	sub	x25,x14,x13
600007a0:	00b79463          	bne	x15,x11,600007a8 <main+0x190>
600007a4:	001cbd13          	seqz	x26,x25
600007a8:	000d0613          	mv	x12,x26
600007ac:	000c8693          	mv	x13,x25
600007b0:	03810593          	addi	x11,x2,56
600007b4:	06810513          	addi	x10,x2,104
600007b8:	00000097          	auipc	x1,0x0
600007bc:	888080e7          	jalr	-1912(x1) # 60000040 <support.constprop.0>
600007c0:	02ad0633          	mul	x12,x26,x10
600007c4:	04a12823          	sw	x10,80(x2)
600007c8:	04b12a23          	sw	x11,84(x2)
600007cc:	02bc8733          	mul	x14,x25,x11
600007d0:	00e60633          	add	x12,x12,x14
600007d4:	18c05a63          	blez	x12,60000968 <main+0x350>
600007d8:	000aae03          	lw	x28,0(x21)
600007dc:	40b00d33          	neg	x26,x11
600007e0:	02812423          	sw	x8,40(x2)
600007e4:	001e0c93          	addi	x25,x28,1
600007e8:	000d0413          	mv	x8,x26
600007ec:	40a00db3          	neg	x27,x10
600007f0:	00000793          	li	x15,0
600007f4:	02912223          	sw	x9,36(x2)
600007f8:	000c8d13          	mv	x26,x25
600007fc:	01c0006f          	j	60000818 <main+0x200>
60000800:	06012783          	lw	x15,96(x2)
60000804:	04f12c23          	sw	x15,88(x2)
60000808:	06412783          	lw	x15,100(x2)
6000080c:	04f12e23          	sw	x15,92(x2)
60000810:	001d0d13          	addi	x26,x26,1
60000814:	00100793          	li	x15,1
60000818:	00178493          	addi	x9,x15,1
6000081c:	00349c93          	slli	x25,x9,0x3
60000820:	03010713          	addi	x14,x2,48
60000824:	000d8613          	mv	x12,x27
60000828:	00040693          	mv	x13,x8
6000082c:	060c8793          	addi	x15,x25,96
60000830:	03810593          	addi	x11,x2,56
60000834:	06810513          	addi	x10,x2,104
60000838:	00e78cb3          	add	x25,x15,x14
6000083c:	01aaa023          	sw	x26,0(x21)
60000840:	03b12823          	sw	x27,48(x2)
60000844:	02812a23          	sw	x8,52(x2)
60000848:	fffff097          	auipc	x1,0xfffff
6000084c:	7f8080e7          	jalr	2040(x1) # 60000040 <support.constprop.0>
60000850:	02ad8633          	mul	x12,x27,x10
60000854:	fcaca023          	sw	x10,-64(x25)
60000858:	fcbca223          	sw	x11,-60(x25)
6000085c:	40a00733          	neg	x14,x10
60000860:	40b00833          	neg	x16,x11
60000864:	02b406b3          	mul	x13,x8,x11
60000868:	00d60633          	add	x12,x12,x13
6000086c:	0ec05a63          	blez	x12,60000960 <main+0x348>
60000870:	05012603          	lw	x12,80(x2)
60000874:	05412883          	lw	x17,84(x2)
60000878:	40a60eb3          	sub	x29,x12,x10
6000087c:	40b888b3          	sub	x17,x17,x11
60000880:	09448a63          	beq	x9,x20,60000914 <main+0x2fc>
60000884:	05812e03          	lw	x28,88(x2)
60000888:	05c12303          	lw	x6,92(x2)
6000088c:	031886b3          	mul	x13,x17,x17
60000890:	40ae0533          	sub	x10,x28,x10
60000894:	40b305b3          	sub	x11,x6,x11
60000898:	03158633          	mul	x12,x11,x17
6000089c:	03de87b3          	mul	x15,x29,x29
600008a0:	03d50f33          	mul	x30,x10,x29
600008a4:	00d787b3          	add	x15,x15,x13
600008a8:	00cf0f33          	add	x30,x30,x12
600008ac:	03df0633          	mul	x12,x30,x29
600008b0:	02f50fb3          	mul	x31,x10,x15
600008b4:	031f06b3          	mul	x13,x30,x17
600008b8:	41f60db3          	sub	x27,x12,x31
600008bc:	02f587b3          	mul	x15,x11,x15
600008c0:	40f68433          	sub	x8,x13,x15
600008c4:	02880633          	mul	x12,x16,x8
600008c8:	03b707b3          	mul	x15,x14,x27
600008cc:	00c787b3          	add	x15,x15,x12
600008d0:	f207d8e3          	bgez	x15,60000800 <main+0x1e8>
600008d4:	02b587b3          	mul	x15,x11,x11
600008d8:	02a506b3          	mul	x13,x10,x10
600008dc:	00f686b3          	add	x13,x13,x15
600008e0:	03d687b3          	mul	x15,x13,x29
600008e4:	03e50533          	mul	x10,x10,x30
600008e8:	03e585b3          	mul	x11,x11,x30
600008ec:	40f50db3          	sub	x27,x10,x15
600008f0:	031686b3          	mul	x13,x13,x17
600008f4:	40d58433          	sub	x8,x11,x13
600008f8:	03b70733          	mul	x14,x14,x27
600008fc:	02880833          	mul	x16,x16,x8
60000900:	01070733          	add	x14,x14,x16
60000904:	30074863          	bltz	x14,60000c14 <main+0x5fc>
60000908:	05c12823          	sw	x28,80(x2)
6000090c:	04612a23          	sw	x6,84(x2)
60000910:	ef1ff06f          	j	60000800 <main+0x1e8>
60000914:	031887b3          	mul	x15,x17,x17
60000918:	03de86b3          	mul	x13,x29,x29
6000091c:	03d705b3          	mul	x11,x14,x29
60000920:	00f686b3          	add	x13,x13,x15
60000924:	031807b3          	mul	x15,x16,x17
60000928:	00f585b3          	add	x11,x11,x15
6000092c:	02d70733          	mul	x14,x14,x13
60000930:	03d587b3          	mul	x15,x11,x29
60000934:	02d806b3          	mul	x13,x16,x13
60000938:	40f70db3          	sub	x27,x14,x15
6000093c:	031585b3          	mul	x11,x11,x17
60000940:	40b68433          	sub	x8,x13,x11
60000944:	03bd87b3          	mul	x15,x27,x27
60000948:	02840733          	mul	x14,x8,x8
6000094c:	00e787b3          	add	x15,x15,x14
60000950:	ec0790e3          	bnez	x15,60000810 <main+0x1f8>
60000954:	40c50433          	sub	x8,x10,x12
60000958:	00088d93          	mv	x27,x17
6000095c:	eb5ff06f          	j	60000810 <main+0x1f8>
60000960:	02412483          	lw	x9,36(x2)
60000964:	02812403          	lw	x8,40(x2)
60000968:	01412883          	lw	x17,20(x2)
6000096c:	00812083          	lw	x1,8(x2)
60000970:	00412703          	lw	x14,4(x2)
60000974:	00189313          	slli	x6,x17,0x1
60000978:	00109893          	slli	x17,x1,0x1
6000097c:	00012083          	lw	x1,0(x2)
60000980:	01c12d03          	lw	x26,28(x2)
60000984:	01012803          	lw	x16,16(x2)
60000988:	00109093          	slli	x1,x1,0x1
6000098c:	00112e23          	sw	x1,28(x2)
60000990:	00412083          	lw	x1,4(x2)
60000994:	00171713          	slli	x14,x14,0x1
60000998:	00181e13          	slli	x28,x16,0x1
6000099c:	00170733          	add	x14,x14,x1
600009a0:	01012083          	lw	x1,16(x2)
600009a4:	00c12803          	lw	x16,12(x2)
600009a8:	00199793          	slli	x15,x19,0x1
600009ac:	001e0e33          	add	x28,x28,x1
600009b0:	01412083          	lw	x1,20(x2)
600009b4:	02012d83          	lw	x27,32(x2)
600009b8:	013787b3          	add	x15,x15,x19
600009bc:	00130333          	add	x6,x6,x1
600009c0:	00812083          	lw	x1,8(x2)
600009c4:	001c1513          	slli	x10,x24,0x1
600009c8:	00181813          	slli	x16,x16,0x1
600009cc:	001888b3          	add	x17,x17,x1
600009d0:	00c12083          	lw	x1,12(x2)
600009d4:	01812c83          	lw	x25,24(x2)
600009d8:	01850533          	add	x10,x10,x24
600009dc:	00f12c23          	sw	x15,24(x2)
600009e0:	00180833          	add	x16,x16,x1
600009e4:	01c12783          	lw	x15,28(x2)
600009e8:	00012083          	lw	x1,0(x2)
600009ec:	001b1613          	slli	x12,x22,0x1
600009f0:	00251513          	slli	x10,x10,0x2
600009f4:	01850533          	add	x10,x10,x24
600009f8:	001d9f93          	slli	x31,x27,0x1
600009fc:	01660633          	add	x12,x12,x22
60000a00:	01bf8fb3          	add	x31,x31,x27
60000a04:	001780b3          	add	x1,x15,x1
60000a08:	00261613          	slli	x12,x12,0x2
60000a0c:	01812783          	lw	x15,24(x2)
60000a10:	00a12c23          	sw	x10,24(x2)
60000a14:	00391513          	slli	x10,x18,0x3
60000a18:	00191593          	slli	x11,x18,0x1
60000a1c:	001c9693          	slli	x13,x25,0x1
60000a20:	00a12e23          	sw	x10,28(x2)
60000a24:	002f9f93          	slli	x31,x31,0x2
60000a28:	01660533          	add	x10,x12,x22
60000a2c:	000d8613          	mv	x12,x27
60000a30:	012585b3          	add	x11,x11,x18
60000a34:	019686b3          	add	x13,x13,x25
60000a38:	00cf8fb3          	add	x31,x31,x12
60000a3c:	00412603          	lw	x12,4(x2)
60000a40:	00259593          	slli	x11,x11,0x2
60000a44:	00269693          	slli	x13,x13,0x2
60000a48:	001d1393          	slli	x7,x26,0x1
60000a4c:	001b9293          	slli	x5,x23,0x1
60000a50:	012585b3          	add	x11,x11,x18
60000a54:	019686b3          	add	x13,x13,x25
60000a58:	003c9913          	slli	x18,x25,0x3
60000a5c:	00271713          	slli	x14,x14,0x2
60000a60:	003d1c93          	slli	x25,x26,0x3
60000a64:	01a383b3          	add	x7,x7,x26
60000a68:	017282b3          	add	x5,x5,x23
60000a6c:	03912223          	sw	x25,36(x2)
60000a70:	00c70733          	add	x14,x14,x12
60000a74:	00361c93          	slli	x25,x12,0x3
60000a78:	01012603          	lw	x12,16(x2)
60000a7c:	00239393          	slli	x7,x7,0x2
60000a80:	00229293          	slli	x5,x5,0x2
60000a84:	01a383b3          	add	x7,x7,x26
60000a88:	017282b3          	add	x5,x5,x23
60000a8c:	003b9d13          	slli	x26,x23,0x3
60000a90:	002e1e13          	slli	x28,x28,0x2
60000a94:	00349b93          	slli	x23,x9,0x3
60000a98:	01712223          	sw	x23,4(x2)
60000a9c:	00ce0e33          	add	x28,x28,x12
60000aa0:	00361b93          	slli	x23,x12,0x3
60000aa4:	01412603          	lw	x12,20(x2)
60000aa8:	00141e93          	slli	x29,x8,0x1
60000aac:	008e8eb3          	add	x29,x29,x8
60000ab0:	00279793          	slli	x15,x15,0x2
60000ab4:	00231313          	slli	x6,x6,0x2
60000ab8:	00c30333          	add	x6,x6,x12
60000abc:	03212023          	sw	x18,32(x2)
60000ac0:	013787b3          	add	x15,x15,x19
60000ac4:	00361913          	slli	x18,x12,0x3
60000ac8:	00399993          	slli	x19,x19,0x3
60000acc:	00c12603          	lw	x12,12(x2)
60000ad0:	002e9e93          	slli	x29,x29,0x2
60000ad4:	00149f13          	slli	x30,x9,0x1
60000ad8:	03312423          	sw	x19,40(x2)
60000adc:	008e8eb3          	add	x29,x29,x8
60000ae0:	00341993          	slli	x19,x8,0x3
60000ae4:	00812403          	lw	x8,8(x2)
60000ae8:	009f0f33          	add	x30,x30,x9
60000aec:	00209093          	slli	x1,x1,0x2
60000af0:	00281813          	slli	x16,x16,0x2
60000af4:	00c80833          	add	x16,x16,x12
60000af8:	02112623          	sw	x1,44(x2)
60000afc:	00361613          	slli	x12,x12,0x3
60000b00:	002f1f13          	slli	x30,x30,0x2
60000b04:	00289893          	slli	x17,x17,0x2
60000b08:	009f0f33          	add	x30,x30,x9
60000b0c:	00341093          	slli	x1,x8,0x3
60000b10:	008888b3          	add	x17,x17,x8
60000b14:	00012403          	lw	x8,0(x2)
60000b18:	00c12423          	sw	x12,8(x2)
60000b1c:	00012603          	lw	x12,0(x2)
60000b20:	02c12483          	lw	x9,44(x2)
60000b24:	00341413          	slli	x8,x8,0x3
60000b28:	40880433          	sub	x8,x16,x8
60000b2c:	00c48633          	add	x12,x9,x12
60000b30:	00c12023          	sw	x12,0(x2)
60000b34:	01c12483          	lw	x9,28(x2)
60000b38:	01812603          	lw	x12,24(x2)
60000b3c:	00012803          	lw	x16,0(x2)
60000b40:	003b1b13          	slli	x22,x22,0x3
60000b44:	40960633          	sub	x12,x12,x9
60000b48:	02012483          	lw	x9,32(x2)
60000b4c:	401300b3          	sub	x1,x6,x1
60000b50:	00812303          	lw	x6,8(x2)
60000b54:	40950533          	sub	x10,x10,x9
60000b58:	02412483          	lw	x9,36(x2)
60000b5c:	00db06b3          	add	x13,x22,x13
60000b60:	01c989b3          	add	x19,x19,x28
60000b64:	409787b3          	sub	x15,x15,x9
60000b68:	02812483          	lw	x9,40(x2)
60000b6c:	011908b3          	add	x17,x18,x17
60000b70:	4046d693          	srai	x13,x13,0x4
60000b74:	007483b3          	add	x7,x9,x7
60000b78:	00412483          	lw	x9,4(x2)
60000b7c:	003c1c13          	slli	x24,x24,0x3
60000b80:	003d9d93          	slli	x27,x27,0x3
60000b84:	00e48733          	add	x14,x9,x14
60000b88:	40475713          	srai	x14,x14,0x4
60000b8c:	00e12223          	sw	x14,4(x2)
60000b90:	4049d713          	srai	x14,x19,0x4
60000b94:	010304b3          	add	x9,x6,x16
60000b98:	01fd0fb3          	add	x31,x26,x31
60000b9c:	00d12c23          	sw	x13,24(x2)
60000ba0:	00e12823          	sw	x14,16(x2)
60000ba4:	4043d693          	srai	x13,x7,0x4
60000ba8:	4048d713          	srai	x14,x17,0x4
60000bac:	4047d993          	srai	x19,x15,0x4
60000bb0:	40445793          	srai	x15,x8,0x4
60000bb4:	00bc05b3          	add	x11,x24,x11
60000bb8:	417e8eb3          	sub	x29,x29,x23
60000bbc:	41b282b3          	sub	x5,x5,x27
60000bc0:	419f0f33          	sub	x30,x30,x25
60000bc4:	00d12e23          	sw	x13,28(x2)
60000bc8:	00e12423          	sw	x14,8(x2)
60000bcc:	404fd693          	srai	x13,x31,0x4
60000bd0:	4044d713          	srai	x14,x9,0x4
60000bd4:	00f12623          	sw	x15,12(x2)
60000bd8:	4040d793          	srai	x15,x1,0x4
60000bdc:	00e12023          	sw	x14,0(x2)
60000be0:	4045d913          	srai	x18,x11,0x4
60000be4:	02d12023          	sw	x13,32(x2)
60000be8:	00000717          	auipc	x14,0x0
60000bec:	10072c23          	sw	x0,280(x14) # 60000d00 <iter_count>
60000bf0:	404f5493          	srai	x9,x30,0x4
60000bf4:	4042db93          	srai	x23,x5,0x4
60000bf8:	40455b13          	srai	x22,x10,0x4
60000bfc:	40465c13          	srai	x24,x12,0x4
60000c00:	00f12a23          	sw	x15,20(x2)
60000c04:	404ed413          	srai	x8,x29,0x4
60000c08:	00078813          	mv	x16,x15
60000c0c:	00068893          	mv	x17,x13
60000c10:	ae5ff06f          	j	600006f4 <main+0xdc>
60000c14:	00402013          	slti	x0,x0,4
60000c18:	00202013          	slti	x0,x0,2
60000c1c:	0cc12083          	lw	x1,204(x2)
60000c20:	0c812403          	lw	x8,200(x2)
60000c24:	0c412483          	lw	x9,196(x2)
60000c28:	0c012903          	lw	x18,192(x2)
60000c2c:	0bc12983          	lw	x19,188(x2)
60000c30:	0b812a03          	lw	x20,184(x2)
60000c34:	0b412a83          	lw	x21,180(x2)
60000c38:	0b012b03          	lw	x22,176(x2)
60000c3c:	0ac12b83          	lw	x23,172(x2)
60000c40:	0a812c03          	lw	x24,168(x2)
60000c44:	0a412c83          	lw	x25,164(x2)
60000c48:	0a012d03          	lw	x26,160(x2)
60000c4c:	09c12d83          	lw	x27,156(x2)
60000c50:	00000513          	li	x10,0
60000c54:	0d010113          	addi	x2,x2,208
60000c58:	00008067          	ret

Disassembly of section .data:

60000c5c <_data_vma_end-0xa4>:
	...

Disassembly of section .tohost:

60000d04 <tohost-0x4>:
60000d04:	0000                	.insn	2, 0x
	...

60000d08 <tohost>:
	...

Disassembly of section .fromhost:

60000d10 <fromhost>:
	...
